(lp0
csympy.geometry.point
Point2D
p1
(csympy.core.numbers
Integer
p2
(I694
tp3
Rp4
(dp5
bg2
(I938
tp6
Rp7
(dp8
btp9
Rp10
(dp11
bag1
(g2
(I77
tp12
Rp13
(dp14
bg2
(I270
tp15
Rp16
(dp17
btp18
Rp19
(dp20
bag1
(g2
(I223
tp21
Rp22
(dp23
bg2
(I862
tp24
Rp25
(dp26
btp27
Rp28
(dp29
bag1
(g2
(I103
tp30
Rp31
(dp32
bg2
(I136
tp33
Rp34
(dp35
btp36
Rp37
(dp38
bag1
(g2
(I301
tp39
Rp40
(dp41
bg2
(I948
tp42
Rp43
(dp44
btp45
Rp46
(dp47
bag1
(g2
(I755
tp48
Rp49
(dp50
bg2
(I805
tp51
Rp52
(dp53
btp54
Rp55
(dp56
bag1
(g2
(I860
tp57
Rp58
(dp59
bg2
(I893
tp60
Rp61
(dp62
btp63
Rp64
(dp65
bag1
(g2
(I80
tp66
Rp67
(dp68
bg2
(I78
tp69
Rp70
(dp71
btp72
Rp73
(dp74
bag1
(g2
(I675
tp75
Rp76
(dp77
bg2
(I19
tp78
Rp79
(dp80
btp81
Rp82
(dp83
bag1
(g2
(I532
tp84
Rp85
(dp86
bg2
(I44
tp87
Rp88
(dp89
btp90
Rp91
(dp92
ba.