(lp0
csympy.geometry.point
Point2D
p1
(csympy.core.numbers
Integer
p2
(I5
tp3
Rp4
(dp5
bg2
(I243
tp6
Rp7
(dp8
btp9
Rp10
(dp11
bag1
(g2
(I775
tp12
Rp13
(dp14
bg2
(I354
tp15
Rp16
(dp17
btp18
Rp19
(dp20
bag1
(g2
(I284
tp21
Rp22
(dp23
bg2
(I773
tp24
Rp25
(dp26
btp27
Rp28
(dp29
bag1
(g2
(I99
tp30
Rp31
(dp32
bg2
(I242
tp33
Rp34
(dp35
btp36
Rp37
(dp38
bag1
(g2
(I187
tp39
Rp40
(dp41
bg2
(I244
tp42
Rp43
(dp44
btp45
Rp46
(dp47
bag1
(g2
(I885
tp48
Rp49
(dp50
bg2
(I859
tp51
Rp52
(dp53
btp54
Rp55
(dp56
bag1
(g2
(I128
tp57
Rp58
(dp59
bg2
(I121
tp60
Rp61
(dp62
btp63
Rp64
(dp65
bag1
(g2
(I442
tp66
Rp67
(dp68
bg2
(I392
tp69
Rp70
(dp71
btp72
Rp73
(dp74
bag1
(g2
(I499
tp75
Rp76
(dp77
bg2
(I19
tp78
Rp79
(dp80
btp81
Rp82
(dp83
bag1
(g2
(I766
tp84
Rp85
(dp86
bg2
(I483
tp87
Rp88
(dp89
btp90
Rp91
(dp92
bag1
(g2
(I961
tp93
Rp94
(dp95
bg2
(I524
tp96
Rp97
(dp98
btp99
Rp100
(dp101
bag1
(g2
(I370
tp102
Rp103
(dp104
bg2
(I326
tp105
Rp106
(dp107
btp108
Rp109
(dp110
bag1
(g2
(I48
tp111
Rp112
(dp113
bg76
tp114
Rp115
(dp116
bag1
(g2
(I664
tp117
Rp118
(dp119
bg2
(I872
tp120
Rp121
(dp122
btp123
Rp124
(dp125
bag1
(g2
(I245
tp126
Rp127
(dp128
bg2
(I759
tp129
Rp130
(dp131
btp132
Rp133
(dp134
bag1
(g2
(I554
tp135
Rp136
(dp137
bg2
(I212
tp138
Rp139
(dp140
btp141
Rp142
(dp143
bag1
(g2
(I260
tp144
Rp145
(dp146
bg2
(I140
tp147
Rp148
(dp149
btp150
Rp151
(dp152
bag1
(g2
(I52
tp153
Rp154
(dp155
bg2
(I391
tp156
Rp157
(dp158
btp159
Rp160
(dp161
bag1
(g2
(I564
tp162
Rp163
(dp164
bg2
(I546
tp165
Rp166
(dp167
btp168
Rp169
(dp170
bag1
(g2
(I886
tp171
Rp172
(dp173
bg2
(I164
tp174
Rp175
(dp176
btp177
Rp178
(dp179
bag1
(g2
(I810
tp180
Rp181
(dp182
bg2
(I14
tp183
Rp184
(dp185
btp186
Rp187
(dp188
bag1
(g2
(I69
tp189
Rp190
(dp191
bg2
(I668
tp192
Rp193
(dp194
btp195
Rp196
(dp197
bag1
(g2
(I868
tp198
Rp199
(dp200
bg2
(I673
tp201
Rp202
(dp203
btp204
Rp205
(dp206
bag1
(g2
(I261
tp207
Rp208
(dp209
bg2
(I819
tp210
Rp211
(dp212
btp213
Rp214
(dp215
bag1
(g2
(I297
tp216
Rp217
(dp218
bg2
(I749
tp219
Rp220
(dp221
btp222
Rp223
(dp224
bag1
(g2
(I656
tp225
Rp226
(dp227
bg2
(I514
tp228
Rp229
(dp230
btp231
Rp232
(dp233
bag1
(g2
(I845
tp234
Rp235
(dp236
bg172
tp237
Rp238
(dp239
bag1
(g2
(I745
tp240
Rp241
(dp242
bg2
(I443
tp243
Rp244
(dp245
btp246
Rp247
(dp248
bag1
(g2
(I306
tp249
Rp250
(dp251
bg2
(I731
tp252
Rp253
(dp254
btp255
Rp256
(dp257
bag1
(g2
(I324
tp258
Rp259
(dp260
bg2
(I526
tp261
Rp262
(dp263
btp264
Rp265
(dp266
bag1
(g2
(I929
tp267
Rp268
(dp269
bg2
(I867
tp270
Rp271
(dp272
btp273
Rp274
(dp275
bag1
(g2
(I758
tp276
Rp277
(dp278
bg2
(I786
tp279
Rp280
(dp281
btp282
Rp283
(dp284
bag1
(g2
(I991
tp285
Rp286
(dp287
bg2
(I375
tp288
Rp289
(dp290
btp291
Rp292
(dp293
bag1
(g2
(I287
tp294
Rp295
(dp296
bg2
(I231
tp297
Rp298
(dp299
btp300
Rp301
(dp302
bag1
(g2
(I441
tp303
Rp304
(dp305
bg2
(I180
tp306
Rp307
(dp308
btp309
Rp310
(dp311
bag1
(g2
(I478
tp312
Rp313
(dp314
bg2
(I977
tp315
Rp316
(dp317
btp318
Rp319
(dp320
bag1
(g2
(I89
tp321
Rp322
(dp323
bg2
(I724
tp324
Rp325
(dp326
btp327
Rp328
(dp329
bag1
(g2
(I406
tp330
Rp331
(dp332
bg2
(I917
tp333
Rp334
(dp335
btp336
Rp337
(dp338
bag1
(g2
(I74
tp339
Rp340
(dp341
bg2
(I59
tp342
Rp343
(dp344
btp345
Rp346
(dp347
bag1
(g2
(I22
tp348
Rp349
(dp350
bg2
(I512
tp351
Rp352
(dp353
btp354
Rp355
(dp356
bag1
(g2
(I116
tp357
Rp358
(dp359
bg2
(I982
tp360
Rp361
(dp362
btp363
Rp364
(dp365
bag1
(g2
(I481
tp366
Rp367
(dp368
bg2
(I472
tp369
Rp370
(dp371
btp372
Rp373
(dp374
bag1
(g2
(I658
tp375
Rp376
(dp377
bg2
(I849
tp378
Rp379
(dp380
btp381
Rp382
(dp383
bag1
(g2
(I166
tp384
Rp385
(dp386
bg2
(I756
tp387
Rp388
(dp389
btp390
Rp391
(dp392
bag1
(g2
(I248
tp393
Rp394
(dp395
bg2
(I185
tp396
Rp397
(dp398
btp399
Rp400
(dp401
bag1
(g2
(I732
tp402
Rp403
(dp404
bg2
(I206
tp405
Rp406
(dp407
btp408
Rp409
(dp410
bag1
(g2
(I712
tp411
Rp412
(dp413
bg2
(I603
tp414
Rp415
(dp416
btp417
Rp418
(dp419
bag1
(g2
(I123
tp420
Rp421
(dp422
bg2
(I38
tp423
Rp424
(dp425
btp426
Rp427
(dp428
bag1
(g2
(I65
tp429
Rp430
(dp431
bg2
(I269
tp432
Rp433
(dp434
btp435
Rp436
(dp437
bag1
(g2
(I453
tp438
Rp439
(dp440
bg2
(I49
tp441
Rp442
(dp443
btp444
Rp445
(dp446
bag1
(g2
(I93
tp447
Rp448
(dp449
bg2
(I252
tp450
Rp451
(dp452
btp453
Rp454
(dp455
bag1
(g52
g2
(I237
tp456
Rp457
(dp458
btp459
Rp460
(dp461
bag1
(g2
(I844
tp462
Rp463
(dp464
bg2
(I505
tp465
Rp466
(dp467
btp468
Rp469
(dp470
bag1
(g2
(I871
tp471
Rp472
(dp473
bg4
tp474
Rp475
(dp476
bag1
(g2
(I471
tp477
Rp478
(dp479
bg2
(I815
tp480
Rp481
(dp482
btp483
Rp484
(dp485
bag1
(g2
(I924
tp486
Rp487
(dp488
bg2
(I629
tp489
Rp490
(dp491
btp492
Rp493
(dp494
bag1
(g2
(I302
tp495
Rp496
(dp497
bg2
(I681
tp498
Rp499
(dp500
btp501
Rp502
(dp503
bag1
(g2
(I686
tp504
Rp505
(dp506
bg2
(I226
tp507
Rp508
(dp509
btp510
Rp511
(dp512
bag1
(g2
(I41
tp513
Rp514
(dp515
bg2
(I84
tp516
Rp517
(dp518
btp519
Rp520
(dp521
bag1
(g2
(I619
tp522
Rp523
(dp524
bg2
(I112
tp525
Rp526
(dp527
btp528
Rp529
(dp530
bag1
(g2
(I791
tp531
Rp532
(dp533
bg2
(I158
tp534
Rp535
(dp536
btp537
Rp538
(dp539
bag1
(g2
(I439
tp540
Rp541
(dp542
bg2
(I783
tp543
Rp544
(dp545
btp546
Rp547
(dp548
bag1
(g2
(I537
tp549
Rp550
(dp551
bg2
(I323
tp552
Rp553
(dp554
btp555
Rp556
(dp557
bag1
(g2
(I510
tp558
Rp559
(dp560
bg2
(I708
tp561
Rp562
(dp563
btp564
Rp565
(dp566
bag1
(g2
(I704
tp567
Rp568
(dp569
bg2
(I555
tp570
Rp571
(dp572
btp573
Rp574
(dp575
bag1
(g2
(I207
tp576
Rp577
(dp578
bg2
(I134
tp579
Rp580
(dp581
btp582
Rp583
(dp584
bag1
(g2
(I195
tp585
Rp586
(dp587
bg2
(I990
tp588
Rp589
(dp590
btp591
Rp592
(dp593
bag1
(g2
(I826
tp594
Rp595
(dp596
bg2
(I937
tp597
Rp598
(dp599
btp600
Rp601
(dp602
bag1
(g2
(I973
tp603
Rp604
(dp605
bg2
(I747
tp606
Rp607
(dp608
btp609
Rp610
(dp611
bag1
(g2
(I742
tp612
Rp613
(dp614
bg2
(I624
tp615
Rp616
(dp617
btp618
Rp619
(dp620
bag1
(g2
(I280
tp621
Rp622
(dp623
bg2
(I547
tp624
Rp625
(dp626
btp627
Rp628
(dp629
bag1
(g2
(I449
tp630
Rp631
(dp632
bg2
(I741
tp633
Rp634
(dp635
btp636
Rp637
(dp638
bag1
(g2
(I799
tp639
Rp640
(dp641
bg2
(I507
tp642
Rp643
(dp644
btp645
Rp646
(dp647
bag1
(g2
(I549
tp648
Rp649
(dp650
bg2
(I728
tp651
Rp652
(dp653
btp654
Rp655
(dp656
bag1
(g2
(I996
tp657
Rp658
(dp659
bg2
(I726
tp660
Rp661
(dp662
btp663
Rp664
(dp665
bag1
(g2
(I834
tp666
Rp667
(dp668
bg2
(I993
tp669
Rp670
(dp671
btp672
Rp673
(dp674
bag1
(g2
(I86
tp675
Rp676
(dp677
bg2
(I636
tp678
Rp679
(dp680
btp681
Rp682
(dp683
bag1
(g2
(I934
tp684
Rp685
(dp686
bg2
(I684
tp687
Rp688
(dp689
btp690
Rp691
(dp692
bag1
(g2
(I255
tp693
Rp694
(dp695
bg181
tp696
Rp697
(dp698
bag1
(g508
g2
(I103
tp699
Rp700
(dp701
btp702
Rp703
(dp704
bag1
(g2
(I533
tp705
Rp706
(dp707
bg2
(I967
tp708
Rp709
(dp710
btp711
Rp712
(dp713
bag1
(g2
(I992
tp714
Rp715
(dp716
bg2
(I869
tp717
Rp718
(dp719
btp720
Rp721
(dp722
bag1
(g2
(I94
tp723
Rp724
(dp725
bg2
(I812
tp726
Rp727
(dp728
btp729
Rp730
(dp731
bag1
(g2
(I33
tp732
Rp733
(dp734
bg2
(I371
tp735
Rp736
(dp737
btp738
Rp739
(dp740
bag1
(g2
(I504
tp741
Rp742
(dp743
bg2
(I66
tp744
Rp745
(dp746
btp747
Rp748
(dp749
bag1
(g2
(I170
tp750
Rp751
(dp752
bg2
(I838
tp753
Rp754
(dp755
btp756
Rp757
(dp758
bag1
(g2
(I203
tp759
Rp760
(dp761
bg2
(I938
tp762
Rp763
(dp764
btp765
Rp766
(dp767
bag1
(g2
(I521
tp768
Rp769
(dp770
bg448
tp771
Rp772
(dp773
bag1
(g2
(I470
tp774
Rp775
(dp776
bg775
tp777
Rp778
(dp779
bag1
(g2
(I62
tp780
Rp781
(dp782
bg2
(I623
tp783
Rp784
(dp785
btp786
Rp787
(dp788
bag1
(g2
(I342
tp789
Rp790
(dp791
bg2
(I45
tp792
Rp793
(dp794
btp795
Rp796
(dp797
bag1
(g2
(I414
tp798
Rp799
(dp800
bg2
(I338
tp801
Rp802
(dp803
btp804
Rp805
(dp806
bag1
(g2
(I832
tp807
Rp808
(dp809
bg478
tp810
Rp811
(dp812
bag1
(g2
(I601
tp813
Rp814
(dp815
bg2
(I904
tp816
Rp817
(dp818
btp819
Rp820
(dp821
bag1
(g2
(I509
tp822
Rp823
(dp824
bg2
(I651
tp825
Rp826
(dp827
btp828
Rp829
(dp830
bag1
(g2
(I860
tp831
Rp832
(dp833
bg40
tp834
Rp835
(dp836
bag1
(g2
(I447
tp837
Rp838
(dp839
bg2
(I951
tp840
Rp841
(dp842
btp843
Rp844
(dp845
bag1
(g184
g2
(I574
tp846
Rp847
(dp848
btp849
Rp850
(dp851
bag1
(g2
(I92
tp852
Rp853
(dp854
bg2
(I752
tp855
Rp856
(dp857
btp858
Rp859
(dp860
bag1
(g2
(I377
tp861
Rp862
(dp863
bg2
(I529
tp864
Rp865
(dp866
btp867
Rp868
(dp869
bag1
(g2
(I828
tp870
Rp871
(dp872
bg2
(I482
tp873
Rp874
(dp875
btp876
Rp877
(dp878
bag1
(g2
(I611
tp879
Rp880
(dp881
bg2
(I800
tp882
Rp883
(dp884
btp885
Rp886
(dp887
bag1
(g2
(I331
tp888
Rp889
(dp890
bg394
tp891
Rp892
(dp893
bag1
(g2
(I21
tp894
Rp895
(dp896
bg2
(I530
tp897
Rp898
(dp899
btp900
Rp901
(dp902
bag1
(g34
g2
(I694
tp903
Rp904
(dp905
btp906
Rp907
(dp908
bag1
(g2
(I881
tp909
Rp910
(dp911
bg2
(I369
tp912
Rp913
(dp914
btp915
Rp916
(dp917
bag1
(g2
(I947
tp918
Rp919
(dp920
bg2
(I25
tp921
Rp922
(dp923
btp924
Rp925
(dp926
bag1
(g2
(I190
tp927
Rp928
(dp929
bg2
(I162
tp930
Rp931
(dp932
btp933
Rp934
(dp935
bag1
(g2
(I437
tp936
Rp937
(dp938
bg2
(I683
tp939
Rp940
(dp941
btp942
Rp943
(dp944
bag1
(g856
g2
(I58
tp945
Rp946
(dp947
btp948
Rp949
(dp950
bag1
(g2
(I17
tp951
Rp952
(dp953
bg94
tp954
Rp955
(dp956
bag1
(g2
(I835
tp957
Rp958
(dp959
bg2
(I765
tp960
Rp961
(dp962
btp963
Rp964
(dp965
bag1
(g2
(I571
tp966
Rp967
(dp968
bg2
(I925
tp969
Rp970
(dp971
btp972
Rp973
(dp974
bag1
(g2
(I830
tp975
Rp976
(dp977
bg2
(I650
tp978
Rp979
(dp980
btp981
Rp982
(dp983
bag1
(g2
(I769
tp984
Rp985
(dp986
bg2
(I229
tp987
Rp988
(dp989
btp990
Rp991
(dp992
bag1
(g2
(I519
tp993
Rp994
(dp995
bg2
(I784
tp996
Rp997
(dp998
btp999
Rp1000
(dp1001
bag1
(g2
(I358
tp1002
Rp1003
(dp1004
bg2
(I596
tp1005
Rp1006
(dp1007
btp1008
Rp1009
(dp1010
bag1
(g2
(I781
tp1011
Rp1012
(dp1013
bg2
(I176
tp1014
Rp1015
(dp1016
btp1017
Rp1018
(dp1019
bag1
(g2
(I23
tp1020
Rp1021
(dp1022
bg2
(I250
tp1023
Rp1024
(dp1025
btp1026
Rp1027
(dp1028
bag1
(g2
(I161
tp1029
Rp1030
(dp1031
bg649
tp1032
Rp1033
(dp1034
ba.