(lp0
csympy.geometry.point
Point2D
p1
(csympy.core.numbers
Integer
p2
(I725
tp3
Rp4
(dp5
bg2
(I928
tp6
Rp7
(dp8
btp9
Rp10
(dp11
bag1
(g2
(I611
tp12
Rp13
(dp14
bg2
(I274
tp15
Rp16
(dp17
btp18
Rp19
(dp20
bag1
(g2
(I875
tp21
Rp22
(dp23
bg2
(I946
tp24
Rp25
(dp26
btp27
Rp28
(dp29
bag1
(g2
(I486
tp30
Rp31
(dp32
bg2
(I592
tp33
Rp34
(dp35
btp36
Rp37
(dp38
bag1
(g2
(I582
tp39
Rp40
(dp41
bg2
(I640
tp42
Rp43
(dp44
btp45
Rp46
(dp47
bag1
(g2
(I207
tp48
Rp49
(dp50
bg2
(I252
tp51
Rp52
(dp53
btp54
Rp55
(dp56
bag1
(g2
(I993
tp57
Rp58
(dp59
bg2
(I99
tp60
Rp61
(dp62
btp63
Rp64
(dp65
bag1
(g2
(I945
tp66
Rp67
(dp68
bg2
(I805
tp69
Rp70
(dp71
btp72
Rp73
(dp74
bag1
(g2
(I156
tp75
Rp76
(dp77
bg2
(I803
tp78
Rp79
(dp80
btp81
Rp82
(dp83
bag1
(g2
(I373
tp84
Rp85
(dp86
bg2
(I240
tp87
Rp88
(dp89
btp90
Rp91
(dp92
bag1
(g2
(I979
tp93
Rp94
(dp95
bg2
(I19
tp96
Rp97
(dp98
btp99
Rp100
(dp101
bag1
(g2
(I705
tp102
Rp103
(dp104
bg2
(I914
tp105
Rp106
(dp107
btp108
Rp109
(dp110
bag1
(g2
(I11
tp111
Rp112
(dp113
bg2
(I159
tp114
Rp115
(dp116
btp117
Rp118
(dp119
bag1
(g2
(I736
tp120
Rp121
(dp122
bg2
(I52
tp123
Rp124
(dp125
btp126
Rp127
(dp128
bag1
(g2
(I317
tp129
Rp130
(dp131
bg2
(I238
tp132
Rp133
(dp134
btp135
Rp136
(dp137
bag1
(g2
(I38
tp138
Rp139
(dp140
bg2
(I231
tp141
Rp142
(dp143
btp144
Rp145
(dp146
bag1
(g2
(I358
tp147
Rp148
(dp149
bg2
(I909
tp150
Rp151
(dp152
btp153
Rp154
(dp155
bag1
(g2
(I566
tp156
Rp157
(dp158
bg2
(I473
tp159
Rp160
(dp161
btp162
Rp163
(dp164
bag1
(g2
(I961
tp165
Rp166
(dp167
bg2
(I39
tp168
Rp169
(dp170
btp171
Rp172
(dp173
bag1
(g2
(I642
tp174
Rp175
(dp176
bg2
(I426
tp177
Rp178
(dp179
btp180
Rp181
(dp182
bag1
(g2
(I399
tp183
Rp184
(dp185
bg2
(I714
tp186
Rp187
(dp188
btp189
Rp190
(dp191
bag1
(g2
(I808
tp192
Rp193
(dp194
bg2
(I788
tp195
Rp196
(dp197
btp198
Rp199
(dp200
bag1
(g2
(I467
tp201
Rp202
(dp203
bg2
(I458
tp204
Rp205
(dp206
btp207
Rp208
(dp209
bag1
(g2
(I726
tp210
Rp211
(dp212
bg2
(I652
tp213
Rp214
(dp215
btp216
Rp217
(dp218
bag1
(g2
(I329
tp219
Rp220
(dp221
bg2
(I793
tp222
Rp223
(dp224
btp225
Rp226
(dp227
bag1
(g2
(I758
tp228
Rp229
(dp230
bg2
(I155
tp231
Rp232
(dp233
btp234
Rp235
(dp236
bag1
(g2
(I337
tp237
Rp238
(dp239
bg2
(I304
tp240
Rp241
(dp242
btp243
Rp244
(dp245
bag1
(g2
(I646
tp246
Rp247
(dp248
bg2
(I271
tp249
Rp250
(dp251
btp252
Rp253
(dp254
bag1
(g2
(I298
tp255
Rp256
(dp257
bg2
(I485
tp258
Rp259
(dp260
btp261
Rp262
(dp263
bag1
(g2
(I357
tp264
Rp265
(dp266
bg2
(I922
tp267
Rp268
(dp269
btp270
Rp271
(dp272
bag1
(g2
(I277
tp273
Rp274
(dp275
bg2
(I924
tp276
Rp277
(dp278
btp279
Rp280
(dp281
bag1
(g2
(I176
tp282
Rp283
(dp284
bg2
(I394
tp285
Rp286
(dp287
btp288
Rp289
(dp290
bag1
(g2
(I968
tp291
Rp292
(dp293
bg2
(I549
tp294
Rp295
(dp296
btp297
Rp298
(dp299
bag1
(g2
(I708
tp300
Rp301
(dp302
bg2
(I192
tp303
Rp304
(dp305
btp306
Rp307
(dp308
bag1
(g2
(I911
tp309
Rp310
(dp311
bg2
(I538
tp312
Rp313
(dp314
btp315
Rp316
(dp317
bag1
(g2
(I342
tp318
Rp319
(dp320
bg2
(I698
tp321
Rp322
(dp323
btp324
Rp325
(dp326
bag1
(g2
(I139
tp327
Rp328
(dp329
bg2
(I406
tp330
Rp331
(dp332
btp333
Rp334
(dp335
bag1
(g2
(I367
tp336
Rp337
(dp338
bg2
(I886
tp339
Rp340
(dp341
btp342
Rp343
(dp344
bag1
(g2
(I569
tp345
Rp346
(dp347
bg2
(I540
tp348
Rp349
(dp350
btp351
Rp352
(dp353
bag1
(g2
(I282
tp354
Rp355
(dp356
bg2
(I973
tp357
Rp358
(dp359
btp360
Rp361
(dp362
bag1
(g2
(I472
tp363
Rp364
(dp365
bg2
(I876
tp366
Rp367
(dp368
btp369
Rp370
(dp371
bag1
(g2
(I581
tp372
Rp373
(dp374
bg2
(I923
tp375
Rp376
(dp377
btp378
Rp379
(dp380
bag1
(g2
(I479
tp381
Rp382
(dp383
bg2
(I366
tp384
Rp385
(dp386
btp387
Rp388
(dp389
bag1
(g2
(I154
tp390
Rp391
(dp392
bg2
(I918
tp393
Rp394
(dp395
btp396
Rp397
(dp398
bag1
(g2
(I532
tp399
Rp400
(dp401
bg2
(I80
tp402
Rp403
(dp404
btp405
Rp406
(dp407
bag1
(g2
(I491
tp408
Rp409
(dp410
bg2
(I196
tp411
Rp412
(dp413
btp414
Rp415
(dp416
bag1
(g2
(I347
tp417
Rp418
(dp419
bg2
(I460
tp420
Rp421
(dp422
btp423
Rp424
(dp425
bag1
(g2
(I380
tp426
Rp427
(dp428
bg2
(I78
tp429
Rp430
(dp431
btp432
Rp433
(dp434
bag1
(g2
(I443
tp435
Rp436
(dp437
bg2
(I37
tp438
Rp439
(dp440
btp441
Rp442
(dp443
bag1
(g2
(I475
tp444
Rp445
(dp446
bg2
(I79
tp447
Rp448
(dp449
btp450
Rp451
(dp452
bag1
(g2
(I55
tp453
Rp454
(dp455
bg2
(I309
tp456
Rp457
(dp458
btp459
Rp460
(dp461
bag1
(g2
(I806
tp462
Rp463
(dp464
bg2
(I292
tp465
Rp466
(dp467
btp468
Rp469
(dp470
bag1
(g2
(I503
tp471
Rp472
(dp473
bg2
(I158
tp474
Rp475
(dp476
btp477
Rp478
(dp479
bag1
(g2
(I177
tp480
Rp481
(dp482
bg2
(I933
tp483
Rp484
(dp485
btp486
Rp487
(dp488
bag1
(g16
g2
(I830
tp489
Rp490
(dp491
btp492
Rp493
(dp494
bag1
(g2
(I126
tp495
Rp496
(dp497
bg2
(I48
tp498
Rp499
(dp500
btp501
Rp502
(dp503
bag1
(g2
(I218
tp504
Rp505
(dp506
bg2
(I181
tp507
Rp508
(dp509
btp510
Rp511
(dp512
bag1
(g2
(I663
tp513
Rp514
(dp515
bg2
(I900
tp516
Rp517
(dp518
btp519
Rp520
(dp521
bag1
(g2
(I212
tp522
Rp523
(dp524
bg238
tp525
Rp526
(dp527
bag1
(g2
(I645
tp528
Rp529
(dp530
bg2
(I963
tp531
Rp532
(dp533
btp534
Rp535
(dp536
bag1
(g2
(I825
tp537
Rp538
(dp539
bg2
(I920
tp540
Rp541
(dp542
btp543
Rp544
(dp545
bag1
(g2
(I96
tp546
Rp547
(dp548
bg2
(I51
tp549
Rp550
(dp551
btp552
Rp553
(dp554
bag1
(g2
(I272
tp555
Rp556
(dp557
bg2
(I414
tp558
Rp559
(dp560
btp561
Rp562
(dp563
bag1
(g2
(I573
tp564
Rp565
(dp566
bg2
(I524
tp567
Rp568
(dp569
btp570
Rp571
(dp572
bag1
(g2
(I834
tp573
Rp574
(dp575
bg2
(I980
tp576
Rp577
(dp578
btp579
Rp580
(dp581
bag1
(g2
(I574
tp582
Rp583
(dp584
bg2
(I632
tp585
Rp586
(dp587
btp588
Rp589
(dp590
bag1
(g2
(I33
tp591
Rp592
(dp593
bg2
(I544
tp594
Rp595
(dp596
btp597
Rp598
(dp599
bag1
(g2
(I441
tp600
Rp601
(dp602
bg2
(I322
tp603
Rp604
(dp605
btp606
Rp607
(dp608
bag1
(g2
(I488
tp609
Rp610
(dp611
bg2
(I874
tp612
Rp613
(dp614
btp615
Rp616
(dp617
bag1
(g2
(I148
tp618
Rp619
(dp620
bg2
(I185
tp621
Rp622
(dp623
btp624
Rp625
(dp626
bag1
(g2
(I636
tp627
Rp628
(dp629
bg2
(I712
tp630
Rp631
(dp632
btp633
Rp634
(dp635
bag1
(g2
(I691
tp636
Rp637
(dp638
bg2
(I141
tp639
Rp640
(dp641
btp642
Rp643
(dp644
bag1
(g2
(I97
tp645
Rp646
(dp647
bg2
(I278
tp648
Rp649
(dp650
btp651
Rp652
(dp653
bag1
(g2
(I183
tp654
Rp655
(dp656
bg2
(I324
tp657
Rp658
(dp659
btp660
Rp661
(dp662
bag1
(g340
g2
(I833
tp663
Rp664
(dp665
btp666
Rp667
(dp668
bag1
(g2
(I571
tp669
Rp670
(dp671
bg2
(I125
tp672
Rp673
(dp674
btp675
Rp676
(dp677
bag1
(g205
g2
(I376
tp678
Rp679
(dp680
btp681
Rp682
(dp683
bag1
(g2
(I522
tp684
Rp685
(dp686
bg2
(I627
tp687
Rp688
(dp689
btp690
Rp691
(dp692
bag1
(g2
(I919
tp693
Rp694
(dp695
bg364
tp696
Rp697
(dp698
bag1
(g2
(I333
tp699
Rp700
(dp701
bg2
(I613
tp702
Rp703
(dp704
btp705
Rp706
(dp707
bag1
(g2
(I98
tp708
Rp709
(dp710
bg2
(I688
tp711
Rp712
(dp713
btp714
Rp715
(dp716
bag1
(g2
(I728
tp717
Rp718
(dp719
bg2
(I508
tp720
Rp721
(dp722
btp723
Rp724
(dp725
bag1
(g2
(I313
tp726
Rp727
(dp728
bg2
(I121
tp729
Rp730
(dp731
btp732
Rp733
(dp734
bag1
(g679
g2
(I315
tp735
Rp736
(dp737
btp738
Rp739
(dp740
bag1
(g2
(I389
tp741
Rp742
(dp743
bg2
(I992
tp744
Rp745
(dp746
btp747
Rp748
(dp749
bag1
(g2
(I270
tp750
Rp751
(dp752
bg193
tp753
Rp754
(dp755
bag1
(g2
(I624
tp756
Rp757
(dp758
bg2
(I921
tp759
Rp760
(dp761
btp762
Rp763
(dp764
bag1
(g2
(I345
tp765
Rp766
(dp767
bg2
(I348
tp768
Rp769
(dp770
btp771
Rp772
(dp773
bag1
(g2
(I327
tp774
Rp775
(dp776
bg2
(I817
tp777
Rp778
(dp779
btp780
Rp781
(dp782
bag1
(g2
(I577
tp783
Rp784
(dp785
bg2
(I560
tp786
Rp787
(dp788
btp789
Rp790
(dp791
bag1
(g2
(I996
tp792
Rp793
(dp794
bg2
(I568
tp795
Rp796
(dp797
btp798
Rp799
(dp800
bag1
(g2
(I123
tp801
Rp802
(dp803
bg2
(I21
tp804
Rp805
(dp806
btp807
Rp808
(dp809
bag1
(g2
(I906
tp810
Rp811
(dp812
bg2
(I235
tp813
Rp814
(dp815
btp816
Rp817
(dp818
bag1
(g2
(I977
tp819
Rp820
(dp821
bg166
tp822
Rp823
(dp824
bag1
(g2
(I136
tp825
Rp826
(dp827
bg2
(I939
tp828
Rp829
(dp830
btp831
Rp832
(dp833
bag1
(g2
(I253
tp834
Rp835
(dp836
bg2
(I50
tp837
Rp838
(dp839
btp840
Rp841
(dp842
bag1
(g2
(I648
tp843
Rp844
(dp845
bg292
tp846
Rp847
(dp848
bag1
(g2
(I242
tp849
Rp850
(dp851
bg2
(I747
tp852
Rp853
(dp854
btp855
Rp856
(dp857
bag1
(g2
(I975
tp858
Rp859
(dp860
bg2
(I676
tp861
Rp862
(dp863
btp864
Rp865
(dp866
bag1
(g2
(I991
tp867
Rp868
(dp869
bg2
(I36
tp870
Rp871
(dp872
btp873
Rp874
(dp875
bag1
(g2
(I180
tp876
Rp877
(dp878
bg2
(I400
tp879
Rp880
(dp881
btp882
Rp883
(dp884
bag1
(g2
(I854
tp885
Rp886
(dp887
bg58
tp888
Rp889
(dp890
bag1
(g2
(I687
tp891
Rp892
(dp893
bg2
(I787
tp894
Rp895
(dp896
btp897
Rp898
(dp899
bag1
(g2
(I243
tp900
Rp901
(dp902
bg2
(I609
tp903
Rp904
(dp905
btp906
Rp907
(dp908
bag1
(g2
(I145
tp909
Rp910
(dp911
bg2
(I306
tp912
Rp913
(dp914
btp915
Rp916
(dp917
bag1
(g2
(I505
tp918
Rp919
(dp920
bg505
tp921
Rp922
(dp923
bag1
(g2
(I745
tp924
Rp925
(dp926
bg2
(I490
tp927
Rp928
(dp929
btp930
Rp931
(dp932
bag1
(g2
(I260
tp933
Rp934
(dp935
bg2
(I496
tp936
Rp937
(dp938
btp939
Rp940
(dp941
bag1
(g2
(I936
tp942
Rp943
(dp944
bg2
(I49
tp945
Rp946
(dp947
btp948
Rp949
(dp950
bag1
(g2
(I866
tp951
Rp952
(dp953
bg2
(I859
tp954
Rp955
(dp956
btp957
Rp958
(dp959
bag1
(g2
(I776
tp960
Rp961
(dp962
bg2
(I603
tp963
Rp964
(dp965
btp966
Rp967
(dp968
bag1
(g2
(I111
tp969
Rp970
(dp971
bg2
(I684
tp972
Rp973
(dp974
btp975
Rp976
(dp977
bag1
(g2
(I370
tp978
Rp979
(dp980
bg2
(I683
tp981
Rp982
(dp983
btp984
Rp985
(dp986
bag1
(g2
(I320
tp987
Rp988
(dp989
bg2
(I755
tp990
Rp991
(dp992
btp993
Rp994
(dp995
bag1
(g2
(I596
tp996
Rp997
(dp998
bg628
tp999
Rp1000
(dp1001
bag1
(g541
g2
(I578
tp1002
Rp1003
(dp1004
btp1005
Rp1006
(dp1007
bag1
(g2
(I842
tp1008
Rp1009
(dp1010
bg337
tp1011
Rp1012
(dp1013
bag1
(g2
(I412
tp1014
Rp1015
(dp1016
bg2
(I23
tp1017
Rp1018
(dp1019
btp1020
Rp1021
(dp1022
bag1
(g2
(I70
tp1023
Rp1024
(dp1025
bg2
(I480
tp1026
Rp1027
(dp1028
btp1029
Rp1030
(dp1031
bag1
(g2
(I69
tp1032
Rp1033
(dp1034
bg2
(I248
tp1035
Rp1036
(dp1037
btp1038
Rp1039
(dp1040
ba.