(lp0
csympy.geometry.point
Point2D
p1
(csympy.core.numbers
Integer
p2
(I226
tp3
Rp4
(dp5
bg2
(I312
tp6
Rp7
(dp8
btp9
Rp10
(dp11
bag1
(g2
(I134
tp12
Rp13
(dp14
bg2
(I736
tp15
Rp16
(dp17
btp18
Rp19
(dp20
bag1
(g2
(I670
tp21
Rp22
(dp23
bg2
(I690
tp24
Rp25
(dp26
btp27
Rp28
(dp29
bag1
(g2
(I558
tp30
Rp31
(dp32
bg2
(I772
tp33
Rp34
(dp35
btp36
Rp37
(dp38
bag1
(g2
(I721
tp39
Rp40
(dp41
bg2
(I220
tp42
Rp43
(dp44
btp45
Rp46
(dp47
bag1
(g2
(I117
tp48
Rp49
(dp50
bg2
(I713
tp51
Rp52
(dp53
btp54
Rp55
(dp56
bag1
(g2
(I814
tp57
Rp58
(dp59
bg2
(I677
tp60
Rp61
(dp62
btp63
Rp64
(dp65
bag1
(g2
(I419
tp66
Rp67
(dp68
bg2
(I825
tp69
Rp70
(dp71
btp72
Rp73
(dp74
bag1
(g2
(I935
tp75
Rp76
(dp77
bg2
(I394
tp78
Rp79
(dp80
btp81
Rp82
(dp83
bag1
(g2
(I640
tp84
Rp85
(dp86
bg2
(I573
tp87
Rp88
(dp89
btp90
Rp91
(dp92
bag1
(g2
(I479
tp93
Rp94
(dp95
bg2
(I899
tp96
Rp97
(dp98
btp99
Rp100
(dp101
bag1
(g2
(I116
tp102
Rp103
(dp104
bg2
(I862
tp105
Rp106
(dp107
btp108
Rp109
(dp110
bag1
(g2
(I958
tp111
Rp112
(dp113
bg2
(I352
tp114
Rp115
(dp116
btp117
Rp118
(dp119
bag1
(g2
(I158
tp120
Rp121
(dp122
bg2
(I221
tp123
Rp124
(dp125
btp126
Rp127
(dp128
bag1
(g2
(I748
tp129
Rp130
(dp131
bg2
(I552
tp132
Rp133
(dp134
btp135
Rp136
(dp137
bag1
(g2
(I262
tp138
Rp139
(dp140
bg130
tp141
Rp142
(dp143
bag1
(g2
(I841
tp144
Rp145
(dp146
bg2
(I593
tp147
Rp148
(dp149
btp150
Rp151
(dp152
bag1
(g2
(I340
tp153
Rp154
(dp155
bg2
(I788
tp156
Rp157
(dp158
btp159
Rp160
(dp161
bag1
(g2
(I605
tp162
Rp163
(dp164
bg2
(I118
tp165
Rp166
(dp167
btp168
Rp169
(dp170
bag1
(g2
(I582
tp171
Rp172
(dp173
bg2
(I3
tp174
Rp175
(dp176
btp177
Rp178
(dp179
bag1
(g2
(I228
tp180
Rp181
(dp182
bg2
(I855
tp183
Rp184
(dp185
btp186
Rp187
(dp188
bag1
(g2
(I372
tp189
Rp190
(dp191
bg2
(I143
tp192
Rp193
(dp194
btp195
Rp196
(dp197
bag1
(g43
g2
(I152
tp198
Rp199
(dp200
btp201
Rp202
(dp203
bag1
(g2
(I302
tp204
Rp205
(dp206
bg2
(I954
tp207
Rp208
(dp209
btp210
Rp211
(dp212
bag1
(g2
(I970
tp213
Rp214
(dp215
bg2
(I860
tp216
Rp217
(dp218
btp219
Rp220
(dp221
bag1
(g61
g2
(I623
tp222
Rp223
(dp224
btp225
Rp226
(dp227
bag1
(g2
(I129
tp228
Rp229
(dp230
bg2
(I216
tp231
Rp232
(dp233
btp234
Rp235
(dp236
bag1
(g2
(I830
tp237
Rp238
(dp239
bg2
(I165
tp240
Rp241
(dp242
btp243
Rp244
(dp245
bag1
(g2
(I856
tp246
Rp247
(dp248
bg2
(I198
tp249
Rp250
(dp251
btp252
Rp253
(dp254
bag1
(g2
(I447
tp255
Rp256
(dp257
bg2
(I230
tp258
Rp259
(dp260
btp261
Rp262
(dp263
bag1
(g2
(I257
tp264
Rp265
(dp266
bg2
(I515
tp267
Rp268
(dp269
btp270
Rp271
(dp272
bag1
(g2
(I735
tp273
Rp274
(dp275
bg2
(I242
tp276
Rp277
(dp278
btp279
Rp280
(dp281
bag1
(g2
(I209
tp282
Rp283
(dp284
bg2
(I757
tp285
Rp286
(dp287
btp288
Rp289
(dp290
bag1
(g2
(I75
tp291
Rp292
(dp293
bg2
(I80
tp294
Rp295
(dp296
btp297
Rp298
(dp299
bag1
(g2
(I416
tp300
Rp301
(dp302
bg2
(I293
tp303
Rp304
(dp305
btp306
Rp307
(dp308
bag1
(g2
(I299
tp309
Rp310
(dp311
bg2
(I737
tp312
Rp313
(dp314
btp315
Rp316
(dp317
bag1
(g2
(I644
tp318
Rp319
(dp320
bg2
(I656
tp321
Rp322
(dp323
btp324
Rp325
(dp326
bag1
(g2
(I646
tp327
Rp328
(dp329
bg2
(I801
tp330
Rp331
(dp332
btp333
Rp334
(dp335
bag1
(g2
(I50
tp336
Rp337
(dp338
bg2
(I272
tp339
Rp340
(dp341
btp342
Rp343
(dp344
bag1
(g2
(I827
tp345
Rp346
(dp347
bg2
(I680
tp348
Rp349
(dp350
btp351
Rp352
(dp353
bag1
(g2
(I29
tp354
Rp355
(dp356
bg2
(I524
tp357
Rp358
(dp359
btp360
Rp361
(dp362
bag1
(g2
(I310
tp363
Rp364
(dp365
bg2
(I452
tp366
Rp367
(dp368
btp369
Rp370
(dp371
bag1
(g2
(I258
tp372
Rp373
(dp374
bg2
(I341
tp375
Rp376
(dp377
btp378
Rp379
(dp380
bag1
(g2
(I844
tp381
Rp382
(dp383
bg2
(I8
tp384
Rp385
(dp386
btp387
Rp388
(dp389
bag1
(g2
(I374
tp390
Rp391
(dp392
bg2
(I782
tp393
Rp394
(dp395
btp396
Rp397
(dp398
bag1
(g2
(I388
tp399
Rp400
(dp401
bg265
tp402
Rp403
(dp404
bag1
(g2
(I932
tp405
Rp406
(dp407
bg2
(I417
tp408
Rp409
(dp410
btp411
Rp412
(dp413
bag1
(g2
(I587
tp414
Rp415
(dp416
bg2
(I976
tp417
Rp418
(dp419
btp420
Rp421
(dp422
bag1
(g2
(I412
tp423
Rp424
(dp425
bg2
(I956
tp426
Rp427
(dp428
btp429
Rp430
(dp431
bag1
(g2
(I777
tp432
Rp433
(dp434
bg2
(I265
tp435
Rp436
(dp437
btp438
Rp439
(dp440
bag1
(g2
(I18
tp441
Rp442
(dp443
bg2
(I402
tp444
Rp445
(dp446
btp447
Rp448
(dp449
bag1
(g2
(I411
tp450
Rp451
(dp452
bg2
(I179
tp453
Rp454
(dp455
btp456
Rp457
(dp458
bag1
(g2
(I885
tp459
Rp460
(dp461
bg2
(I875
tp462
Rp463
(dp464
btp465
Rp466
(dp467
bag1
(g2
(I441
tp468
Rp469
(dp470
bg139
tp471
Rp472
(dp473
bag1
(g2
(I534
tp474
Rp475
(dp476
bg2
(I47
tp477
Rp478
(dp479
btp480
Rp481
(dp482
bag1
(g2
(I59
tp483
Rp484
(dp485
bg2
(I604
tp486
Rp487
(dp488
btp489
Rp490
(dp491
bag1
(g2
(I413
tp492
Rp493
(dp494
bg2
(I634
tp495
Rp496
(dp497
btp498
Rp499
(dp500
bag1
(g2
(I414
tp501
Rp502
(dp503
bg2
(I270
tp504
Rp505
(dp506
btp507
Rp508
(dp509
bag1
(g2
(I797
tp510
Rp511
(dp512
bg2
(I49
tp513
Rp514
(dp515
btp516
Rp517
(dp518
bag1
(g2
(I920
tp519
Rp520
(dp521
bg2
(I874
tp522
Rp523
(dp524
btp525
Rp526
(dp527
bag1
(g2
(I507
tp528
Rp529
(dp530
bg2
(I268
tp531
Rp532
(dp533
btp534
Rp535
(dp536
bag1
(g2
(I798
tp537
Rp538
(dp539
bg2
(I300
tp540
Rp541
(dp542
btp543
Rp544
(dp545
bag1
(g2
(I45
tp546
Rp547
(dp548
bg2
(I783
tp549
Rp550
(dp551
btp552
Rp553
(dp554
bag1
(g2
(I779
tp555
Rp556
(dp557
bg2
(I342
tp558
Rp559
(dp560
btp561
Rp562
(dp563
bag1
(g2
(I434
tp564
Rp565
(dp566
bg2
(I795
tp567
Rp568
(dp569
btp570
Rp571
(dp572
bag1
(g2
(I298
tp573
Rp574
(dp575
bg2
(I331
tp576
Rp577
(dp578
btp579
Rp580
(dp581
bag1
(g2
(I535
tp582
Rp583
(dp584
bg2
(I307
tp585
Rp586
(dp587
btp588
Rp589
(dp590
bag1
(g463
g2
(I849
tp591
Rp592
(dp593
btp594
Rp595
(dp596
bag1
(g2
(I150
tp597
Rp598
(dp599
bg2
(I723
tp600
Rp601
(dp602
btp603
Rp604
(dp605
bag1
(g2
(I375
tp606
Rp607
(dp608
bg2
(I725
tp609
Rp610
(dp611
btp612
Rp613
(dp614
bag1
(g2
(I763
tp615
Rp616
(dp617
bg2
(I159
tp618
Rp619
(dp620
btp621
Rp622
(dp623
bag1
(g2
(I697
tp624
Rp625
(dp626
bg2
(I189
tp627
Rp628
(dp629
btp630
Rp631
(dp632
bag1
(g2
(I410
tp633
Rp634
(dp635
bg2
(I320
tp636
Rp637
(dp638
btp639
Rp640
(dp641
bag1
(g2
(I237
tp642
Rp643
(dp644
bg2
(I91
tp645
Rp646
(dp647
btp648
Rp649
(dp650
bag1
(g2
(I668
tp651
Rp652
(dp653
bg2
(I762
tp654
Rp655
(dp656
btp657
Rp658
(dp659
bag1
(g2
(I756
tp660
Rp661
(dp662
bg2
(I589
tp663
Rp664
(dp665
btp666
Rp667
(dp668
bag1
(g2
(I610
tp669
Rp670
(dp671
bg181
tp672
Rp673
(dp674
bag1
(g2
(I567
tp675
Rp676
(dp677
bg2
(I787
tp678
Rp679
(dp680
btp681
Rp682
(dp683
bag1
(g2
(I947
tp684
Rp685
(dp686
bg2
(I65
tp687
Rp688
(dp689
btp690
Rp691
(dp692
bag1
(g2
(I393
tp693
Rp694
(dp695
bg2
(I199
tp696
Rp697
(dp698
btp699
Rp700
(dp701
bag1
(g2
(I818
tp702
Rp703
(dp704
bg2
(I63
tp705
Rp706
(dp707
btp708
Rp709
(dp710
bag1
(g2
(I339
tp711
Rp712
(dp713
bg2
(I94
tp714
Rp715
(dp716
btp717
Rp718
(dp719
bag1
(g2
(I550
tp720
Rp721
(dp722
bg2
(I33
tp723
Rp724
(dp725
btp726
Rp727
(dp728
bag1
(g2
(I286
tp729
Rp730
(dp731
bg2
(I496
tp732
Rp733
(dp734
btp735
Rp736
(dp737
bag1
(g2
(I710
tp738
Rp739
(dp740
bg2
(I722
tp741
Rp742
(dp743
btp744
Rp745
(dp746
bag1
(g2
(I31
tp747
Rp748
(dp749
bg2
(I463
tp750
Rp751
(dp752
btp753
Rp754
(dp755
bag1
(g2
(I275
tp756
Rp757
(dp758
bg2
(I858
tp759
Rp760
(dp761
btp762
Rp763
(dp764
bag1
(g2
(I676
tp765
Rp766
(dp767
bg2
(I526
tp768
Rp769
(dp770
btp771
Rp772
(dp773
bag1
(g769
g2
(I483
tp774
Rp775
(dp776
btp777
Rp778
(dp779
bag1
(g2
(I139
tp780
Rp781
(dp782
bg2
(I619
tp783
Rp784
(dp785
btp786
Rp787
(dp788
bag1
(g2
(I100
tp789
Rp790
(dp791
bg415
tp792
Rp793
(dp794
bag1
(g2
(I306
tp795
Rp796
(dp797
bg652
tp798
Rp799
(dp800
bag1
(g2
(I377
tp801
Rp802
(dp803
bg460
tp804
Rp805
(dp806
bag1
(g331
g2
(I151
tp807
Rp808
(dp809
btp810
Rp811
(dp812
bag1
(g2
(I108
tp813
Rp814
(dp815
bg49
tp816
Rp817
(dp818
bag1
(g2
(I239
tp819
Rp820
(dp821
bg2
(I138
tp822
Rp823
(dp824
btp825
Rp826
(dp827
bag1
(g2
(I879
tp828
Rp829
(dp830
bg469
tp831
Rp832
(dp833
bag1
(g2
(I44
tp834
Rp835
(dp836
bg2
(I420
tp837
Rp838
(dp839
btp840
Rp841
(dp842
bag1
(g2
(I4
tp843
Rp844
(dp845
bg2
(I564
tp846
Rp847
(dp848
btp849
Rp850
(dp851
bag1
(g2
(I530
tp852
Rp853
(dp854
bg2
(I382
tp855
Rp856
(dp857
btp858
Rp859
(dp860
bag1
(g637
g2
(I647
tp861
Rp862
(dp863
btp864
Rp865
(dp866
bag1
(g2
(I433
tp867
Rp868
(dp869
bg2
(I282
tp870
Rp871
(dp872
btp873
Rp874
(dp875
bag1
(g2
(I407
tp876
Rp877
(dp878
bg2
(I702
tp879
Rp880
(dp881
btp882
Rp883
(dp884
bag1
(g2
(I561
tp885
Rp886
(dp887
bg2
(I983
tp888
Rp889
(dp890
btp891
Rp892
(dp893
bag1
(g2
(I166
tp894
Rp895
(dp896
bg2
(I865
tp897
Rp898
(dp899
btp900
Rp901
(dp902
bag1
(g2
(I436
tp903
Rp904
(dp905
bg2
(I469
tp906
Rp907
(dp908
btp909
Rp910
(dp911
bag1
(g907
g2
(I867
tp912
Rp913
(dp914
btp915
Rp916
(dp917
bag1
(g2
(I68
tp918
Rp919
(dp920
bg2
(I905
tp921
Rp922
(dp923
btp924
Rp925
(dp926
bag1
(g2
(I502
tp927
Rp928
(dp929
bg2
(I584
tp930
Rp931
(dp932
btp933
Rp934
(dp935
bag1
(g217
g2
(I943
tp936
Rp937
(dp938
btp939
Rp940
(dp941
bag1
(g2
(I366
tp942
Rp943
(dp944
bg2
(I774
tp945
Rp946
(dp947
btp948
Rp949
(dp950
bag1
(g2
(I57
tp951
Rp952
(dp953
bg2
(I799
tp954
Rp955
(dp956
btp957
Rp958
(dp959
bag1
(g2
(I708
tp960
Rp961
(dp962
bg2
(I313
tp963
Rp964
(dp965
btp966
Rp967
(dp968
bag1
(g2
(I930
tp969
Rp970
(dp971
bg2
(I252
tp972
Rp973
(dp974
btp975
Rp976
(dp977
bag1
(g2
(I685
tp978
Rp979
(dp980
bg2
(I692
tp981
Rp982
(dp983
btp984
Rp985
(dp986
bag1
(g2
(I901
tp987
Rp988
(dp989
bg2
(I89
tp990
Rp991
(dp992
btp993
Rp994
(dp995
bag1
(g2
(I931
tp996
Rp997
(dp998
bg2
(I836
tp999
Rp1000
(dp1001
btp1002
Rp1003
(dp1004
bag1
(g2
(I776
tp1005
Rp1006
(dp1007
bg85
tp1008
Rp1009
(dp1010
bag1
(g523
g2
(I888
tp1011
Rp1012
(dp1013
btp1014
Rp1015
(dp1016
bag1
(g2
(I170
tp1017
Rp1018
(dp1019
bg2
(I137
tp1020
Rp1021
(dp1022
btp1023
Rp1024
(dp1025
ba.