(lp0
csympy.geometry.point
Point2D
p1
(csympy.core.numbers
Integer
p2
(I662
tp3
Rp4
(dp5
bg2
(I380
tp6
Rp7
(dp8
btp9
Rp10
(dp11
bag1
(g2
(I583
tp12
Rp13
(dp14
bg2
(I457
tp15
Rp16
(dp17
btp18
Rp19
(dp20
bag1
(g2
(I896
tp21
Rp22
(dp23
bg2
(I612
tp24
Rp25
(dp26
btp27
Rp28
(dp29
bag1
(g2
(I379
tp30
Rp31
(dp32
bg2
(I851
tp33
Rp34
(dp35
btp36
Rp37
(dp38
bag1
(g2
(I168
tp39
Rp40
(dp41
bg2
(I506
tp42
Rp43
(dp44
btp45
Rp46
(dp47
bag1
(g2
(I152
tp48
Rp49
(dp50
bg2
(I46
tp51
Rp52
(dp53
btp54
Rp55
(dp56
bag1
(g2
(I987
tp57
Rp58
(dp59
bg2
(I639
tp60
Rp61
(dp62
btp63
Rp64
(dp65
bag1
(g2
(I128
tp66
Rp67
(dp68
bg2
(I298
tp69
Rp70
(dp71
btp72
Rp73
(dp74
bag1
(g2
(I916
tp75
Rp76
(dp77
bg2
(I18
tp78
Rp79
(dp80
btp81
Rp82
(dp83
bag1
(g2
(I38
tp84
Rp85
(dp86
bg2
(I355
tp87
Rp88
(dp89
btp90
Rp91
(dp92
bag1
(g2
(I780
tp93
Rp94
(dp95
bg2
(I691
tp96
Rp97
(dp98
btp99
Rp100
(dp101
bag1
(g2
(I360
tp102
Rp103
(dp104
bg2
(I178
tp105
Rp106
(dp107
btp108
Rp109
(dp110
bag1
(g2
(I795
tp111
Rp112
(dp113
bg2
(I804
tp114
Rp115
(dp116
btp117
Rp118
(dp119
bag1
(g2
(I231
tp120
Rp121
(dp122
bg2
(I884
tp123
Rp124
(dp125
btp126
Rp127
(dp128
bag1
(g2
(I492
tp129
Rp130
(dp131
bg2
(I758
tp132
Rp133
(dp134
btp135
Rp136
(dp137
bag1
(g2
(I937
tp138
Rp139
(dp140
bg2
(I624
tp141
Rp142
(dp143
btp144
Rp145
(dp146
bag1
(g2
(I621
tp147
Rp148
(dp149
bg2
(I241
tp150
Rp151
(dp152
btp153
Rp154
(dp155
bag1
(g2
(I669
tp156
Rp157
(dp158
bg2
(I438
tp159
Rp160
(dp161
btp162
Rp163
(dp164
bag1
(g2
(I740
tp165
Rp166
(dp167
bg2
(I996
tp168
Rp169
(dp170
btp171
Rp172
(dp173
bag1
(g2
(I99
tp174
Rp175
(dp176
bg2
(I277
tp177
Rp178
(dp179
btp180
Rp181
(dp182
bag1
(g2
(I408
tp183
Rp184
(dp185
bg2
(I983
tp186
Rp187
(dp188
btp189
Rp190
(dp191
bag1
(g2
(I620
tp192
Rp193
(dp194
bg2
(I234
tp195
Rp196
(dp197
btp198
Rp199
(dp200
bag1
(g2
(I698
tp201
Rp202
(dp203
bg2
(I995
tp204
Rp205
(dp206
btp207
Rp208
(dp209
bag1
(g2
(I499
tp210
Rp211
(dp212
bg2
(I43
tp213
Rp214
(dp215
btp216
Rp217
(dp218
bag1
(g2
(I123
tp219
Rp220
(dp221
bg2
(I193
tp222
Rp223
(dp224
btp225
Rp226
(dp227
bag1
(g2
(I400
tp228
Rp229
(dp230
bg2
(I49
tp231
Rp232
(dp233
btp234
Rp235
(dp236
bag1
(g2
(I251
tp237
Rp238
(dp239
bg2
(I888
tp240
Rp241
(dp242
btp243
Rp244
(dp245
bag1
(g2
(I141
tp246
Rp247
(dp248
bg2
(I799
tp249
Rp250
(dp251
btp252
Rp253
(dp254
bag1
(g2
(I37
tp255
Rp256
(dp257
bg2
(I633
tp258
Rp259
(dp260
btp261
Rp262
(dp263
bag1
(g2
(I880
tp264
Rp265
(dp266
bg2
(I6
tp267
Rp268
(dp269
btp270
Rp271
(dp272
bag1
(g2
(I192
tp273
Rp274
(dp275
bg2
(I101
tp276
Rp277
(dp278
btp279
Rp280
(dp281
bag1
(g2
(I530
tp282
Rp283
(dp284
bg22
tp285
Rp286
(dp287
bag1
(g2
(I632
tp288
Rp289
(dp290
bg2
(I142
tp291
Rp292
(dp293
btp294
Rp295
(dp296
bag1
(g2
(I126
tp297
Rp298
(dp299
bg2
(I721
tp300
Rp301
(dp302
btp303
Rp304
(dp305
bag1
(g2
(I225
tp306
Rp307
(dp308
bg274
tp309
Rp310
(dp311
bag1
(g2
(I21
tp312
Rp313
(dp314
bg2
(I785
tp315
Rp316
(dp317
btp318
Rp319
(dp320
bag1
(g2
(I292
tp321
Rp322
(dp323
bg211
tp324
Rp325
(dp326
bag1
(g2
(I627
tp327
Rp328
(dp329
bg2
(I478
tp330
Rp331
(dp332
btp333
Rp334
(dp335
bag1
(g2
(I381
tp336
Rp337
(dp338
bg2
(I102
tp339
Rp340
(dp341
btp342
Rp343
(dp344
bag1
(g2
(I925
tp345
Rp346
(dp347
bg2
(I286
tp348
Rp349
(dp350
btp351
Rp352
(dp353
bag1
(g2
(I153
tp354
Rp355
(dp356
bg2
(I778
tp357
Rp358
(dp359
btp360
Rp361
(dp362
bag1
(g2
(I370
tp363
Rp364
(dp365
bg2
(I475
tp366
Rp367
(dp368
btp369
Rp370
(dp371
bag1
(g2
(I709
tp372
Rp373
(dp374
bg2
(I219
tp375
Rp376
(dp377
btp378
Rp379
(dp380
bag1
(g2
(I523
tp381
Rp382
(dp383
bg2
(I924
tp384
Rp385
(dp386
btp387
Rp388
(dp389
bag1
(g2
(I702
tp390
Rp391
(dp392
bg2
(I578
tp393
Rp394
(dp395
btp396
Rp397
(dp398
bag1
(g2
(I706
tp399
Rp400
(dp401
bg2
(I86
tp402
Rp403
(dp404
btp405
Rp406
(dp407
bag1
(g2
(I463
tp408
Rp409
(dp410
bg2
(I81
tp411
Rp412
(dp413
btp414
Rp415
(dp416
bag1
(g2
(I185
tp417
Rp418
(dp419
bg184
tp420
Rp421
(dp422
bag1
(g2
(I30
tp423
Rp424
(dp425
bg2
(I29
tp426
Rp427
(dp428
btp429
Rp430
(dp431
bag1
(g2
(I304
tp432
Rp433
(dp434
bg2
(I407
tp435
Rp436
(dp437
btp438
Rp439
(dp440
bag1
(g2
(I333
tp441
Rp442
(dp443
bg2
(I567
tp444
Rp445
(dp446
btp447
Rp448
(dp449
bag1
(g2
(I607
tp450
Rp451
(dp452
bg2
(I462
tp453
Rp454
(dp455
btp456
Rp457
(dp458
bag1
(g70
g2
(I59
tp459
Rp460
(dp461
btp462
Rp463
(dp464
bag1
(g2
(I416
tp465
Rp466
(dp467
bg2
(I710
tp468
Rp469
(dp470
btp471
Rp472
(dp473
bag1
(g2
(I814
tp474
Rp475
(dp476
bg2
(I176
tp477
Rp478
(dp479
btp480
Rp481
(dp482
bag1
(g2
(I510
tp483
Rp484
(dp485
bg2
(I36
tp486
Rp487
(dp488
btp489
Rp490
(dp491
bag1
(g2
(I705
tp492
Rp493
(dp494
bg2
(I901
tp495
Rp496
(dp497
btp498
Rp499
(dp500
bag1
(g2
(I105
tp501
Rp502
(dp503
bg2
(I707
tp504
Rp505
(dp506
btp507
Rp508
(dp509
bag1
(g2
(I765
tp510
Rp511
(dp512
bg2
(I622
tp513
Rp514
(dp515
btp516
Rp517
(dp518
bag1
(g2
(I474
tp519
Rp520
(dp521
bg2
(I179
tp522
Rp523
(dp524
btp525
Rp526
(dp527
bag1
(g2
(I383
tp528
Rp529
(dp530
bg2
(I13
tp531
Rp532
(dp533
btp534
Rp535
(dp536
bag1
(g2
(I834
tp537
Rp538
(dp539
bg2
(I815
tp540
Rp541
(dp542
btp543
Rp544
(dp545
bag1
(g2
(I708
tp546
Rp547
(dp548
bg2
(I535
tp549
Rp550
(dp551
btp552
Rp553
(dp554
bag1
(g2
(I945
tp555
Rp556
(dp557
bg2
(I197
tp558
Rp559
(dp560
btp561
Rp562
(dp563
bag1
(g2
(I204
tp564
Rp565
(dp566
bg2
(I169
tp567
Rp568
(dp569
btp570
Rp571
(dp572
bag1
(g2
(I538
tp573
Rp574
(dp575
bg2
(I299
tp576
Rp577
(dp578
btp579
Rp580
(dp581
bag1
(g2
(I115
tp582
Rp583
(dp584
bg2
(I252
tp585
Rp586
(dp587
btp588
Rp589
(dp590
bag1
(g2
(I443
tp591
Rp592
(dp593
bg2
(I845
tp594
Rp595
(dp596
btp597
Rp598
(dp599
bag1
(g2
(I406
tp600
Rp601
(dp602
bg2
(I554
tp603
Rp604
(dp605
btp606
Rp607
(dp608
bag1
(g2
(I487
tp609
Rp610
(dp611
bg511
tp612
Rp613
(dp614
bag1
(g2
(I749
tp615
Rp616
(dp617
bg2
(I8
tp618
Rp619
(dp620
btp621
Rp622
(dp623
bag1
(g2
(I269
tp624
Rp625
(dp626
bg2
(I280
tp627
Rp628
(dp629
btp630
Rp631
(dp632
bag1
(g2
(I563
tp633
Rp634
(dp635
bg2
(I514
tp636
Rp637
(dp638
btp639
Rp640
(dp641
bag1
(g2
(I565
tp642
Rp643
(dp644
bg2
(I593
tp645
Rp646
(dp647
btp648
Rp649
(dp650
bag1
(g2
(I931
tp651
Rp652
(dp653
bg2
(I648
tp654
Rp655
(dp656
btp657
Rp658
(dp659
bag1
(g2
(I349
tp660
Rp661
(dp662
bg2
(I528
tp663
Rp664
(dp665
btp666
Rp667
(dp668
bag1
(g2
(I893
tp669
Rp670
(dp671
bg2
(I396
tp672
Rp673
(dp674
btp675
Rp676
(dp677
bag1
(g259
g2
(I347
tp678
Rp679
(dp680
btp681
Rp682
(dp683
bag1
(g2
(I668
tp684
Rp685
(dp686
bg2
(I130
tp687
Rp688
(dp689
btp690
Rp691
(dp692
bag1
(g2
(I907
tp693
Rp694
(dp695
bg2
(I354
tp696
Rp697
(dp698
btp699
Rp700
(dp701
bag1
(g2
(I275
tp702
Rp703
(dp704
bg2
(I433
tp705
Rp706
(dp707
btp708
Rp709
(dp710
bag1
(g2
(I273
tp711
Rp712
(dp713
bg2
(I777
tp714
Rp715
(dp716
btp717
Rp718
(dp719
bag1
(g2
(I216
tp720
Rp721
(dp722
bg2
(I550
tp723
Rp724
(dp725
btp726
Rp727
(dp728
bag1
(g2
(I744
tp729
Rp730
(dp731
bg2
(I974
tp732
Rp733
(dp734
btp735
Rp736
(dp737
bag1
(g2
(I403
tp738
Rp739
(dp740
bg2
(I745
tp741
Rp742
(dp743
btp744
Rp745
(dp746
bag1
(g2
(I531
tp747
Rp748
(dp749
bg2
(I891
tp750
Rp751
(dp752
btp753
Rp754
(dp755
bag1
(g2
(I830
tp756
Rp757
(dp758
bg2
(I611
tp759
Rp760
(dp761
btp762
Rp763
(dp764
bag1
(g2
(I98
tp765
Rp766
(dp767
bg2
(I764
tp768
Rp769
(dp770
btp771
Rp772
(dp773
bag1
(g2
(I871
tp774
Rp775
(dp776
bg2
(I784
tp777
Rp778
(dp779
btp780
Rp781
(dp782
bag1
(g2
(I248
tp783
Rp784
(dp785
bg2
(I846
tp786
Rp787
(dp788
btp789
Rp790
(dp791
bag1
(g2
(I129
tp792
Rp793
(dp794
bg2
(I133
tp795
Rp796
(dp797
btp798
Rp799
(dp800
bag1
(g2
(I930
tp801
Rp802
(dp803
bg2
(I649
tp804
Rp805
(dp806
btp807
Rp808
(dp809
bag1
(g2
(I93
tp810
Rp811
(dp812
bg2
(I989
tp813
Rp814
(dp815
btp816
Rp817
(dp818
bag1
(g2
(I218
tp819
Rp820
(dp821
bg730
tp822
Rp823
(dp824
bag1
(g2
(I904
tp825
Rp826
(dp827
bg2
(I664
tp828
Rp829
(dp830
btp831
Rp832
(dp833
bag1
(g2
(I138
tp834
Rp835
(dp836
bg2
(I899
tp837
Rp838
(dp839
btp840
Rp841
(dp842
bag1
(g2
(I254
tp843
Rp844
(dp845
bg2
(I522
tp846
Rp847
(dp848
btp849
Rp850
(dp851
bag1
(g2
(I821
tp852
Rp853
(dp854
bg2
(I113
tp855
Rp856
(dp857
btp858
Rp859
(dp860
bag1
(g2
(I415
tp861
Rp862
(dp863
bg2
(I980
tp864
Rp865
(dp866
btp867
Rp868
(dp869
bag1
(g2
(I376
tp870
Rp871
(dp872
bg2
(I14
tp873
Rp874
(dp875
btp876
Rp877
(dp878
bag1
(g2
(I215
tp879
Rp880
(dp881
bg283
tp882
Rp883
(dp884
bag1
(g2
(I5
tp885
Rp886
(dp887
bg2
(I844
tp888
Rp889
(dp890
btp891
Rp892
(dp893
bag1
(g2
(I441
tp894
Rp895
(dp896
bg2
(I549
tp897
Rp898
(dp899
btp900
Rp901
(dp902
bag1
(g2
(I673
tp903
Rp904
(dp905
bg2
(I47
tp906
Rp907
(dp908
btp909
Rp910
(dp911
bag1
(g2
(I993
tp912
Rp913
(dp914
bg2
(I424
tp915
Rp916
(dp917
btp918
Rp919
(dp920
bag1
(g2
(I236
tp921
Rp922
(dp923
bg625
tp924
Rp925
(dp926
bag1
(g2
(I54
tp927
Rp928
(dp929
bg2
(I489
tp930
Rp931
(dp932
btp933
Rp934
(dp935
bag1
(g2
(I267
tp936
Rp937
(dp938
bg2
(I671
tp939
Rp940
(dp941
btp942
Rp943
(dp944
bag1
(g2
(I118
tp945
Rp946
(dp947
bg2
(I798
tp948
Rp949
(dp950
btp951
Rp952
(dp953
bag1
(g2
(I326
tp954
Rp955
(dp956
bg2
(I28
tp957
Rp958
(dp959
btp960
Rp961
(dp962
bag1
(g2
(I601
tp963
Rp964
(dp965
bg2
(I793
tp966
Rp967
(dp968
btp969
Rp970
(dp971
bag1
(g2
(I87
tp972
Rp973
(dp974
bg2
(I485
tp975
Rp976
(dp977
btp978
Rp979
(dp980
bag1
(g2
(I161
tp981
Rp982
(dp983
bg2
(I365
tp984
Rp985
(dp986
btp987
Rp988
(dp989
bag1
(g2
(I352
tp990
Rp991
(dp992
bg574
tp993
Rp994
(dp995
bag1
(g2
(I747
tp996
Rp997
(dp998
bg2
(I696
tp999
Rp1000
(dp1001
btp1002
Rp1003
(dp1004
bag1
(g2
(I279
tp1005
Rp1006
(dp1007
bg2
(I45
tp1008
Rp1009
(dp1010
btp1011
Rp1012
(dp1013
bag1
(g2
(I892
tp1014
Rp1015
(dp1016
bg2
(I623
tp1017
Rp1018
(dp1019
btp1020
Rp1021
(dp1022
bag1
(g2
(I944
tp1023
Rp1024
(dp1025
bg2
(I938
tp1026
Rp1027
(dp1028
btp1029
Rp1030
(dp1031
bag1
(g2
(I991
tp1032
Rp1033
(dp1034
bg2
(I724
tp1035
Rp1036
(dp1037
btp1038
Rp1039
(dp1040
bag1
(g2
(I75
tp1041
Rp1042
(dp1043
bg2
(I65
tp1044
Rp1045
(dp1046
btp1047
Rp1048
(dp1049
ba.