(lp0
csympy.geometry.point
Point2D
p1
(csympy.core.numbers
Integer
p2
(I696
tp3
Rp4
(dp5
bg2
(I656
tp6
Rp7
(dp8
btp9
Rp10
(dp11
bag1
(g2
(I916
tp12
Rp13
(dp14
bg2
(I698
tp15
Rp16
(dp17
btp18
Rp19
(dp20
bag1
(g2
(I333
tp21
Rp22
(dp23
bg2
(I50
tp24
Rp25
(dp26
btp27
Rp28
(dp29
bag1
(g2
(I830
tp30
Rp31
(dp32
bg2
(I488
tp33
Rp34
(dp35
btp36
Rp37
(dp38
bag1
(g2
(I151
tp39
Rp40
(dp41
bg2
(I877
tp42
Rp43
(dp44
btp45
Rp46
(dp47
bag1
(g2
(I838
tp48
Rp49
(dp50
bg2
(I955
tp51
Rp52
(dp53
btp54
Rp55
(dp56
bag1
(g2
(I553
tp57
Rp58
(dp59
bg2
(I778
tp60
Rp61
(dp62
btp63
Rp64
(dp65
bag1
(g2
(I584
tp66
Rp67
(dp68
bg2
(I549
tp69
Rp70
(dp71
btp72
Rp73
(dp74
bag1
(g2
(I893
tp75
Rp76
(dp77
bg2
(I927
tp78
Rp79
(dp80
btp81
Rp82
(dp83
bag1
(g2
(I958
tp84
Rp85
(dp86
bg58
tp87
Rp88
(dp89
bag1
(g2
(I694
tp90
Rp91
(dp92
bg2
(I316
tp93
Rp94
(dp95
btp96
Rp97
(dp98
bag1
(g2
(I274
tp99
Rp100
(dp101
bg2
(I196
tp102
Rp103
(dp104
btp105
Rp106
(dp107
bag1
(g2
(I154
tp108
Rp109
(dp110
bg2
(I693
tp111
Rp112
(dp113
btp114
Rp115
(dp116
bag1
(g2
(I611
tp117
Rp118
(dp119
bg2
(I912
tp120
Rp121
(dp122
btp123
Rp124
(dp125
bag1
(g2
(I55
tp126
Rp127
(dp128
bg2
(I44
tp129
Rp130
(dp131
btp132
Rp133
(dp134
bag1
(g2
(I960
tp135
Rp136
(dp137
bg2
(I703
tp138
Rp139
(dp140
btp141
Rp142
(dp143
bag1
(g2
(I780
tp144
Rp145
(dp146
bg2
(I679
tp147
Rp148
(dp149
btp150
Rp151
(dp152
bag1
(g2
(I721
tp153
Rp154
(dp155
bg2
(I492
tp156
Rp157
(dp158
btp159
Rp160
(dp161
bag1
(g112
g2
(I283
tp162
Rp163
(dp164
btp165
Rp166
(dp167
bag1
(g2
(I276
tp168
Rp169
(dp170
bg2
(I168
tp171
Rp172
(dp173
btp174
Rp175
(dp176
bag1
(g2
(I376
tp177
Rp178
(dp179
bg2
(I282
tp180
Rp181
(dp182
btp183
Rp184
(dp185
bag1
(g2
(I479
tp186
Rp187
(dp188
bg2
(I297
tp189
Rp190
(dp191
btp192
Rp193
(dp194
bag1
(g2
(I86
tp195
Rp196
(dp197
bg2
(I132
tp198
Rp199
(dp200
btp201
Rp202
(dp203
bag1
(g2
(I145
tp204
Rp205
(dp206
bg2
(I180
tp207
Rp208
(dp209
btp210
Rp211
(dp212
bag1
(g2
(I340
tp213
Rp214
(dp215
bg2
(I841
tp216
Rp217
(dp218
btp219
Rp220
(dp221
bag1
(g2
(I178
tp222
Rp223
(dp224
bg2
(I465
tp225
Rp226
(dp227
btp228
Rp229
(dp230
bag1
(g2
(I287
tp231
Rp232
(dp233
bg2
(I169
tp234
Rp235
(dp236
btp237
Rp238
(dp239
bag1
(g2
(I475
tp240
Rp241
(dp242
bg2
(I925
tp243
Rp244
(dp245
btp246
Rp247
(dp248
bag1
(g2
(I83
tp249
Rp250
(dp251
bg2
(I625
tp252
Rp253
(dp254
btp255
Rp256
(dp257
bag1
(g2
(I59
tp258
Rp259
(dp260
bg2
(I804
tp261
Rp262
(dp263
btp264
Rp265
(dp266
bag1
(g2
(I40
tp267
Rp268
(dp269
bg2
(I924
tp270
Rp271
(dp272
btp273
Rp274
(dp275
bag1
(g2
(I393
tp276
Rp277
(dp278
bg2
(I775
tp279
Rp280
(dp281
btp282
Rp283
(dp284
bag1
(g2
(I938
tp285
Rp286
(dp287
bg2
(I353
tp288
Rp289
(dp290
btp291
Rp292
(dp293
bag1
(g2
(I798
tp294
Rp295
(dp296
bg2
(I286
tp297
Rp298
(dp299
btp300
Rp301
(dp302
bag1
(g2
(I117
tp303
Rp304
(dp305
bg2
(I470
tp306
Rp307
(dp308
btp309
Rp310
(dp311
bag1
(g2
(I664
tp312
Rp313
(dp314
bg2
(I599
tp315
Rp316
(dp317
btp318
Rp319
(dp320
bag1
(g2
(I630
tp321
Rp322
(dp323
bg2
(I981
tp324
Rp325
(dp326
btp327
Rp328
(dp329
bag1
(g2
(I193
tp330
Rp331
(dp332
bg205
tp333
Rp334
(dp335
bag1
(g2
(I993
tp336
Rp337
(dp338
bg2
(I902
tp339
Rp340
(dp341
btp342
Rp343
(dp344
bag1
(g2
(I406
tp345
Rp346
(dp347
bg2
(I681
tp348
Rp349
(dp350
btp351
Rp352
(dp353
bag1
(g2
(I933
tp354
Rp355
(dp356
bg2
(I557
tp357
Rp358
(dp359
btp360
Rp361
(dp362
bag1
(g2
(I425
tp363
Rp364
(dp365
bg2
(I820
tp366
Rp367
(dp368
btp369
Rp370
(dp371
bag1
(g2
(I614
tp372
Rp373
(dp374
bg2
(I177
tp375
Rp376
(dp377
btp378
Rp379
(dp380
bag1
(g2
(I628
tp381
Rp382
(dp383
bg2
(I532
tp384
Rp385
(dp386
btp387
Rp388
(dp389
bag1
(g2
(I919
tp390
Rp391
(dp392
bg2
(I909
tp393
Rp394
(dp395
btp396
Rp397
(dp398
bag1
(g2
(I619
tp399
Rp400
(dp401
bg2
(I539
tp402
Rp403
(dp404
btp405
Rp406
(dp407
bag1
(g2
(I940
tp408
Rp409
(dp410
bg2
(I566
tp411
Rp412
(dp413
btp414
Rp415
(dp416
bag1
(g2
(I631
tp417
Rp418
(dp419
bg2
(I230
tp420
Rp421
(dp422
btp423
Rp424
(dp425
bag1
(g2
(I96
tp426
Rp427
(dp428
bg214
tp429
Rp430
(dp431
bag1
(g2
(I147
tp432
Rp433
(dp434
bg2
(I897
tp435
Rp436
(dp437
btp438
Rp439
(dp440
bag1
(g2
(I233
tp441
Rp442
(dp443
bg2
(I615
tp444
Rp445
(dp446
btp447
Rp448
(dp449
bag1
(g2
(I213
tp450
Rp451
(dp452
bg2
(I61
tp453
Rp454
(dp455
btp456
Rp457
(dp458
bag1
(g2
(I704
tp459
Rp460
(dp461
bg2
(I456
tp462
Rp463
(dp464
btp465
Rp466
(dp467
bag1
(g2
(I146
tp468
Rp469
(dp470
bg2
(I367
tp471
Rp472
(dp473
btp474
Rp475
(dp476
bag1
(g2
(I156
tp477
Rp478
(dp479
bg2
(I183
tp480
Rp481
(dp482
btp483
Rp484
(dp485
bag1
(g412
g2
(I463
tp486
Rp487
(dp488
btp489
Rp490
(dp491
bag1
(g2
(I377
tp492
Rp493
(dp494
bg2
(I89
tp495
Rp496
(dp497
btp498
Rp499
(dp500
bag1
(g2
(I723
tp501
Rp502
(dp503
bg2
(I280
tp504
Rp505
(dp506
btp507
Rp508
(dp509
bag1
(g2
(I148
tp510
Rp511
(dp512
bg2
(I521
tp513
Rp514
(dp515
btp516
Rp517
(dp518
bag1
(g2
(I850
tp519
Rp520
(dp521
bg2
(I862
tp522
Rp523
(dp524
btp525
Rp526
(dp527
bag1
(g2
(I194
tp528
Rp529
(dp530
bg2
(I751
tp531
Rp532
(dp533
btp534
Rp535
(dp536
bag1
(g2
(I834
tp537
Rp538
(dp539
bg2
(I70
tp540
Rp541
(dp542
btp543
Rp544
(dp545
bag1
(g172
g2
(I98
tp546
Rp547
(dp548
btp549
Rp550
(dp551
bag1
(g2
(I848
tp552
Rp553
(dp554
bg196
tp555
Rp556
(dp557
bag1
(g2
(I613
tp558
Rp559
(dp560
bg2
(I455
tp561
Rp562
(dp563
btp564
Rp565
(dp566
bag1
(g2
(I670
tp567
Rp568
(dp569
bg2
(I747
tp570
Rp571
(dp572
btp573
Rp574
(dp575
bag1
(g2
(I777
tp576
Rp577
(dp578
bg187
tp579
Rp580
(dp581
bag1
(g2
(I206
tp582
Rp583
(dp584
bg2
(I563
tp585
Rp586
(dp587
btp588
Rp589
(dp590
bag1
(g2
(I607
tp591
Rp592
(dp593
bg2
(I650
tp594
Rp595
(dp596
btp597
Rp598
(dp599
bag1
(g2
(I913
tp600
Rp601
(dp602
bg2
(I485
tp603
Rp604
(dp605
btp606
Rp607
(dp608
bag1
(g2
(I524
tp609
Rp610
(dp611
bg2
(I226
tp612
Rp613
(dp614
btp615
Rp616
(dp617
bag1
(g2
(I585
tp618
Rp619
(dp620
bg2
(I450
tp621
Rp622
(dp623
btp624
Rp625
(dp626
bag1
(g2
(I516
tp627
Rp628
(dp629
bg2
(I637
tp630
Rp631
(dp632
btp633
Rp634
(dp635
bag1
(g2
(I306
tp636
Rp637
(dp638
bg118
tp639
Rp640
(dp641
bag1
(g2
(I690
tp642
Rp643
(dp644
bg2
(I887
tp645
Rp646
(dp647
btp648
Rp649
(dp650
bag1
(g262
g2
(I467
tp651
Rp652
(dp653
btp654
Rp655
(dp656
bag1
(g2
(I494
tp657
Rp658
(dp659
bg2
(I214
tp660
Rp661
(dp662
btp663
Rp664
(dp665
bag1
(g2
(I295
tp666
Rp667
(dp668
bg2
(I172
tp669
Rp670
(dp671
btp672
Rp673
(dp674
bag1
(g2
(I717
tp675
Rp676
(dp677
bg2
(I443
tp678
Rp679
(dp680
btp681
Rp682
(dp683
bag1
(g2
(I702
tp684
Rp685
(dp686
bg2
(I205
tp687
Rp688
(dp689
btp690
Rp691
(dp692
bag1
(g2
(I251
tp693
Rp694
(dp695
bg2
(I953
tp696
Rp697
(dp698
btp699
Rp700
(dp701
bag1
(g2
(I683
tp702
Rp703
(dp704
bg2
(I18
tp705
Rp706
(dp707
btp708
Rp709
(dp710
bag1
(g2
(I266
tp711
Rp712
(dp713
bg2
(I536
tp714
Rp715
(dp716
btp717
Rp718
(dp719
bag1
(g2
(I101
tp720
Rp721
(dp722
bg2
(I854
tp723
Rp724
(dp725
btp726
Rp727
(dp728
bag1
(g2
(I643
tp729
Rp730
(dp731
bg2
(I797
tp732
Rp733
(dp734
btp735
Rp736
(dp737
bag1
(g2
(I487
tp738
Rp739
(dp740
bg2
(I54
tp741
Rp742
(dp743
btp744
Rp745
(dp746
bag1
(g2
(I616
tp747
Rp748
(dp749
bg2
(I688
tp750
Rp751
(dp752
btp753
Rp754
(dp755
bag1
(g2
(I608
tp756
Rp757
(dp758
bg2
(I609
tp759
Rp760
(dp761
btp762
Rp763
(dp764
bag1
(g2
(I578
tp765
Rp766
(dp767
bg2
(I507
tp768
Rp769
(dp770
btp771
Rp772
(dp773
bag1
(g2
(I249
tp774
Rp775
(dp776
bg2
(I583
tp777
Rp778
(dp779
btp780
Rp781
(dp782
bag1
(g2
(I458
tp783
Rp784
(dp785
bg400
tp786
Rp787
(dp788
bag1
(g2
(I967
tp789
Rp790
(dp791
bg2
(I429
tp792
Rp793
(dp794
btp795
Rp796
(dp797
bag1
(g2
(I216
tp798
Rp799
(dp800
bg295
tp801
Rp802
(dp803
bag1
(g2
(I237
tp804
Rp805
(dp806
bg2
(I736
tp807
Rp808
(dp809
btp810
Rp811
(dp812
bag1
(g2
(I47
tp813
Rp814
(dp815
bg2
(I219
tp816
Rp817
(dp818
btp819
Rp820
(dp821
bag1
(g226
g2
(I570
tp822
Rp823
(dp824
btp825
Rp826
(dp827
bag1
(g2
(I278
tp828
Rp829
(dp830
bg2
(I928
tp831
Rp832
(dp833
btp834
Rp835
(dp836
bag1
(g2
(I46
tp837
Rp838
(dp839
bg2
(I791
tp840
Rp841
(dp842
btp843
Rp844
(dp845
bag1
(g2
(I737
tp846
Rp847
(dp848
bg2
(I342
tp849
Rp850
(dp851
btp852
Rp853
(dp854
bag1
(g2
(I626
tp855
Rp856
(dp857
bg2
(I460
tp858
Rp859
(dp860
btp861
Rp862
(dp863
bag1
(g2
(I701
tp864
Rp865
(dp866
bg418
tp867
Rp868
(dp869
bag1
(g823
g2
(I922
tp870
Rp871
(dp872
btp873
Rp874
(dp875
bag1
(g2
(I661
tp876
Rp877
(dp878
bg685
tp879
Rp880
(dp881
bag1
(g2
(I438
tp882
Rp883
(dp884
bg2
(I435
tp885
Rp886
(dp887
btp888
Rp889
(dp890
bag1
(g2
(I716
tp891
Rp892
(dp893
bg2
(I957
tp894
Rp895
(dp896
btp897
Rp898
(dp899
bag1
(g2
(I752
tp900
Rp901
(dp902
bg2
(I378
tp903
Rp904
(dp905
btp906
Rp907
(dp908
bag1
(g2
(I629
tp909
Rp910
(dp911
bg2
(I556
tp912
Rp913
(dp914
btp915
Rp916
(dp917
bag1
(g2
(I833
tp918
Rp919
(dp920
bg2
(I181
tp921
Rp922
(dp923
btp924
Rp925
(dp926
bag1
(g2
(I242
tp927
Rp928
(dp929
bg2
(I994
tp930
Rp931
(dp932
btp933
Rp934
(dp935
bag1
(g2
(I134
tp936
Rp937
(dp938
bg865
tp939
Rp940
(dp941
bag1
(g2
(I80
tp942
Rp943
(dp944
bg322
tp945
Rp946
(dp947
bag1
(g2
(I24
tp948
Rp949
(dp950
bg2
(I531
tp951
Rp952
(dp953
btp954
Rp955
(dp956
bag1
(g2
(I842
tp957
Rp958
(dp959
bg241
tp960
Rp961
(dp962
bag1
(g2
(I606
tp963
Rp964
(dp965
bg2
(I449
tp966
Rp967
(dp968
btp969
Rp970
(dp971
bag1
(g2
(I29
tp972
Rp973
(dp974
bg2
(I822
tp975
Rp976
(dp977
btp978
Rp979
(dp980
bag1
(g2
(I941
tp981
Rp982
(dp983
bg178
tp984
Rp985
(dp986
bag1
(g2
(I474
tp987
Rp988
(dp989
bg2
(I58
tp990
Rp991
(dp992
btp993
Rp994
(dp995
bag1
(g2
(I905
tp996
Rp997
(dp998
bg2
(I588
tp999
Rp1000
(dp1001
btp1002
Rp1003
(dp1004
bag1
(g2
(I545
tp1005
Rp1006
(dp1007
bg2
(I320
tp1008
Rp1009
(dp1010
btp1011
Rp1012
(dp1013
bag1
(g2
(I984
tp1014
Rp1015
(dp1016
bg2
(I501
tp1017
Rp1018
(dp1019
btp1020
Rp1021
(dp1022
ba.