(lp0
csympy.geometry.point
Point2D
p1
(csympy.core.numbers
Integer
p2
(I258
tp3
Rp4
(dp5
bg2
(I488
tp6
Rp7
(dp8
btp9
Rp10
(dp11
bag1
(g2
(I526
tp12
Rp13
(dp14
bg2
(I75
tp15
Rp16
(dp17
btp18
Rp19
(dp20
bag1
(g2
(I78
tp21
Rp22
(dp23
bg2
(I16
tp24
Rp25
(dp26
btp27
Rp28
(dp29
bag1
(g2
(I48
tp30
Rp31
(dp32
bg2
(I24
tp33
Rp34
(dp35
btp36
Rp37
(dp38
bag1
(g2
(I539
tp39
Rp40
(dp41
bg2
(I275
tp42
Rp43
(dp44
btp45
Rp46
(dp47
bag1
(g2
(I937
tp48
Rp49
(dp50
bg2
(I529
tp51
Rp52
(dp53
btp54
Rp55
(dp56
bag1
(g2
(I950
tp57
Rp58
(dp59
bg2
(I757
tp60
Rp61
(dp62
btp63
Rp64
(dp65
bag1
(g2
(I633
tp66
Rp67
(dp68
bg2
(I697
tp69
Rp70
(dp71
btp72
Rp73
(dp74
bag1
(g2
(I439
tp75
Rp76
(dp77
bg2
(I350
tp78
Rp79
(dp80
btp81
Rp82
(dp83
bag1
(g2
(I586
tp84
Rp85
(dp86
bg2
(I921
tp87
Rp88
(dp89
btp90
Rp91
(dp92
bag1
(g2
(I235
tp93
Rp94
(dp95
bg2
(I624
tp96
Rp97
(dp98
btp99
Rp100
(dp101
bag1
(g2
(I660
tp102
Rp103
(dp104
bg2
(I68
tp105
Rp106
(dp107
btp108
Rp109
(dp110
bag1
(g2
(I437
tp111
Rp112
(dp113
bg2
(I105
tp114
Rp115
(dp116
btp117
Rp118
(dp119
bag1
(g2
(I217
tp120
Rp121
(dp122
bg2
(I351
tp123
Rp124
(dp125
btp126
Rp127
(dp128
bag1
(g2
(I479
tp129
Rp130
(dp131
bg2
(I407
tp132
Rp133
(dp134
btp135
Rp136
(dp137
bag1
(g2
(I931
tp138
Rp139
(dp140
bg2
(I50
tp141
Rp142
(dp143
btp144
Rp145
(dp146
bag1
(g2
(I93
tp147
Rp148
(dp149
bg2
(I472
tp150
Rp151
(dp152
btp153
Rp154
(dp155
bag1
(g2
(I125
tp156
Rp157
(dp158
bg2
(I830
tp159
Rp160
(dp161
btp162
Rp163
(dp164
bag1
(g2
(I172
tp165
Rp166
(dp167
bg2
(I580
tp168
Rp169
(dp170
btp171
Rp172
(dp173
bag1
(g2
(I536
tp174
Rp175
(dp176
bg2
(I500
tp177
Rp178
(dp179
btp180
Rp181
(dp182
bag1
(g160
g2
(I553
tp183
Rp184
(dp185
btp186
Rp187
(dp188
bag1
(g2
(I695
tp189
Rp190
(dp191
bg2
(I39
tp192
Rp193
(dp194
btp195
Rp196
(dp197
bag1
(g2
(I576
tp198
Rp199
(dp200
bg2
(I680
tp201
Rp202
(dp203
btp204
Rp205
(dp206
bag1
(g2
(I723
tp207
Rp208
(dp209
bg2
(I651
tp210
Rp211
(dp212
btp213
Rp214
(dp215
bag1
(g2
(I469
tp216
Rp217
(dp218
bg2
(I389
tp219
Rp220
(dp221
btp222
Rp223
(dp224
bag1
(g2
(I899
tp225
Rp226
(dp227
bg2
(I581
tp228
Rp229
(dp230
btp231
Rp232
(dp233
bag1
(g2
(I444
tp234
Rp235
(dp236
bg2
(I432
tp237
Rp238
(dp239
btp240
Rp241
(dp242
bag1
(g229
g2
(I382
tp243
Rp244
(dp245
btp246
Rp247
(dp248
bag1
(g2
(I671
tp249
Rp250
(dp251
bg2
(I315
tp252
Rp253
(dp254
btp255
Rp256
(dp257
bag1
(g2
(I636
tp258
Rp259
(dp260
bg2
(I14
tp261
Rp262
(dp263
btp264
Rp265
(dp266
bag1
(g2
(I648
tp267
Rp268
(dp269
bg2
(I705
tp270
Rp271
(dp272
btp273
Rp274
(dp275
bag1
(g2
(I834
tp276
Rp277
(dp278
bg2
(I224
tp279
Rp280
(dp281
btp282
Rp283
(dp284
bag1
(g2
(I108
tp285
Rp286
(dp287
bg2
(I739
tp288
Rp289
(dp290
btp291
Rp292
(dp293
bag1
(g2
(I750
tp294
Rp295
(dp296
bg2
(I979
tp297
Rp298
(dp299
btp300
Rp301
(dp302
bag1
(g2
(I308
tp303
Rp304
(dp305
bg2
(I143
tp306
Rp307
(dp308
btp309
Rp310
(dp311
bag1
(g2
(I427
tp312
Rp313
(dp314
bg2
(I166
tp315
Rp316
(dp317
btp318
Rp319
(dp320
bag1
(g2
(I482
tp321
Rp322
(dp323
bg103
tp324
Rp325
(dp326
bag1
(g2
(I551
tp327
Rp328
(dp329
bg2
(I79
tp330
Rp331
(dp332
btp333
Rp334
(dp335
bag1
(g2
(I784
tp336
Rp337
(dp338
bg2
(I706
tp339
Rp340
(dp341
btp342
Rp343
(dp344
bag1
(g2
(I145
tp345
Rp346
(dp347
bg2
(I169
tp348
Rp349
(dp350
btp351
Rp352
(dp353
bag1
(g2
(I376
tp354
Rp355
(dp356
bg2
(I821
tp357
Rp358
(dp359
btp360
Rp361
(dp362
bag1
(g2
(I418
tp363
Rp364
(dp365
bg2
(I688
tp366
Rp367
(dp368
btp369
Rp370
(dp371
bag1
(g2
(I805
tp372
Rp373
(dp374
bg2
(I110
tp375
Rp376
(dp377
btp378
Rp379
(dp380
bag1
(g2
(I732
tp381
Rp382
(dp383
bg2
(I198
tp384
Rp385
(dp386
btp387
Rp388
(dp389
bag1
(g2
(I20
tp390
Rp391
(dp392
bg2
(I154
tp393
Rp394
(dp395
btp396
Rp397
(dp398
bag1
(g2
(I587
tp399
Rp400
(dp401
bg2
(I762
tp402
Rp403
(dp404
btp405
Rp406
(dp407
bag1
(g2
(I990
tp408
Rp409
(dp410
bg2
(I698
tp411
Rp412
(dp413
btp414
Rp415
(dp416
bag1
(g2
(I181
tp417
Rp418
(dp419
bg2
(I666
tp420
Rp421
(dp422
btp423
Rp424
(dp425
bag1
(g2
(I708
tp426
Rp427
(dp428
bg2
(I871
tp429
Rp430
(dp431
btp432
Rp433
(dp434
bag1
(g2
(I433
tp435
Rp436
(dp437
bg2
(I571
tp438
Rp439
(dp440
btp441
Rp442
(dp443
bag1
(g2
(I600
tp444
Rp445
(dp446
bg2
(I665
tp447
Rp448
(dp449
btp450
Rp451
(dp452
bag1
(g2
(I226
tp453
Rp454
(dp455
bg2
(I320
tp456
Rp457
(dp458
btp459
Rp460
(dp461
bag1
(g2
(I319
tp462
Rp463
(dp464
bg2
(I130
tp465
Rp466
(dp467
btp468
Rp469
(dp470
bag1
(g2
(I9
tp471
Rp472
(dp473
bg2
(I986
tp474
Rp475
(dp476
btp477
Rp478
(dp479
bag1
(g2
(I196
tp480
Rp481
(dp482
bg2
(I811
tp483
Rp484
(dp485
btp486
Rp487
(dp488
bag1
(g2
(I86
tp489
Rp490
(dp491
bg2
(I347
tp492
Rp493
(dp494
btp495
Rp496
(dp497
bag1
(g2
(I102
tp498
Rp499
(dp500
bg2
(I32
tp501
Rp502
(dp503
btp504
Rp505
(dp506
bag1
(g2
(I906
tp507
Rp508
(dp509
bg2
(I900
tp510
Rp511
(dp512
btp513
Rp514
(dp515
bag1
(g2
(I440
tp516
Rp517
(dp518
bg2
(I997
tp519
Rp520
(dp521
btp522
Rp523
(dp524
bag1
(g2
(I23
tp525
Rp526
(dp527
bg2
(I948
tp528
Rp529
(dp530
btp531
Rp532
(dp533
bag1
(g2
(I643
tp534
Rp535
(dp536
bg2
(I809
tp537
Rp538
(dp539
btp540
Rp541
(dp542
bag1
(g2
(I719
tp543
Rp544
(dp545
bg2
(I519
tp546
Rp547
(dp548
btp549
Rp550
(dp551
bag1
(g2
(I131
tp552
Rp553
(dp554
bg2
(I428
tp555
Rp556
(dp557
btp558
Rp559
(dp560
bag1
(g151
g2
(I396
tp561
Rp562
(dp563
btp564
Rp565
(dp566
bag1
(g2
(I925
tp567
Rp568
(dp569
bg2
(I286
tp570
Rp571
(dp572
btp573
Rp574
(dp575
bag1
(g184
g2
(I996
tp576
Rp577
(dp578
btp579
Rp580
(dp581
bag1
(g2
(I506
tp582
Rp583
(dp584
bg2
(I243
tp585
Rp586
(dp587
btp588
Rp589
(dp590
bag1
(g2
(I406
tp591
Rp592
(dp593
bg2
(I567
tp594
Rp595
(dp596
btp597
Rp598
(dp599
bag1
(g2
(I194
tp600
Rp601
(dp602
bg2
(I127
tp603
Rp604
(dp605
btp606
Rp607
(dp608
bag1
(g2
(I379
tp609
Rp610
(dp611
bg2
(I850
tp612
Rp613
(dp614
btp615
Rp616
(dp617
bag1
(g2
(I115
tp618
Rp619
(dp620
bg2
(I868
tp621
Rp622
(dp623
btp624
Rp625
(dp626
bag1
(g2
(I192
tp627
Rp628
(dp629
bg2
(I940
tp630
Rp631
(dp632
btp633
Rp634
(dp635
bag1
(g2
(I718
tp636
Rp637
(dp638
bg2
(I360
tp639
Rp640
(dp641
btp642
Rp643
(dp644
bag1
(g2
(I738
tp645
Rp646
(dp647
bg2
(I912
tp648
Rp649
(dp650
btp651
Rp652
(dp653
bag1
(g2
(I949
tp654
Rp655
(dp656
bg2
(I919
tp657
Rp658
(dp659
btp660
Rp661
(dp662
bag1
(g2
(I204
tp663
Rp664
(dp665
bg2
(I266
tp666
Rp667
(dp668
btp669
Rp670
(dp671
bag1
(g2
(I562
tp672
Rp673
(dp674
bg2
(I527
tp675
Rp676
(dp677
btp678
Rp679
(dp680
bag1
(g2
(I38
tp681
Rp682
(dp683
bg2
(I238
tp684
Rp685
(dp686
btp687
Rp688
(dp689
bag1
(g2
(I327
tp690
Rp691
(dp692
bg2
(I128
tp693
Rp694
(dp695
btp696
Rp697
(dp698
bag1
(g2
(I421
tp699
Rp700
(dp701
bg2
(I30
tp702
Rp703
(dp704
btp705
Rp706
(dp707
bag1
(g2
(I290
tp708
Rp709
(dp710
bg2
(I972
tp711
Rp712
(dp713
btp714
Rp715
(dp716
bag1
(g2
(I763
tp717
Rp718
(dp719
bg2
(I144
tp720
Rp721
(dp722
btp723
Rp724
(dp725
bag1
(g2
(I966
tp726
Rp727
(dp728
bg382
tp729
Rp730
(dp731
bag1
(g2
(I373
tp732
Rp733
(dp734
bg727
tp735
Rp736
(dp737
bag1
(g2
(I872
tp738
Rp739
(dp740
bg2
(I521
tp741
Rp742
(dp743
btp744
Rp745
(dp746
bag1
(g2
(I356
tp747
Rp748
(dp749
bg2
(I64
tp750
Rp751
(dp752
btp753
Rp754
(dp755
bag1
(g2
(I129
tp756
Rp757
(dp758
bg2
(I424
tp759
Rp760
(dp761
btp762
Rp763
(dp764
bag1
(g2
(I99
tp765
Rp766
(dp767
bg2
(I451
tp768
Rp769
(dp770
btp771
Rp772
(dp773
bag1
(g2
(I933
tp774
Rp775
(dp776
bg2
(I775
tp777
Rp778
(dp779
btp780
Rp781
(dp782
bag1
(g2
(I345
tp783
Rp784
(dp785
bg2
(I398
tp786
Rp787
(dp788
btp789
Rp790
(dp791
bag1
(g2
(I509
tp792
Rp793
(dp794
bg2
(I836
tp795
Rp796
(dp797
btp798
Rp799
(dp800
bag1
(g2
(I449
tp801
Rp802
(dp803
bg2
(I876
tp804
Rp805
(dp806
btp807
Rp808
(dp809
bag1
(g307
g2
(I468
tp810
Rp811
(dp812
btp813
Rp814
(dp815
bag1
(g2
(I806
tp816
Rp817
(dp818
bg2
(I392
tp819
Rp820
(dp821
btp822
Rp823
(dp824
bag1
(g2
(I788
tp825
Rp826
(dp827
bg2
(I699
tp828
Rp829
(dp830
btp831
Rp832
(dp833
bag1
(g2
(I892
tp834
Rp835
(dp836
bg2
(I604
tp837
Rp838
(dp839
btp840
Rp841
(dp842
bag1
(g2
(I753
tp843
Rp844
(dp845
bg2
(I796
tp846
Rp847
(dp848
btp849
Rp850
(dp851
bag1
(g2
(I260
tp852
Rp853
(dp854
bg2
(I70
tp855
Rp856
(dp857
btp858
Rp859
(dp860
bag1
(g2
(I465
tp861
Rp862
(dp863
bg2
(I180
tp864
Rp865
(dp866
btp867
Rp868
(dp869
bag1
(g238
g157
tp870
Rp871
(dp872
bag1
(g796
g2
(I685
tp873
Rp874
(dp875
btp876
Rp877
(dp878
bag1
(g2
(I435
tp879
Rp880
(dp881
bg2
(I794
tp882
Rp883
(dp884
btp885
Rp886
(dp887
bag1
(g2
(I339
tp888
Rp889
(dp890
bg2
(I256
tp891
Rp892
(dp893
btp894
Rp895
(dp896
bag1
(g2
(I607
tp897
Rp898
(dp899
bg2
(I555
tp900
Rp901
(dp902
btp903
Rp904
(dp905
bag1
(g2
(I677
tp906
Rp907
(dp908
bg2
(I907
tp909
Rp910
(dp911
btp912
Rp913
(dp914
bag1
(g2
(I968
tp915
Rp916
(dp917
bg2
(I728
tp918
Rp919
(dp920
btp921
Rp922
(dp923
bag1
(g2
(I583
tp924
Rp925
(dp926
bg2
(I936
tp927
Rp928
(dp929
btp930
Rp931
(dp932
bag1
(g2
(I179
tp933
Rp934
(dp935
bg2
(I713
tp936
Rp937
(dp938
btp939
Rp940
(dp941
bag1
(g2
(I861
tp942
Rp943
(dp944
bg2
(I333
tp945
Rp946
(dp947
btp948
Rp949
(dp950
bag1
(g2
(I95
tp951
Rp952
(dp953
bg2
(I857
tp954
Rp955
(dp956
btp957
Rp958
(dp959
bag1
(g2
(I755
tp960
Rp961
(dp962
bg2
(I134
tp963
Rp964
(dp965
btp966
Rp967
(dp968
bag1
(g2
(I89
tp969
Rp970
(dp971
bg2
(I501
tp972
Rp973
(dp974
btp975
Rp976
(dp977
bag1
(g2
(I300
tp978
Rp979
(dp980
bg2
(I336
tp981
Rp982
(dp983
btp984
Rp985
(dp986
bag1
(g595
g2
(I272
tp987
Rp988
(dp989
btp990
Rp991
(dp992
bag1
(g2
(I337
tp993
Rp994
(dp995
bg31
tp996
Rp997
(dp998
bag1
(g2
(I875
tp999
Rp1000
(dp1001
bg2
(I537
tp1002
Rp1003
(dp1004
btp1005
Rp1006
(dp1007
bag1
(g2
(I155
tp1008
Rp1009
(dp1010
bg2
(I485
tp1011
Rp1012
(dp1013
btp1014
Rp1015
(dp1016
bag1
(g2
(I341
tp1017
Rp1018
(dp1019
bg2
(I361
tp1020
Rp1021
(dp1022
btp1023
Rp1024
(dp1025
bag1
(g2
(I818
tp1026
Rp1027
(dp1028
bg2
(I426
tp1029
Rp1030
(dp1031
btp1032
Rp1033
(dp1034
bag1
(g2
(I974
tp1035
Rp1036
(dp1037
bg2
(I774
tp1038
Rp1039
(dp1040
btp1041
Rp1042
(dp1043
ba.