(lp0
csympy.geometry.point
Point2D
p1
(csympy.core.numbers
Integer
p2
(I606
tp3
Rp4
(dp5
bg2
(I297
tp6
Rp7
(dp8
btp9
Rp10
(dp11
bag1
(g2
(I596
tp12
Rp13
(dp14
bg2
(I180
tp15
Rp16
(dp17
btp18
Rp19
(dp20
bag1
(g2
(I854
tp21
Rp22
(dp23
bg2
(I22
tp24
Rp25
(dp26
btp27
Rp28
(dp29
bag1
(g2
(I694
tp30
Rp31
(dp32
bg2
(I983
tp33
Rp34
(dp35
btp36
Rp37
(dp38
bag1
(g2
(I98
tp39
Rp40
(dp41
bg2
(I937
tp42
Rp43
(dp44
btp45
Rp46
(dp47
bag1
(g2
(I568
tp48
Rp49
(dp50
bg2
(I547
tp51
Rp52
(dp53
btp54
Rp55
(dp56
bag1
(g2
(I265
tp57
Rp58
(dp59
bg2
(I643
tp60
Rp61
(dp62
btp63
Rp64
(dp65
bag1
(g2
(I300
tp66
Rp67
(dp68
bg2
(I888
tp69
Rp70
(dp71
btp72
Rp73
(dp74
bag1
(g2
(I106
tp75
Rp76
(dp77
bg2
(I73
tp78
Rp79
(dp80
btp81
Rp82
(dp83
bag1
(g2
(I510
tp84
Rp85
(dp86
bg2
(I767
tp87
Rp88
(dp89
btp90
Rp91
(dp92
bag1
(g2
(I842
tp93
Rp94
(dp95
bg2
(I863
tp96
Rp97
(dp98
btp99
Rp100
(dp101
bag1
(g2
(I741
tp102
Rp103
(dp104
bg2
(I656
tp105
Rp106
(dp107
btp108
Rp109
(dp110
bag1
(g2
(I373
tp111
Rp112
(dp113
bg2
(I684
tp114
Rp115
(dp116
btp117
Rp118
(dp119
bag1
(g2
(I155
tp120
Rp121
(dp122
bg2
(I860
tp123
Rp124
(dp125
btp126
Rp127
(dp128
bag1
(g2
(I511
tp129
Rp130
(dp131
bg130
tp132
Rp133
(dp134
bag1
(g2
(I89
tp135
Rp136
(dp137
bg2
(I536
tp138
Rp139
(dp140
btp141
Rp142
(dp143
bag1
(g2
(I266
tp144
Rp145
(dp146
bg2
(I722
tp147
Rp148
(dp149
btp150
Rp151
(dp152
bag1
(g2
(I215
tp153
Rp154
(dp155
bg2
(I604
tp156
Rp157
(dp158
btp159
Rp160
(dp161
bag1
(g2
(I725
tp162
Rp163
(dp164
bg2
(I288
tp165
Rp166
(dp167
btp168
Rp169
(dp170
bag1
(g2
(I703
tp171
Rp172
(dp173
bg2
(I239
tp174
Rp175
(dp176
btp177
Rp178
(dp179
bag1
(g2
(I244
tp180
Rp181
(dp182
bg2
(I980
tp183
Rp184
(dp185
btp186
Rp187
(dp188
bag1
(g2
(I991
tp189
Rp190
(dp191
bg2
(I966
tp192
Rp193
(dp194
btp195
Rp196
(dp197
bag1
(g2
(I340
tp198
Rp199
(dp200
bg2
(I229
tp201
Rp202
(dp203
btp204
Rp205
(dp206
bag1
(g2
(I747
tp207
Rp208
(dp209
bg2
(I673
tp210
Rp211
(dp212
btp213
Rp214
(dp215
bag1
(g2
(I243
tp216
Rp217
(dp218
bg2
(I78
tp219
Rp220
(dp221
btp222
Rp223
(dp224
bag1
(g2
(I826
tp225
Rp226
(dp227
bg2
(I327
tp228
Rp229
(dp230
btp231
Rp232
(dp233
bag1
(g2
(I908
tp234
Rp235
(dp236
bg2
(I133
tp237
Rp238
(dp239
btp240
Rp241
(dp242
bag1
(g2
(I941
tp243
Rp244
(dp245
bg2
(I371
tp246
Rp247
(dp248
btp249
Rp250
(dp251
bag1
(g2
(I848
tp252
Rp253
(dp254
bg2
(I929
tp255
Rp256
(dp257
btp258
Rp259
(dp260
bag1
(g2
(I205
tp261
Rp262
(dp263
bg2
(I407
tp264
Rp265
(dp266
btp267
Rp268
(dp269
bag1
(g2
(I294
tp270
Rp271
(dp272
bg2
(I480
tp273
Rp274
(dp275
btp276
Rp277
(dp278
bag1
(g2
(I194
tp279
Rp280
(dp281
bg2
(I439
tp282
Rp283
(dp284
btp285
Rp286
(dp287
bag1
(g2
(I122
tp288
Rp289
(dp290
bg2
(I736
tp291
Rp292
(dp293
btp294
Rp295
(dp296
bag1
(g2
(I651
tp297
Rp298
(dp299
bg2
(I114
tp300
Rp301
(dp302
btp303
Rp304
(dp305
bag1
(g2
(I636
tp306
Rp307
(dp308
bg2
(I972
tp309
Rp310
(dp311
btp312
Rp313
(dp314
bag1
(g2
(I101
tp315
Rp316
(dp317
bg2
(I166
tp318
Rp319
(dp320
btp321
Rp322
(dp323
bag1
(g2
(I464
tp324
Rp325
(dp326
bg2
(I433
tp327
Rp328
(dp329
btp330
Rp331
(dp332
bag1
(g2
(I770
tp333
Rp334
(dp335
bg2
(I459
tp336
Rp337
(dp338
btp339
Rp340
(dp341
bag1
(g2
(I737
tp342
Rp343
(dp344
bg244
tp345
Rp346
(dp347
bag1
(g2
(I4
tp348
Rp349
(dp350
bg2
(I758
tp351
Rp352
(dp353
btp354
Rp355
(dp356
bag1
(g2
(I248
tp357
Rp358
(dp359
bg2
(I934
tp360
Rp361
(dp362
btp363
Rp364
(dp365
bag1
(g2
(I303
tp366
Rp367
(dp368
bg2
(I586
tp369
Rp370
(dp371
btp372
Rp373
(dp374
bag1
(g2
(I446
tp375
Rp376
(dp377
bg2
(I216
tp378
Rp379
(dp380
btp381
Rp382
(dp383
bag1
(g2
(I262
tp384
Rp385
(dp386
bg2
(I894
tp387
Rp388
(dp389
btp390
Rp391
(dp392
bag1
(g2
(I584
tp393
Rp394
(dp395
bg2
(I142
tp396
Rp397
(dp398
btp399
Rp400
(dp401
bag1
(g2
(I695
tp402
Rp403
(dp404
bg2
(I141
tp405
Rp406
(dp407
btp408
Rp409
(dp410
bag1
(g2
(I828
tp411
Rp412
(dp413
bg2
(I808
tp414
Rp415
(dp416
btp417
Rp418
(dp419
bag1
(g2
(I487
tp420
Rp421
(dp422
bg2
(I333
tp423
Rp424
(dp425
btp426
Rp427
(dp428
bag1
(g2
(I495
tp429
Rp430
(dp431
bg2
(I746
tp432
Rp433
(dp434
btp435
Rp436
(dp437
bag1
(g2
(I382
tp438
Rp439
(dp440
bg2
(I804
tp441
Rp442
(dp443
btp444
Rp445
(dp446
bag1
(g2
(I603
tp447
Rp448
(dp449
bg2
(I626
tp450
Rp451
(dp452
btp453
Rp454
(dp455
bag1
(g2
(I270
tp456
Rp457
(dp458
bg2
(I764
tp459
Rp460
(dp461
btp462
Rp463
(dp464
bag1
(g2
(I504
tp465
Rp466
(dp467
bg2
(I821
tp468
Rp469
(dp470
btp471
Rp472
(dp473
bag1
(g2
(I486
tp474
Rp475
(dp476
bg2
(I669
tp477
Rp478
(dp479
btp480
Rp481
(dp482
bag1
(g2
(I692
tp483
Rp484
(dp485
bg2
(I467
tp486
Rp487
(dp488
btp489
Rp490
(dp491
bag1
(g2
(I705
tp492
Rp493
(dp494
bg2
(I675
tp495
Rp496
(dp497
btp498
Rp499
(dp500
bag1
(g2
(I134
tp501
Rp502
(dp503
bg85
tp504
Rp505
(dp506
bag1
(g2
(I880
tp507
Rp508
(dp509
bg2
(I388
tp510
Rp511
(dp512
btp513
Rp514
(dp515
bag1
(g2
(I823
tp516
Rp517
(dp518
bg2
(I167
tp519
Rp520
(dp521
btp522
Rp523
(dp524
bag1
(g2
(I342
tp525
Rp526
(dp527
bg2
(I945
tp528
Rp529
(dp530
btp531
Rp532
(dp533
bag1
(g2
(I678
tp534
Rp535
(dp536
bg2
(I807
tp537
Rp538
(dp539
btp540
Rp541
(dp542
bag1
(g2
(I161
tp543
Rp544
(dp545
bg2
(I793
tp546
Rp547
(dp548
btp549
Rp550
(dp551
bag1
(g2
(I273
tp552
Rp553
(dp554
bg2
(I939
tp555
Rp556
(dp557
btp558
Rp559
(dp560
bag1
(g2
(I849
tp561
Rp562
(dp563
bg2
(I562
tp564
Rp565
(dp566
btp567
Rp568
(dp569
bag1
(g2
(I624
tp570
Rp571
(dp572
bg2
(I982
tp573
Rp574
(dp575
btp576
Rp577
(dp578
bag1
(g2
(I769
tp579
Rp580
(dp581
bg2
(I532
tp582
Rp583
(dp584
btp585
Rp586
(dp587
bag1
(g2
(I889
tp588
Rp589
(dp590
bg2
(I160
tp591
Rp592
(dp593
btp594
Rp595
(dp596
bag1
(g397
g2
(I48
tp597
Rp598
(dp599
btp600
Rp601
(dp602
bag1
(g2
(I258
tp603
Rp604
(dp605
bg2
(I834
tp606
Rp607
(dp608
btp609
Rp610
(dp611
bag1
(g2
(I930
tp612
Rp613
(dp614
bg2
(I498
tp615
Rp616
(dp617
btp618
Rp619
(dp620
bag1
(g2
(I951
tp621
Rp622
(dp623
bg2
(I569
tp624
Rp625
(dp626
btp627
Rp628
(dp629
bag1
(g2
(I646
tp630
Rp631
(dp632
bg2
(I976
tp633
Rp634
(dp635
btp636
Rp637
(dp638
bag1
(g2
(I936
tp639
Rp640
(dp641
bg2
(I36
tp642
Rp643
(dp644
btp645
Rp646
(dp647
bag1
(g2
(I275
tp648
Rp649
(dp650
bg2
(I156
tp651
Rp652
(dp653
btp654
Rp655
(dp656
bag1
(g2
(I383
tp657
Rp658
(dp659
bg2
(I82
tp660
Rp661
(dp662
btp663
Rp664
(dp665
bag1
(g2
(I76
tp666
Rp667
(dp668
bg2
(I940
tp669
Rp670
(dp671
btp672
Rp673
(dp674
bag1
(g2
(I70
tp675
Rp676
(dp677
bg2
(I563
tp678
Rp679
(dp680
btp681
Rp682
(dp683
bag1
(g2
(I594
tp684
Rp685
(dp686
bg2
(I822
tp687
Rp688
(dp689
btp690
Rp691
(dp692
bag1
(g2
(I697
tp693
Rp694
(dp695
bg2
(I659
tp696
Rp697
(dp698
btp699
Rp700
(dp701
bag1
(g2
(I37
tp702
Rp703
(dp704
bg280
tp705
Rp706
(dp707
bag1
(g2
(I418
tp708
Rp709
(dp710
bg2
(I726
tp711
Rp712
(dp713
btp714
Rp715
(dp716
bag1
(g2
(I816
tp717
Rp718
(dp719
bg2
(I516
tp720
Rp721
(dp722
btp723
Rp724
(dp725
bag1
(g2
(I454
tp726
Rp727
(dp728
bg2
(I289
tp729
Rp730
(dp731
btp732
Rp733
(dp734
bag1
(g2
(I443
tp735
Rp736
(dp737
bg2
(I83
tp738
Rp739
(dp740
btp741
Rp742
(dp743
bag1
(g2
(I522
tp744
Rp745
(dp746
bg2
(I292
tp747
Rp748
(dp749
btp750
Rp751
(dp752
bag1
(g2
(I337
tp753
Rp754
(dp755
bg2
(I500
tp756
Rp757
(dp758
btp759
Rp760
(dp761
bag1
(g2
(I456
tp762
Rp763
(dp764
bg2
(I339
tp765
Rp766
(dp767
btp768
Rp769
(dp770
bag1
(g2
(I21
tp771
Rp772
(dp773
bg2
(I797
tp774
Rp775
(dp776
btp777
Rp778
(dp779
bag1
(g2
(I441
tp780
Rp781
(dp782
bg2
(I6
tp783
Rp784
(dp785
btp786
Rp787
(dp788
bag1
(g2
(I903
tp789
Rp790
(dp791
bg2
(I330
tp792
Rp793
(dp794
btp795
Rp796
(dp797
bag1
(g2
(I163
tp798
Rp799
(dp800
bg2
(I130
tp801
Rp802
(dp803
btp804
Rp805
(dp806
bag1
(g2
(I902
tp807
Rp808
(dp809
bg2
(I537
tp810
Rp811
(dp812
btp813
Rp814
(dp815
bag1
(g2
(I541
tp816
Rp817
(dp818
bg676
tp819
Rp820
(dp821
bag1
(g2
(I714
tp822
Rp823
(dp824
bg2
(I893
tp825
Rp826
(dp827
btp828
Rp829
(dp830
bag1
(g2
(I260
tp831
Rp832
(dp833
bg2
(I688
tp834
Rp835
(dp836
btp837
Rp838
(dp839
bag1
(g2
(I88
tp840
Rp841
(dp842
bg2
(I557
tp843
Rp844
(dp845
btp846
Rp847
(dp848
bag1
(g2
(I7
tp849
Rp850
(dp851
bg2
(I668
tp852
Rp853
(dp854
btp855
Rp856
(dp857
bag1
(g2
(I259
tp858
Rp859
(dp860
bg631
tp861
Rp862
(dp863
bag1
(g2
(I430
tp864
Rp865
(dp866
bg2
(I573
tp867
Rp868
(dp869
btp870
Rp871
(dp872
bag1
(g2
(I843
tp873
Rp874
(dp875
bg2
(I507
tp876
Rp877
(dp878
btp879
Rp880
(dp881
bag1
(g2
(I385
tp882
Rp883
(dp884
bg2
(I881
tp885
Rp886
(dp887
btp888
Rp889
(dp890
bag1
(g2
(I846
tp891
Rp892
(dp893
bg2
(I922
tp894
Rp895
(dp896
btp897
Rp898
(dp899
bag1
(g2
(I209
tp900
Rp901
(dp902
bg2
(I198
tp903
Rp904
(dp905
btp906
Rp907
(dp908
bag1
(g2
(I361
tp909
Rp910
(dp911
bg2
(I905
tp912
Rp913
(dp914
btp915
Rp916
(dp917
bag1
(g2
(I390
tp918
Rp919
(dp920
bg2
(I787
tp921
Rp922
(dp923
btp924
Rp925
(dp926
bag1
(g2
(I316
tp927
Rp928
(dp929
bg2
(I302
tp930
Rp931
(dp932
btp933
Rp934
(dp935
bag1
(g529
g2
(I100
tp936
Rp937
(dp938
btp939
Rp940
(dp941
bag1
(g2
(I524
tp942
Rp943
(dp944
bg2
(I665
tp945
Rp946
(dp947
btp948
Rp949
(dp950
bag1
(g2
(I739
tp951
Rp952
(dp953
bg910
tp954
Rp955
(dp956
bag1
(g2
(I661
tp957
Rp958
(dp959
bg2
(I909
tp960
Rp961
(dp962
btp963
Rp964
(dp965
bag1
(g2
(I447
tp966
Rp967
(dp968
bg2
(I90
tp969
Rp970
(dp971
btp972
Rp973
(dp974
bag1
(g511
g2
(I182
tp975
Rp976
(dp977
btp978
Rp979
(dp980
bag1
(g2
(I850
tp981
Rp982
(dp983
bg349
tp984
Rp985
(dp986
bag1
(g2
(I335
tp987
Rp988
(dp989
bg2
(I231
tp990
Rp991
(dp992
btp993
Rp994
(dp995
bag1
(g2
(I545
tp996
Rp997
(dp998
bg2
(I978
tp999
Rp1000
(dp1001
btp1002
Rp1003
(dp1004
bag1
(g2
(I897
tp1005
Rp1006
(dp1007
bg163
tp1008
Rp1009
(dp1010
bag1
(g2
(I952
tp1011
Rp1012
(dp1013
bg2
(I988
tp1014
Rp1015
(dp1016
btp1017
Rp1018
(dp1019
bag1
(g2
(I861
tp1020
Rp1021
(dp1022
bg2
(I708
tp1023
Rp1024
(dp1025
btp1026
Rp1027
(dp1028
bag1
(g2
(I777
tp1029
Rp1030
(dp1031
bg2
(I31
tp1032
Rp1033
(dp1034
btp1035
Rp1036
(dp1037
bag1
(g2
(I381
tp1038
Rp1039
(dp1040
bg2
(I353
tp1041
Rp1042
(dp1043
btp1044
Rp1045
(dp1046
ba.