(lp0
csympy.geometry.point
Point2D
p1
(csympy.core.numbers
Integer
p2
(I926
tp3
Rp4
(dp5
bg2
(I511
tp6
Rp7
(dp8
btp9
Rp10
(dp11
bag1
(g2
(I626
tp12
Rp13
(dp14
bg2
(I340
tp15
Rp16
(dp17
btp18
Rp19
(dp20
bag1
(g2
(I783
tp21
Rp22
(dp23
bg2
(I156
tp24
Rp25
(dp26
btp27
Rp28
(dp29
bag1
(g2
(I837
tp30
Rp31
(dp32
bg2
(I553
tp33
Rp34
(dp35
btp36
Rp37
(dp38
bag1
(g2
(I985
tp39
Rp40
(dp41
bg2
(I516
tp42
Rp43
(dp44
btp45
Rp46
(dp47
bag1
(g2
(I581
tp48
Rp49
(dp50
bg2
(I351
tp51
Rp52
(dp53
btp54
Rp55
(dp56
bag1
(g2
(I164
tp57
Rp58
(dp59
bg2
(I573
tp60
Rp61
(dp62
btp63
Rp64
(dp65
bag1
(g2
(I554
tp66
Rp67
(dp68
bg2
(I676
tp69
Rp70
(dp71
btp72
Rp73
(dp74
bag1
(g2
(I256
tp75
Rp76
(dp77
bg2
(I311
tp78
Rp79
(dp80
btp81
Rp82
(dp83
bag1
(g2
(I890
tp84
Rp85
(dp86
bg2
(I840
tp87
Rp88
(dp89
btp90
Rp91
(dp92
bag1
(g2
(I689
tp93
Rp94
(dp95
bg2
(I248
tp96
Rp97
(dp98
btp99
Rp100
(dp101
bag1
(g2
(I702
tp102
Rp103
(dp104
bg2
(I759
tp105
Rp106
(dp107
btp108
Rp109
(dp110
bag1
(g2
(I487
tp111
Rp112
(dp113
bg2
(I871
tp114
Rp115
(dp116
btp117
Rp118
(dp119
bag1
(g2
(I393
tp120
Rp121
(dp122
bg2
(I227
tp123
Rp124
(dp125
btp126
Rp127
(dp128
bag1
(g2
(I963
tp129
Rp130
(dp131
bg2
(I160
tp132
Rp133
(dp134
btp135
Rp136
(dp137
bag1
(g2
(I193
tp138
Rp139
(dp140
bg139
tp141
Rp142
(dp143
bag1
(g2
(I654
tp144
Rp145
(dp146
bg2
(I345
tp147
Rp148
(dp149
btp150
Rp151
(dp152
bag1
(g2
(I586
tp153
Rp154
(dp155
bg2
(I737
tp156
Rp157
(dp158
btp159
Rp160
(dp161
bag1
(g2
(I925
tp162
Rp163
(dp164
bg2
(I505
tp165
Rp166
(dp167
btp168
Rp169
(dp170
bag1
(g2
(I101
tp171
Rp172
(dp173
bg2
(I736
tp174
Rp175
(dp176
btp177
Rp178
(dp179
bag1
(g2
(I506
tp180
Rp181
(dp182
bg2
(I96
tp183
Rp184
(dp185
btp186
Rp187
(dp188
bag1
(g2
(I157
tp189
Rp190
(dp191
bg2
(I603
tp192
Rp193
(dp194
btp195
Rp196
(dp197
bag1
(g2
(I343
tp198
Rp199
(dp200
bg2
(I613
tp201
Rp202
(dp203
btp204
Rp205
(dp206
bag1
(g2
(I105
tp207
Rp208
(dp209
bg2
(I771
tp210
Rp211
(dp212
btp213
Rp214
(dp215
bag1
(g2
(I373
tp216
Rp217
(dp218
bg2
(I140
tp219
Rp220
(dp221
btp222
Rp223
(dp224
bag1
(g2
(I792
tp225
Rp226
(dp227
bg2
(I93
tp228
Rp229
(dp230
btp231
Rp232
(dp233
bag1
(g2
(I706
tp234
Rp235
(dp236
bg2
(I522
tp237
Rp238
(dp239
btp240
Rp241
(dp242
bag1
(g2
(I99
tp243
Rp244
(dp245
bg2
(I934
tp246
Rp247
(dp248
btp249
Rp250
(dp251
bag1
(g166
g2
(I387
tp252
Rp253
(dp254
btp255
Rp256
(dp257
bag1
(g2
(I481
tp258
Rp259
(dp260
bg2
(I402
tp261
Rp262
(dp263
btp264
Rp265
(dp266
bag1
(g2
(I119
tp267
Rp268
(dp269
bg2
(I904
tp270
Rp271
(dp272
btp273
Rp274
(dp275
bag1
(g2
(I529
tp276
Rp277
(dp278
bg2
(I959
tp279
Rp280
(dp281
btp282
Rp283
(dp284
bag1
(g2
(I983
tp285
Rp286
(dp287
bg2
(I841
tp288
Rp289
(dp290
btp291
Rp292
(dp293
bag1
(g2
(I849
tp294
Rp295
(dp296
bg2
(I368
tp297
Rp298
(dp299
btp300
Rp301
(dp302
bag1
(g2
(I658
tp303
Rp304
(dp305
bg2
(I257
tp306
Rp307
(dp308
btp309
Rp310
(dp311
bag1
(g2
(I688
tp312
Rp313
(dp314
bg2
(I643
tp315
Rp316
(dp317
btp318
Rp319
(dp320
bag1
(g2
(I279
tp321
Rp322
(dp323
bg2
(I486
tp324
Rp325
(dp326
btp327
Rp328
(dp329
bag1
(g2
(I823
tp330
Rp331
(dp332
bg2
(I474
tp333
Rp334
(dp335
btp336
Rp337
(dp338
bag1
(g2
(I281
tp339
Rp340
(dp341
bg2
(I513
tp342
Rp343
(dp344
btp345
Rp346
(dp347
bag1
(g2
(I852
tp348
Rp349
(dp350
bg2
(I909
tp351
Rp352
(dp353
btp354
Rp355
(dp356
bag1
(g2
(I503
tp357
Rp358
(dp359
bg2
(I42
tp360
Rp361
(dp362
btp363
Rp364
(dp365
bag1
(g2
(I245
tp366
Rp367
(dp368
bg2
(I794
tp369
Rp370
(dp371
btp372
Rp373
(dp374
bag1
(g2
(I12
tp375
Rp376
(dp377
bg2
(I530
tp378
Rp379
(dp380
btp381
Rp382
(dp383
bag1
(g2
(I261
tp384
Rp385
(dp386
bg2
(I901
tp387
Rp388
(dp389
btp390
Rp391
(dp392
bag1
(g2
(I563
tp393
Rp394
(dp395
bg2
(I390
tp396
Rp397
(dp398
btp399
Rp400
(dp401
bag1
(g2
(I772
tp402
Rp403
(dp404
bg2
(I133
tp405
Rp406
(dp407
btp408
Rp409
(dp410
bag1
(g2
(I642
tp411
Rp412
(dp413
bg2
(I639
tp414
Rp415
(dp416
btp417
Rp418
(dp419
bag1
(g2
(I525
tp420
Rp421
(dp422
bg2
(I948
tp423
Rp424
(dp425
btp426
Rp427
(dp428
bag1
(g2
(I484
tp429
Rp430
(dp431
bg2
(I453
tp432
Rp433
(dp434
btp435
Rp436
(dp437
bag1
(g2
(I902
tp438
Rp439
(dp440
bg2
(I357
tp441
Rp442
(dp443
btp444
Rp445
(dp446
bag1
(g2
(I482
tp447
Rp448
(dp449
bg2
(I665
tp450
Rp451
(dp452
btp453
Rp454
(dp455
bag1
(g2
(I416
tp456
Rp457
(dp458
bg2
(I976
tp459
Rp460
(dp461
btp462
Rp463
(dp464
bag1
(g2
(I767
tp465
Rp466
(dp467
bg2
(I258
tp468
Rp469
(dp470
btp471
Rp472
(dp473
bag1
(g2
(I534
tp474
Rp475
(dp476
bg2
(I656
tp477
Rp478
(dp479
btp480
Rp481
(dp482
bag1
(g2
(I221
tp483
Rp484
(dp485
bg2
(I962
tp486
Rp487
(dp488
btp489
Rp490
(dp491
bag1
(g334
g2
(I724
tp492
Rp493
(dp494
btp495
Rp496
(dp497
bag1
(g2
(I460
tp498
Rp499
(dp500
bg2
(I37
tp501
Rp502
(dp503
btp504
Rp505
(dp506
bag1
(g2
(I965
tp507
Rp508
(dp509
bg439
tp510
Rp511
(dp512
bag1
(g2
(I91
tp513
Rp514
(dp515
bg2
(I798
tp516
Rp517
(dp518
btp519
Rp520
(dp521
bag1
(g2
(I559
tp522
Rp523
(dp524
bg2
(I464
tp525
Rp526
(dp527
btp528
Rp529
(dp530
bag1
(g2
(I448
tp531
Rp532
(dp533
bg130
tp534
Rp535
(dp536
bag1
(g2
(I667
tp537
Rp538
(dp539
bg2
(I113
tp540
Rp541
(dp542
btp543
Rp544
(dp545
bag1
(g2
(I521
tp546
Rp547
(dp548
bg2
(I644
tp549
Rp550
(dp551
btp552
Rp553
(dp554
bag1
(g2
(I762
tp555
Rp556
(dp557
bg2
(I544
tp558
Rp559
(dp560
btp561
Rp562
(dp563
bag1
(g2
(I994
tp564
Rp565
(dp566
bg2
(I418
tp567
Rp568
(dp569
btp570
Rp571
(dp572
bag1
(g2
(I795
tp573
Rp574
(dp575
bg2
(I879
tp576
Rp577
(dp578
btp579
Rp580
(dp581
bag1
(g2
(I24
tp582
Rp583
(dp584
bg2
(I264
tp585
Rp586
(dp587
btp588
Rp589
(dp590
bag1
(g2
(I191
tp591
Rp592
(dp593
bg2
(I67
tp594
Rp595
(dp596
btp597
Rp598
(dp599
bag1
(g2
(I147
tp600
Rp601
(dp602
bg2
(I325
tp603
Rp604
(dp605
btp606
Rp607
(dp608
bag1
(g2
(I196
tp609
Rp610
(dp611
bg295
tp612
Rp613
(dp614
bag1
(g2
(I414
tp615
Rp616
(dp617
bg2
(I540
tp618
Rp619
(dp620
btp621
Rp622
(dp623
bag1
(g2
(I524
tp624
Rp625
(dp626
bg2
(I955
tp627
Rp628
(dp629
btp630
Rp631
(dp632
bag1
(g2
(I617
tp633
Rp634
(dp635
bg2
(I401
tp636
Rp637
(dp638
btp639
Rp640
(dp641
bag1
(g2
(I320
tp642
Rp643
(dp644
bg2
(I969
tp645
Rp646
(dp647
btp648
Rp649
(dp650
bag1
(g2
(I49
tp651
Rp652
(dp653
bg2
(I175
tp654
Rp655
(dp656
btp657
Rp658
(dp659
bag1
(g2
(I383
tp660
Rp661
(dp662
bg2
(I888
tp663
Rp664
(dp665
btp666
Rp667
(dp668
bag1
(g2
(I426
tp669
Rp670
(dp671
bg2
(I378
tp672
Rp673
(dp674
btp675
Rp676
(dp677
bag1
(g2
(I574
tp678
Rp679
(dp680
bg2
(I223
tp681
Rp682
(dp683
btp684
Rp685
(dp686
bag1
(g2
(I88
tp687
Rp688
(dp689
bg2
(I940
tp690
Rp691
(dp692
btp693
Rp694
(dp695
bag1
(g2
(I468
tp696
Rp697
(dp698
bg2
(I749
tp699
Rp700
(dp701
btp702
Rp703
(dp704
bag1
(g43
g2
(I648
tp705
Rp706
(dp707
btp708
Rp709
(dp710
bag1
(g2
(I321
tp711
Rp712
(dp713
bg2
(I452
tp714
Rp715
(dp716
btp717
Rp718
(dp719
bag1
(g2
(I335
tp720
Rp721
(dp722
bg2
(I231
tp723
Rp724
(dp725
btp726
Rp727
(dp728
bag1
(g637
g2
(I229
tp729
Rp730
(dp731
btp732
Rp733
(dp734
bag1
(g2
(I498
tp735
Rp736
(dp737
bg2
(I81
tp738
Rp739
(dp740
btp741
Rp742
(dp743
bag1
(g2
(I361
tp744
Rp745
(dp746
bg2
(I313
tp747
Rp748
(dp749
btp750
Rp751
(dp752
bag1
(g2
(I304
tp753
Rp754
(dp755
bg2
(I275
tp756
Rp757
(dp758
btp759
Rp760
(dp761
bag1
(g2
(I712
tp762
Rp763
(dp764
bg2
(I391
tp765
Rp766
(dp767
btp768
Rp769
(dp770
bag1
(g2
(I410
tp771
Rp772
(dp773
bg2
(I151
tp774
Rp775
(dp776
btp777
Rp778
(dp779
bag1
(g2
(I411
tp780
Rp781
(dp782
bg2
(I89
tp783
Rp784
(dp785
btp786
Rp787
(dp788
bag1
(g2
(I800
tp789
Rp790
(dp791
bg2
(I813
tp792
Rp793
(dp794
btp795
Rp796
(dp797
bag1
(g541
g181
tp798
Rp799
(dp800
bag1
(g2
(I455
tp801
Rp802
(dp803
bg2
(I607
tp804
Rp805
(dp806
btp807
Rp808
(dp809
bag1
(g2
(I490
tp810
Rp811
(dp812
bg2
(I316
tp813
Rp814
(dp815
btp816
Rp817
(dp818
bag1
(g2
(I135
tp819
Rp820
(dp821
bg2
(I527
tp822
Rp823
(dp824
btp825
Rp826
(dp827
bag1
(g2
(I322
tp828
Rp829
(dp830
bg2
(I132
tp831
Rp832
(dp833
btp834
Rp835
(dp836
bag1
(g2
(I412
tp837
Rp838
(dp839
bg2
(I547
tp840
Rp841
(dp842
btp843
Rp844
(dp845
bag1
(g2
(I860
tp846
Rp847
(dp848
bg2
(I50
tp849
Rp850
(dp851
btp852
Rp853
(dp854
bag1
(g2
(I919
tp855
Rp856
(dp857
bg2
(I353
tp858
Rp859
(dp860
btp861
Rp862
(dp863
bag1
(g2
(I518
tp864
Rp865
(dp866
bg2
(I980
tp867
Rp868
(dp869
btp870
Rp871
(dp872
bag1
(g841
g2
(I990
tp873
Rp874
(dp875
btp876
Rp877
(dp878
bag1
(g2
(I952
tp879
Rp880
(dp881
bg2
(I215
tp882
Rp883
(dp884
btp885
Rp886
(dp887
bag1
(g7
g2
(I850
tp888
Rp889
(dp890
btp891
Rp892
(dp893
bag1
(g2
(I922
tp894
Rp895
(dp896
bg865
tp897
Rp898
(dp899
bag1
(g2
(I130
tp900
Rp901
(dp902
bg2
(I192
tp903
Rp904
(dp905
btp906
Rp907
(dp908
bag1
(g2
(I194
tp909
Rp910
(dp911
bg2
(I124
tp912
Rp913
(dp914
btp915
Rp916
(dp917
bag1
(g2
(I941
tp918
Rp919
(dp920
bg2
(I623
tp921
Rp922
(dp923
btp924
Rp925
(dp926
bag1
(g2
(I454
tp927
Rp928
(dp929
bg2
(I190
tp930
Rp931
(dp932
btp933
Rp934
(dp935
bag1
(g2
(I735
tp936
Rp937
(dp938
bg412
tp939
Rp940
(dp941
bag1
(g2
(I687
tp942
Rp943
(dp944
bg2
(I446
tp945
Rp946
(dp947
btp948
Rp949
(dp950
bag1
(g2
(I341
tp951
Rp952
(dp953
bg2
(I873
tp954
Rp955
(dp956
btp957
Rp958
(dp959
bag1
(g61
g2
(I200
tp960
Rp961
(dp962
btp963
Rp964
(dp965
bag1
(g2
(I703
tp966
Rp967
(dp968
bg2
(I936
tp969
Rp970
(dp971
btp972
Rp973
(dp974
bag1
(g2
(I465
tp975
Rp976
(dp977
bg2
(I13
tp978
Rp979
(dp980
btp981
Rp982
(dp983
bag1
(g2
(I346
tp984
Rp985
(dp986
bg2
(I917
tp987
Rp988
(dp989
btp990
Rp991
(dp992
bag1
(g2
(I930
tp993
Rp994
(dp995
bg2
(I123
tp996
Rp997
(dp998
btp999
Rp1000
(dp1001
bag1
(g229
g2
(I419
tp1002
Rp1003
(dp1004
btp1005
Rp1006
(dp1007
bag1
(g2
(I371
tp1008
Rp1009
(dp1010
bg2
(I992
tp1011
Rp1012
(dp1013
btp1014
Rp1015
(dp1016
bag1
(g2
(I283
tp1017
Rp1018
(dp1019
bg2
(I947
tp1020
Rp1021
(dp1022
btp1023
Rp1024
(dp1025
bag1
(g2
(I582
tp1026
Rp1027
(dp1028
bg2
(I18
tp1029
Rp1030
(dp1031
btp1032
Rp1033
(dp1034
ba.