(lp0
csympy.geometry.point
Point2D
p1
(csympy.core.numbers
Integer
p2
(I787
tp3
Rp4
(dp5
bg2
(I283
tp6
Rp7
(dp8
btp9
Rp10
(dp11
bag1
(g2
(I61
tp12
Rp13
(dp14
bg2
(I599
tp15
Rp16
(dp17
btp18
Rp19
(dp20
bag1
(g2
(I919
tp21
Rp22
(dp23
bg2
(I740
tp24
Rp25
(dp26
btp27
Rp28
(dp29
bag1
(g2
(I438
tp30
Rp31
(dp32
bg2
(I526
tp33
Rp34
(dp35
btp36
Rp37
(dp38
bag1
(g2
(I158
tp39
Rp40
(dp41
bg2
(I326
tp42
Rp43
(dp44
btp45
Rp46
(dp47
bag1
(g2
(I826
tp48
Rp49
(dp50
bg2
(I226
tp51
Rp52
(dp53
btp54
Rp55
(dp56
bag1
(g2
(I483
tp57
Rp58
(dp59
bg2
(I609
tp60
Rp61
(dp62
btp63
Rp64
(dp65
bag1
(g2
(I41
tp66
Rp67
(dp68
bg2
(I897
tp69
Rp70
(dp71
btp72
Rp73
(dp74
bag1
(g2
(I543
tp75
Rp76
(dp77
bg2
(I206
tp78
Rp79
(dp80
btp81
Rp82
(dp83
bag1
(g2
(I640
tp84
Rp85
(dp86
bg2
(I926
tp87
Rp88
(dp89
btp90
Rp91
(dp92
bag1
(g2
(I551
tp93
Rp94
(dp95
bg2
(I435
tp96
Rp97
(dp98
btp99
Rp100
(dp101
bag1
(g2
(I467
tp102
Rp103
(dp104
bg2
(I130
tp105
Rp106
(dp107
btp108
Rp109
(dp110
bag1
(g2
(I355
tp111
Rp112
(dp113
bg2
(I966
tp114
Rp115
(dp116
btp117
Rp118
(dp119
bag1
(g2
(I357
tp120
Rp121
(dp122
bg2
(I58
tp123
Rp124
(dp125
btp126
Rp127
(dp128
bag1
(g2
(I208
tp129
Rp130
(dp131
bg2
(I645
tp132
Rp133
(dp134
btp135
Rp136
(dp137
bag1
(g2
(I962
tp138
Rp139
(dp140
bg2
(I881
tp141
Rp142
(dp143
btp144
Rp145
(dp146
bag1
(g2
(I62
tp147
Rp148
(dp149
bg2
(I271
tp150
Rp151
(dp152
btp153
Rp154
(dp155
bag1
(g2
(I588
tp156
Rp157
(dp158
bg2
(I99
tp159
Rp160
(dp161
btp162
Rp163
(dp164
bag1
(g2
(I107
tp165
Rp166
(dp167
bg2
(I510
tp168
Rp169
(dp170
btp171
Rp172
(dp173
bag1
(g2
(I40
tp174
Rp175
(dp176
bg2
(I564
tp177
Rp178
(dp179
btp180
Rp181
(dp182
bag1
(g2
(I982
tp183
Rp184
(dp185
bg2
(I50
tp186
Rp187
(dp188
btp189
Rp190
(dp191
bag1
(g2
(I412
tp192
Rp193
(dp194
bg2
(I696
tp195
Rp196
(dp197
btp198
Rp199
(dp200
bag1
(g2
(I786
tp201
Rp202
(dp203
bg2
(I838
tp204
Rp205
(dp206
btp207
Rp208
(dp209
bag1
(g2
(I532
tp210
Rp211
(dp212
bg2
(I95
tp213
Rp214
(dp215
btp216
Rp217
(dp218
bag1
(g2
(I781
tp219
Rp220
(dp221
bg2
(I573
tp222
Rp223
(dp224
btp225
Rp226
(dp227
bag1
(g2
(I937
tp228
Rp229
(dp230
bg2
(I791
tp231
Rp232
(dp233
btp234
Rp235
(dp236
bag1
(g2
(I682
tp237
Rp238
(dp239
bg2
(I466
tp240
Rp241
(dp242
btp243
Rp244
(dp245
bag1
(g2
(I396
tp246
Rp247
(dp248
bg2
(I529
tp249
Rp250
(dp251
btp252
Rp253
(dp254
bag1
(g2
(I57
tp255
Rp256
(dp257
bg2
(I605
tp258
Rp259
(dp260
btp261
Rp262
(dp263
bag1
(g2
(I356
tp264
Rp265
(dp266
bg2
(I420
tp267
Rp268
(dp269
btp270
Rp271
(dp272
bag1
(g34
g2
(I201
tp273
Rp274
(dp275
btp276
Rp277
(dp278
bag1
(g2
(I5
tp279
Rp280
(dp281
bg2
(I288
tp282
Rp283
(dp284
btp285
Rp286
(dp287
bag1
(g2
(I131
tp288
Rp289
(dp290
bg2
(I715
tp291
Rp292
(dp293
btp294
Rp295
(dp296
bag1
(g2
(I952
tp297
Rp298
(dp299
bg2
(I246
tp300
Rp301
(dp302
btp303
Rp304
(dp305
bag1
(g2
(I994
tp306
Rp307
(dp308
bg2
(I313
tp309
Rp310
(dp311
btp312
Rp313
(dp314
bag1
(g2
(I478
tp315
Rp316
(dp317
bg2
(I371
tp318
Rp319
(dp320
btp321
Rp322
(dp323
bag1
(g2
(I693
tp324
Rp325
(dp326
bg2
(I220
tp327
Rp328
(dp329
btp330
Rp331
(dp332
bag1
(g2
(I369
tp333
Rp334
(dp335
bg2
(I633
tp336
Rp337
(dp338
btp339
Rp340
(dp341
bag1
(g2
(I317
tp342
Rp343
(dp344
bg2
(I953
tp345
Rp346
(dp347
btp348
Rp349
(dp350
bag1
(g2
(I819
tp351
Rp352
(dp353
bg2
(I695
tp354
Rp355
(dp356
btp357
Rp358
(dp359
bag1
(g2
(I229
tp360
Rp361
(dp362
bg2
(I464
tp363
Rp364
(dp365
btp366
Rp367
(dp368
bag1
(g2
(I419
tp369
Rp370
(dp371
bg211
tp372
Rp373
(dp374
bag1
(g2
(I904
tp375
Rp376
(dp377
bg2
(I570
tp378
Rp379
(dp380
btp381
Rp382
(dp383
bag1
(g2
(I119
tp384
Rp385
(dp386
bg2
(I835
tp387
Rp388
(dp389
btp390
Rp391
(dp392
bag1
(g2
(I224
tp393
Rp394
(dp395
bg2
(I372
tp396
Rp397
(dp398
btp399
Rp400
(dp401
bag1
(g2
(I240
tp402
Rp403
(dp404
bg2
(I214
tp405
Rp406
(dp407
btp408
Rp409
(dp410
bag1
(g2
(I681
tp411
Rp412
(dp413
bg2
(I729
tp414
Rp415
(dp416
btp417
Rp418
(dp419
bag1
(g2
(I552
tp420
Rp421
(dp422
bg2
(I223
tp423
Rp424
(dp425
btp426
Rp427
(dp428
bag1
(g2
(I731
tp429
Rp430
(dp431
bg2
(I492
tp432
Rp433
(dp434
btp435
Rp436
(dp437
bag1
(g2
(I427
tp438
Rp439
(dp440
bg2
(I170
tp441
Rp442
(dp443
btp444
Rp445
(dp446
bag1
(g424
g2
(I899
tp447
Rp448
(dp449
btp450
Rp451
(dp452
bag1
(g2
(I865
tp453
Rp454
(dp455
bg2
(I748
tp456
Rp457
(dp458
btp459
Rp460
(dp461
bag1
(g2
(I635
tp462
Rp463
(dp464
bg2
(I643
tp465
Rp466
(dp467
btp468
Rp469
(dp470
bag1
(g2
(I941
tp471
Rp472
(dp473
bg2
(I275
tp474
Rp475
(dp476
btp477
Rp478
(dp479
bag1
(g2
(I782
tp480
Rp481
(dp482
bg2
(I893
tp483
Rp484
(dp485
btp486
Rp487
(dp488
bag1
(g2
(I776
tp489
Rp490
(dp491
bg2
(I855
tp492
Rp493
(dp494
btp495
Rp496
(dp497
bag1
(g2
(I496
tp498
Rp499
(dp500
bg31
tp501
Rp502
(dp503
bag1
(g2
(I652
tp504
Rp505
(dp506
bg2
(I916
tp507
Rp508
(dp509
btp510
Rp511
(dp512
bag1
(g2
(I26
tp513
Rp514
(dp515
bg2
(I619
tp516
Rp517
(dp518
btp519
Rp520
(dp521
bag1
(g2
(I406
tp522
Rp523
(dp524
bg2
(I746
tp525
Rp526
(dp527
btp528
Rp529
(dp530
bag1
(g2
(I692
tp531
Rp532
(dp533
bg2
(I612
tp534
Rp535
(dp536
btp537
Rp538
(dp539
bag1
(g2
(I121
tp540
Rp541
(dp542
bg2
(I909
tp543
Rp544
(dp545
btp546
Rp547
(dp548
bag1
(g2
(I118
tp549
Rp550
(dp551
bg2
(I878
tp552
Rp553
(dp554
btp555
Rp556
(dp557
bag1
(g2
(I684
tp558
Rp559
(dp560
bg2
(I992
tp561
Rp562
(dp563
btp564
Rp565
(dp566
bag1
(g2
(I902
tp567
Rp568
(dp569
bg2
(I901
tp570
Rp571
(dp572
btp573
Rp574
(dp575
bag1
(g2
(I699
tp576
Rp577
(dp578
bg2
(I933
tp579
Rp580
(dp581
btp582
Rp583
(dp584
bag1
(g517
g2
(I860
tp585
Rp586
(dp587
btp588
Rp589
(dp590
bag1
(g2
(I495
tp591
Rp592
(dp593
bg2
(I157
tp594
Rp595
(dp596
btp597
Rp598
(dp599
bag1
(g2
(I92
tp600
Rp601
(dp602
bg2
(I788
tp603
Rp604
(dp605
btp606
Rp607
(dp608
bag1
(g2
(I302
tp609
Rp610
(dp611
bg2
(I528
tp612
Rp613
(dp614
btp615
Rp616
(dp617
bag1
(g2
(I196
tp618
Rp619
(dp620
bg2
(I348
tp621
Rp622
(dp623
btp624
Rp625
(dp626
bag1
(g2
(I351
tp627
Rp628
(dp629
bg2
(I417
tp630
Rp631
(dp632
btp633
Rp634
(dp635
bag1
(g457
g2
(I134
tp636
Rp637
(dp638
btp639
Rp640
(dp641
bag1
(g2
(I578
tp642
Rp643
(dp644
bg2
(I673
tp645
Rp646
(dp647
btp648
Rp649
(dp650
bag1
(g2
(I651
tp651
Rp652
(dp653
bg2
(I385
tp654
Rp655
(dp656
btp657
Rp658
(dp659
bag1
(g2
(I873
tp660
Rp661
(dp662
bg2
(I905
tp663
Rp664
(dp665
btp666
Rp667
(dp668
bag1
(g2
(I363
tp669
Rp670
(dp671
bg2
(I888
tp672
Rp673
(dp674
btp675
Rp676
(dp677
bag1
(g2
(I248
tp678
Rp679
(dp680
bg2
(I875
tp681
Rp682
(dp683
btp684
Rp685
(dp686
bag1
(g2
(I824
tp687
Rp688
(dp689
bg2
(I316
tp690
Rp691
(dp692
btp693
Rp694
(dp695
bag1
(g2
(I940
tp696
Rp697
(dp698
bg2
(I658
tp699
Rp700
(dp701
btp702
Rp703
(dp704
bag1
(g2
(I671
tp705
Rp706
(dp707
bg2
(I566
tp708
Rp709
(dp710
btp711
Rp712
(dp713
bag1
(g2
(I842
tp714
Rp715
(dp716
bg2
(I188
tp717
Rp718
(dp719
btp720
Rp721
(dp722
bag1
(g2
(I504
tp723
Rp724
(dp725
bg2
(I534
tp726
Rp727
(dp728
btp729
Rp730
(dp731
bag1
(g2
(I111
tp732
Rp733
(dp734
bg2
(I217
tp735
Rp736
(dp737
btp738
Rp739
(dp740
bag1
(g406
g2
(I779
tp741
Rp742
(dp743
btp744
Rp745
(dp746
bag1
(g2
(I590
tp747
Rp748
(dp749
bg2
(I565
tp750
Rp751
(dp752
btp753
Rp754
(dp755
bag1
(g2
(I476
tp756
Rp757
(dp758
bg2
(I701
tp759
Rp760
(dp761
btp762
Rp763
(dp764
bag1
(g2
(I416
tp765
Rp766
(dp767
bg2
(I844
tp768
Rp769
(dp770
btp771
Rp772
(dp773
bag1
(g2
(I947
tp774
Rp775
(dp776
bg2
(I780
tp777
Rp778
(dp779
btp780
Rp781
(dp782
bag1
(g2
(I306
tp783
Rp784
(dp785
bg130
tp786
Rp787
(dp788
bag1
(g2
(I340
tp789
Rp790
(dp791
bg2
(I150
tp792
Rp793
(dp794
btp795
Rp796
(dp797
bag1
(g2
(I653
tp798
Rp799
(dp800
bg2
(I792
tp801
Rp802
(dp803
btp804
Rp805
(dp806
bag1
(g2
(I191
tp807
Rp808
(dp809
bg2
(I745
tp810
Rp811
(dp812
btp813
Rp814
(dp815
bag1
(g2
(I647
tp816
Rp817
(dp818
bg2
(I789
tp819
Rp820
(dp821
btp822
Rp823
(dp824
bag1
(g2
(I942
tp825
Rp826
(dp827
bg2
(I368
tp828
Rp829
(dp830
btp831
Rp832
(dp833
bag1
(g2
(I325
tp834
Rp835
(dp836
bg2
(I88
tp837
Rp838
(dp839
btp840
Rp841
(dp842
bag1
(g571
g2
(I232
tp843
Rp844
(dp845
btp846
Rp847
(dp848
bag1
(g2
(I298
tp849
Rp850
(dp851
bg376
tp852
Rp853
(dp854
bag1
(g2
(I513
tp855
Rp856
(dp857
bg856
tp858
Rp859
(dp860
bag1
(g2
(I931
tp861
Rp862
(dp863
bg2
(I215
tp864
Rp865
(dp866
btp867
Rp868
(dp869
bag1
(g2
(I759
tp870
Rp871
(dp872
bg2
(I864
tp873
Rp874
(dp875
btp876
Rp877
(dp878
bag1
(g2
(I744
tp879
Rp880
(dp881
bg2
(I192
tp882
Rp883
(dp884
btp885
Rp886
(dp887
bag1
(g2
(I249
tp888
Rp889
(dp890
bg862
tp891
Rp892
(dp893
bag1
(g2
(I815
tp894
Rp895
(dp896
bg2
(I472
tp897
Rp898
(dp899
btp900
Rp901
(dp902
bag1
(g2
(I621
tp903
Rp904
(dp905
bg2
(I140
tp906
Rp907
(dp908
btp909
Rp910
(dp911
bag1
(g2
(I721
tp912
Rp913
(dp914
bg2
(I112
tp915
Rp916
(dp917
btp918
Rp919
(dp920
bag1
(g2
(I602
tp921
Rp922
(dp923
bg2
(I960
tp924
Rp925
(dp926
btp927
Rp928
(dp929
bag1
(g2
(I225
tp930
Rp931
(dp932
bg2
(I580
tp933
Rp934
(dp935
btp936
Rp937
(dp938
bag1
(g2
(I810
tp939
Rp940
(dp941
bg2
(I46
tp942
Rp943
(dp944
btp945
Rp946
(dp947
bag1
(g2
(I179
tp948
Rp949
(dp950
bg2
(I727
tp951
Rp952
(dp953
btp954
Rp955
(dp956
bag1
(g2
(I813
tp957
Rp958
(dp959
bg2
(I304
tp960
Rp961
(dp962
btp963
Rp964
(dp965
bag1
(g595
g247
tp966
Rp967
(dp968
bag1
(g301
g2
(I636
tp969
Rp970
(dp971
btp972
Rp973
(dp974
bag1
(g2
(I760
tp975
Rp976
(dp977
bg2
(I957
tp978
Rp979
(dp980
btp981
Rp982
(dp983
bag1
(g2
(I178
tp984
Rp985
(dp986
bg2
(I593
tp987
Rp988
(dp989
btp990
Rp991
(dp992
bag1
(g2
(I622
tp993
Rp994
(dp995
bg2
(I54
tp996
Rp997
(dp998
btp999
Rp1000
(dp1001
bag1
(g2
(I522
tp1002
Rp1003
(dp1004
bg2
(I724
tp1005
Rp1006
(dp1007
btp1008
Rp1009
(dp1010
bag1
(g2
(I949
tp1011
Rp1012
(dp1013
bg2
(I291
tp1014
Rp1015
(dp1016
btp1017
Rp1018
(dp1019
bag1
(g2
(I413
tp1020
Rp1021
(dp1022
bg76
tp1023
Rp1024
(dp1025
bag1
(g2
(I213
tp1026
Rp1027
(dp1028
bg2
(I143
tp1029
Rp1030
(dp1031
btp1032
Rp1033
(dp1034
ba.