(lp0
csympy.geometry.point
Point2D
p1
(csympy.core.numbers
Integer
p2
(I345
tp3
Rp4
(dp5
bg2
(I341
tp6
Rp7
(dp8
btp9
Rp10
(dp11
bag1
(g2
(I242
tp12
Rp13
(dp14
bg2
(I197
tp15
Rp16
(dp17
btp18
Rp19
(dp20
bag1
(g2
(I151
tp21
Rp22
(dp23
bg2
(I253
tp24
Rp25
(dp26
btp27
Rp28
(dp29
ba.