(lp0
csympy.geometry.point
Point2D
p1
(csympy.core.numbers
Integer
p2
(I494
tp3
Rp4
(dp5
bg2
(I474
tp6
Rp7
(dp8
btp9
Rp10
(dp11
bag1
(g2
(I485
tp12
Rp13
(dp14
bg2
(I44
tp15
Rp16
(dp17
btp18
Rp19
(dp20
bag1
(g2
(I266
tp21
Rp22
(dp23
bg2
(I268
tp24
Rp25
(dp26
btp27
Rp28
(dp29
bag1
(g2
(I50
tp30
Rp31
(dp32
bg2
(I146
tp33
Rp34
(dp35
btp36
Rp37
(dp38
bag1
(g2
(I245
tp39
Rp40
(dp41
bg2
(I174
tp42
Rp43
(dp44
btp45
Rp46
(dp47
bag1
(g2
(I37
tp48
Rp49
(dp50
bg2
(I496
tp51
Rp52
(dp53
btp54
Rp55
(dp56
bag1
(g2
(I205
tp57
Rp58
(dp59
bg2
(I36
tp60
Rp61
(dp62
btp63
Rp64
(dp65
bag1
(g2
(I176
tp66
Rp67
(dp68
bg2
(I419
tp69
Rp70
(dp71
btp72
Rp73
(dp74
bag1
(g2
(I366
tp75
Rp76
(dp77
bg2
(I20
tp78
Rp79
(dp80
btp81
Rp82
(dp83
bag1
(g2
(I102
tp84
Rp85
(dp86
bg2
(I421
tp87
Rp88
(dp89
btp90
Rp91
(dp92
bag1
(g2
(I133
tp93
Rp94
(dp95
bg2
(I334
tp96
Rp97
(dp98
btp99
Rp100
(dp101
bag1
(g2
(I446
tp102
Rp103
(dp104
bg2
(I135
tp105
Rp106
(dp107
btp108
Rp109
(dp110
bag1
(g2
(I192
tp111
Rp112
(dp113
bg2
(I141
tp114
Rp115
(dp116
btp117
Rp118
(dp119
bag1
(g2
(I258
tp120
Rp121
(dp122
bg2
(I159
tp123
Rp124
(dp125
btp126
Rp127
(dp128
bag1
(g2
(I142
tp129
Rp130
(dp131
bg2
(I313
tp132
Rp133
(dp134
btp135
Rp136
(dp137
bag1
(g2
(I277
tp138
Rp139
(dp140
bg2
(I286
tp141
Rp142
(dp143
btp144
Rp145
(dp146
bag1
(g2
(I461
tp147
Rp148
(dp149
bg2
(I452
tp150
Rp151
(dp152
btp153
Rp154
(dp155
bag1
(g2
(I377
tp156
Rp157
(dp158
bg2
(I35
tp159
Rp160
(dp161
btp162
Rp163
(dp164
bag1
(g2
(I123
tp165
Rp166
(dp167
bg49
tp168
Rp169
(dp170
bag1
(g2
(I294
tp171
Rp172
(dp173
bg2
(I185
tp174
Rp175
(dp176
btp177
Rp178
(dp179
bag1
(g2
(I32
tp180
Rp181
(dp182
bg2
(I164
tp183
Rp184
(dp185
btp186
Rp187
(dp188
bag1
(g2
(I272
tp189
Rp190
(dp191
bg2
(I198
tp192
Rp193
(dp194
btp195
Rp196
(dp197
bag1
(g2
(I406
tp198
Rp199
(dp200
bg2
(I329
tp201
Rp202
(dp203
btp204
Rp205
(dp206
bag1
(g2
(I166
tp207
Rp208
(dp209
bg2
(I281
tp210
Rp211
(dp212
btp213
Rp214
(dp215
bag1
(g2
(I458
tp216
Rp217
(dp218
bg2
(I81
tp219
Rp220
(dp221
btp222
Rp223
(dp224
bag1
(g2
(I379
tp225
Rp226
(dp227
bg2
(I410
tp228
Rp229
(dp230
btp231
Rp232
(dp233
ba.