(lp0
csympy.geometry.point
Point2D
p1
(csympy.core.numbers
Integer
p2
(I249
tp3
Rp4
(dp5
bg2
(I33
tp6
Rp7
(dp8
btp9
Rp10
(dp11
bag1
(g2
(I371
tp12
Rp13
(dp14
bg2
(I284
tp15
Rp16
(dp17
btp18
Rp19
(dp20
bag1
(g2
(I117
tp21
Rp22
(dp23
bg2
(I60
tp24
Rp25
(dp26
btp27
Rp28
(dp29
bag1
(g2
(I488
tp30
Rp31
(dp32
bg2
(I471
tp33
Rp34
(dp35
btp36
Rp37
(dp38
bag1
(g2
(I342
tp39
Rp40
(dp41
bg2
(I66
tp42
Rp43
(dp44
btp45
Rp46
(dp47
bag1
(g2
(I411
tp48
Rp49
(dp50
bg2
(I274
tp51
Rp52
(dp53
btp54
Rp55
(dp56
bag1
(g34
g2
(I233
tp57
Rp58
(dp59
btp60
Rp61
(dp62
bag1
(g2
(I73
tp63
Rp64
(dp65
bg2
(I381
tp66
Rp67
(dp68
btp69
Rp70
(dp71
bag1
(g2
(I89
tp72
Rp73
(dp74
bg2
(I188
tp75
Rp76
(dp77
btp78
Rp79
(dp80
bag1
(g2
(I11
tp81
Rp82
(dp83
bg2
(I243
tp84
Rp85
(dp86
btp87
Rp88
(dp89
bag1
(g2
(I320
tp90
Rp91
(dp92
bg2
(I354
tp93
Rp94
(dp95
btp96
Rp97
(dp98
bag1
(g2
(I101
tp99
Rp100
(dp101
bg2
(I161
tp102
Rp103
(dp104
btp105
Rp106
(dp107
bag1
(g2
(I35
tp108
Rp109
(dp110
bg2
(I258
tp111
Rp112
(dp113
btp114
Rp115
(dp116
ba.