(lp0
csympy.geometry.point
Point2D
p1
(csympy.core.numbers
Integer
p2
(I72
tp3
Rp4
(dp5
bg2
(I354
tp6
Rp7
(dp8
btp9
Rp10
(dp11
bag1
(g2
(I286
tp12
Rp13
(dp14
bg2
(I38
tp15
Rp16
(dp17
btp18
Rp19
(dp20
bag1
(g2
(I243
tp21
Rp22
(dp23
bg2
(I491
tp24
Rp25
(dp26
btp27
Rp28
(dp29
bag1
(g2
(I133
tp30
Rp31
(dp32
bg2
(I158
tp33
Rp34
(dp35
btp36
Rp37
(dp38
bag1
(g2
(I370
tp39
Rp40
(dp41
bg2
(I308
tp42
Rp43
(dp44
btp45
Rp46
(dp47
bag1
(g2
(I372
tp48
Rp49
(dp50
bg2
(I471
tp51
Rp52
(dp53
btp54
Rp55
(dp56
bag1
(g2
(I125
tp57
Rp58
(dp59
bg2
(I285
tp60
Rp61
(dp62
btp63
Rp64
(dp65
bag1
(g2
(I264
tp66
Rp67
(dp68
bg2
(I71
tp69
Rp70
(dp71
btp72
Rp73
(dp74
bag1
(g2
(I430
tp75
Rp76
(dp77
bg2
(I187
tp78
Rp79
(dp80
btp81
Rp82
(dp83
bag1
(g2
(I123
tp84
Rp85
(dp86
bg2
(I173
tp87
Rp88
(dp89
btp90
Rp91
(dp92
bag1
(g2
(I305
tp93
Rp94
(dp95
bg2
(I2
tp96
Rp97
(dp98
btp99
Rp100
(dp101
bag1
(g2
(I334
tp102
Rp103
(dp104
bg2
(I389
tp105
Rp106
(dp107
btp108
Rp109
(dp110
bag1
(g2
(I206
tp111
Rp112
(dp113
bg2
(I152
tp114
Rp115
(dp116
btp117
Rp118
(dp119
bag1
(g2
(I464
tp120
Rp121
(dp122
bg2
(I171
tp123
Rp124
(dp125
btp126
Rp127
(dp128
ba.