(lp0
csympy.geometry.point
Point2D
p1
(csympy.core.numbers
Integer
p2
(I513
tp3
Rp4
(dp5
bg2
(I432
tp6
Rp7
(dp8
btp9
Rp10
(dp11
bag1
(g2
(I137
tp12
Rp13
(dp14
bg2
(I679
tp15
Rp16
(dp17
btp18
Rp19
(dp20
bag1
(g2
(I488
tp21
Rp22
(dp23
bg2
(I485
tp24
Rp25
(dp26
btp27
Rp28
(dp29
bag1
(g2
(I389
tp30
Rp31
(dp32
bg2
(I567
tp33
Rp34
(dp35
btp36
Rp37
(dp38
bag1
(g2
(I106
tp39
Rp40
(dp41
bg2
(I484
tp42
Rp43
(dp44
btp45
Rp46
(dp47
bag1
(g2
(I217
tp48
Rp49
(dp50
bg2
(I710
tp51
Rp52
(dp53
btp54
Rp55
(dp56
bag1
(g2
(I653
tp57
Rp58
(dp59
bg2
(I181
tp60
Rp61
(dp62
btp63
Rp64
(dp65
bag1
(g2
(I888
tp66
Rp67
(dp68
bg2
(I914
tp69
Rp70
(dp71
btp72
Rp73
(dp74
bag1
(g2
(I771
tp75
Rp76
(dp77
bg2
(I877
tp78
Rp79
(dp80
btp81
Rp82
(dp83
bag1
(g2
(I842
tp84
Rp85
(dp86
bg2
(I264
tp87
Rp88
(dp89
btp90
Rp91
(dp92
bag1
(g2
(I873
tp93
Rp94
(dp95
bg2
(I854
tp96
Rp97
(dp98
btp99
Rp100
(dp101
bag1
(g2
(I893
tp102
Rp103
(dp104
bg2
(I962
tp105
Rp106
(dp107
btp108
Rp109
(dp110
bag1
(g2
(I212
tp111
Rp112
(dp113
bg2
(I344
tp114
Rp115
(dp116
btp117
Rp118
(dp119
bag1
(g2
(I444
tp120
Rp121
(dp122
bg2
(I657
tp123
Rp124
(dp125
btp126
Rp127
(dp128
bag1
(g2
(I864
tp129
Rp130
(dp131
bg2
(I785
tp132
Rp133
(dp134
btp135
Rp136
(dp137
bag1
(g2
(I708
tp138
Rp139
(dp140
bg2
(I959
tp141
Rp142
(dp143
btp144
Rp145
(dp146
bag1
(g2
(I768
tp147
Rp148
(dp149
bg2
(I894
tp150
Rp151
(dp152
btp153
Rp154
(dp155
bag1
(g2
(I283
tp156
Rp157
(dp158
bg2
(I839
tp159
Rp160
(dp161
btp162
Rp163
(dp164
bag1
(g2
(I796
tp165
Rp166
(dp167
bg2
(I90
tp168
Rp169
(dp170
btp171
Rp172
(dp173
bag1
(g2
(I146
tp174
Rp175
(dp176
bg2
(I660
tp177
Rp178
(dp179
btp180
Rp181
(dp182
bag1
(g2
(I655
tp183
Rp184
(dp185
bg2
(I63
tp186
Rp187
(dp188
btp189
Rp190
(dp191
bag1
(g2
(I342
tp192
Rp193
(dp194
bg2
(I879
tp195
Rp196
(dp197
btp198
Rp199
(dp200
bag1
(g2
(I19
tp201
Rp202
(dp203
bg2
(I600
tp204
Rp205
(dp206
btp207
Rp208
(dp209
bag1
(g2
(I548
tp210
Rp211
(dp212
bg2
(I979
tp213
Rp214
(dp215
btp216
Rp217
(dp218
bag1
(g2
(I47
tp219
Rp220
(dp221
bg2
(I891
tp222
Rp223
(dp224
btp225
Rp226
(dp227
bag1
(g2
(I464
tp228
Rp229
(dp230
bg2
(I765
tp231
Rp232
(dp233
btp234
Rp235
(dp236
bag1
(g2
(I640
tp237
Rp238
(dp239
bg2
(I736
tp240
Rp241
(dp242
btp243
Rp244
(dp245
bag1
(g2
(I507
tp246
Rp247
(dp248
bg2
(I983
tp249
Rp250
(dp251
btp252
Rp253
(dp254
bag1
(g2
(I761
tp255
Rp256
(dp257
bg2
(I583
tp258
Rp259
(dp260
btp261
Rp262
(dp263
bag1
(g2
(I732
tp264
Rp265
(dp266
bg2
(I412
tp267
Rp268
(dp269
btp270
Rp271
(dp272
bag1
(g2
(I2
tp273
Rp274
(dp275
bg2
(I982
tp276
Rp277
(dp278
btp279
Rp280
(dp281
bag1
(g2
(I309
tp282
Rp283
(dp284
bg2
(I92
tp285
Rp286
(dp287
btp288
Rp289
(dp290
bag1
(g2
(I349
tp291
Rp292
(dp293
bg2
(I166
tp294
Rp295
(dp296
btp297
Rp298
(dp299
bag1
(g2
(I586
tp300
Rp301
(dp302
bg2
(I272
tp303
Rp304
(dp305
btp306
Rp307
(dp308
bag1
(g2
(I210
tp309
Rp310
(dp311
bg2
(I837
tp312
Rp313
(dp314
btp315
Rp316
(dp317
bag1
(g2
(I848
tp318
Rp319
(dp320
bg2
(I129
tp321
Rp322
(dp323
btp324
Rp325
(dp326
bag1
(g2
(I596
tp327
Rp328
(dp329
bg2
(I57
tp330
Rp331
(dp332
btp333
Rp334
(dp335
bag1
(g2
(I945
tp336
Rp337
(dp338
bg2
(I511
tp339
Rp340
(dp341
btp342
Rp343
(dp344
bag1
(g2
(I252
tp345
Rp346
(dp347
bg2
(I132
tp348
Rp349
(dp350
btp351
Rp352
(dp353
bag1
(g2
(I369
tp354
Rp355
(dp356
bg2
(I20
tp357
Rp358
(dp359
btp360
Rp361
(dp362
bag1
(g2
(I751
tp363
Rp364
(dp365
bg2
(I555
tp366
Rp367
(dp368
btp369
Rp370
(dp371
bag1
(g2
(I332
tp372
Rp373
(dp374
bg211
tp375
Rp376
(dp377
bag1
(g2
(I458
tp378
Rp379
(dp380
bg2
(I312
tp381
Rp382
(dp383
btp384
Rp385
(dp386
bag1
(g2
(I901
tp387
Rp388
(dp389
bg2
(I33
tp390
Rp391
(dp392
btp393
Rp394
(dp395
bag1
(g2
(I88
tp396
Rp397
(dp398
bg2
(I822
tp399
Rp400
(dp401
btp402
Rp403
(dp404
bag1
(g2
(I436
tp405
Rp406
(dp407
bg2
(I452
tp408
Rp409
(dp410
btp411
Rp412
(dp413
bag1
(g2
(I295
tp414
Rp415
(dp416
bg2
(I49
tp417
Rp418
(dp419
btp420
Rp421
(dp422
bag1
(g2
(I26
tp423
Rp424
(dp425
bg2
(I450
tp426
Rp427
(dp428
btp429
Rp430
(dp431
bag1
(g2
(I149
tp432
Rp433
(dp434
bg2
(I385
tp435
Rp436
(dp437
btp438
Rp439
(dp440
bag1
(g2
(I187
tp441
Rp442
(dp443
bg2
(I728
tp444
Rp445
(dp446
btp447
Rp448
(dp449
bag1
(g2
(I797
tp450
Rp451
(dp452
bg2
(I112
tp453
Rp454
(dp455
btp456
Rp457
(dp458
bag1
(g2
(I12
tp459
Rp460
(dp461
bg2
(I258
tp462
Rp463
(dp464
btp465
Rp466
(dp467
bag1
(g277
g2
(I546
tp468
Rp469
(dp470
btp471
Rp472
(dp473
bag1
(g2
(I353
tp474
Rp475
(dp476
bg2
(I171
tp477
Rp478
(dp479
btp480
Rp481
(dp482
bag1
(g2
(I537
tp483
Rp484
(dp485
bg2
(I60
tp486
Rp487
(dp488
btp489
Rp490
(dp491
bag1
(g2
(I310
tp492
Rp493
(dp494
bg2
(I404
tp495
Rp496
(dp497
btp498
Rp499
(dp500
bag1
(g2
(I262
tp501
Rp502
(dp503
bg2
(I924
tp504
Rp505
(dp506
btp507
Rp508
(dp509
bag1
(g2
(I535
tp510
Rp511
(dp512
bg2
(I851
tp513
Rp514
(dp515
btp516
Rp517
(dp518
bag1
(g2
(I50
tp519
Rp520
(dp521
bg2
(I207
tp522
Rp523
(dp524
btp525
Rp526
(dp527
bag1
(g2
(I849
tp528
Rp529
(dp530
bg2
(I42
tp531
Rp532
(dp533
btp534
Rp535
(dp536
bag1
(g2
(I433
tp537
Rp538
(dp539
bg2
(I374
tp540
Rp541
(dp542
btp543
Rp544
(dp545
bag1
(g2
(I508
tp546
Rp547
(dp548
bg2
(I125
tp549
Rp550
(dp551
btp552
Rp553
(dp554
bag1
(g2
(I614
tp555
Rp556
(dp557
bg2
(I631
tp558
Rp559
(dp560
btp561
Rp562
(dp563
bag1
(g2
(I148
tp564
Rp565
(dp566
bg67
tp567
Rp568
(dp569
bag1
(g2
(I611
tp570
Rp571
(dp572
bg2
(I940
tp573
Rp574
(dp575
btp576
Rp577
(dp578
bag1
(g2
(I593
tp579
Rp580
(dp581
bg2
(I99
tp582
Rp583
(dp584
btp585
Rp586
(dp587
bag1
(g2
(I687
tp588
Rp589
(dp590
bg2
(I246
tp591
Rp592
(dp593
btp594
Rp595
(dp596
bag1
(g2
(I415
tp597
Rp598
(dp599
bg475
tp600
Rp601
(dp602
bag1
(g2
(I424
tp603
Rp604
(dp605
bg2
(I763
tp606
Rp607
(dp608
btp609
Rp610
(dp611
bag1
(g367
g2
(I75
tp612
Rp613
(dp614
btp615
Rp616
(dp617
bag1
(g2
(I4
tp618
Rp619
(dp620
bg2
(I102
tp621
Rp622
(dp623
btp624
Rp625
(dp626
bag1
(g2
(I824
tp627
Rp628
(dp629
bg2
(I284
tp630
Rp631
(dp632
btp633
Rp634
(dp635
bag1
(g2
(I564
tp636
Rp637
(dp638
bg130
tp639
Rp640
(dp641
bag1
(g2
(I996
tp642
Rp643
(dp644
bg2
(I575
tp645
Rp646
(dp647
btp648
Rp649
(dp650
bag1
(g2
(I599
tp651
Rp652
(dp653
bg2
(I912
tp654
Rp655
(dp656
btp657
Rp658
(dp659
bag1
(g2
(I36
tp660
Rp661
(dp662
bg2
(I951
tp663
Rp664
(dp665
btp666
Rp667
(dp668
bag1
(g2
(I852
tp669
Rp670
(dp671
bg2
(I509
tp672
Rp673
(dp674
btp675
Rp676
(dp677
bag1
(g2
(I838
tp678
Rp679
(dp680
bg2
(I124
tp681
Rp682
(dp683
btp684
Rp685
(dp686
bag1
(g2
(I700
tp687
Rp688
(dp689
bg2
(I78
tp690
Rp691
(dp692
btp693
Rp694
(dp695
bag1
(g2
(I175
tp696
Rp697
(dp698
bg2
(I16
tp699
Rp700
(dp701
btp702
Rp703
(dp704
bag1
(g2
(I400
tp705
Rp706
(dp707
bg265
tp708
Rp709
(dp710
bag1
(g2
(I382
tp711
Rp712
(dp713
bg2
(I183
tp714
Rp715
(dp716
btp717
Rp718
(dp719
bag1
(g2
(I325
tp720
Rp721
(dp722
bg94
tp723
Rp724
(dp725
bag1
(g2
(I331
tp726
Rp727
(dp728
bg2
(I860
tp729
Rp730
(dp731
btp732
Rp733
(dp734
bag1
(g268
g2
(I499
tp735
Rp736
(dp737
btp738
Rp739
(dp740
bag1
(g2
(I280
tp741
Rp742
(dp743
bg2
(I865
tp744
Rp745
(dp746
btp747
Rp748
(dp749
bag1
(g2
(I781
tp750
Rp751
(dp752
bg2
(I955
tp753
Rp754
(dp755
btp756
Rp757
(dp758
bag1
(g2
(I833
tp759
Rp760
(dp761
bg2
(I56
tp762
Rp763
(dp764
btp765
Rp766
(dp767
bag1
(g2
(I393
tp768
Rp769
(dp770
bg256
tp771
Rp772
(dp773
bag1
(g2
(I776
tp774
Rp775
(dp776
bg2
(I558
tp777
Rp778
(dp779
btp780
Rp781
(dp782
bag1
(g2
(I68
tp783
Rp784
(dp785
bg2
(I142
tp786
Rp787
(dp788
btp789
Rp790
(dp791
bag1
(g2
(I594
tp792
Rp793
(dp794
bg2
(I300
tp795
Rp796
(dp797
btp798
Rp799
(dp800
bag1
(g2
(I726
tp801
Rp802
(dp803
bg301
tp804
Rp805
(dp806
bag1
(g2
(I173
tp807
Rp808
(dp809
bg2
(I365
tp810
Rp811
(dp812
btp813
Rp814
(dp815
bag1
(g2
(I947
tp816
Rp817
(dp818
bg2
(I813
tp819
Rp820
(dp821
btp822
Rp823
(dp824
bag1
(g2
(I742
tp825
Rp826
(dp827
bg2
(I270
tp828
Rp829
(dp830
btp831
Rp832
(dp833
bag1
(g2
(I997
tp834
Rp835
(dp836
bg2
(I454
tp837
Rp838
(dp839
btp840
Rp841
(dp842
bag1
(g2
(I563
tp843
Rp844
(dp845
bg520
tp846
Rp847
(dp848
bag1
(g2
(I639
tp849
Rp850
(dp851
bg2
(I293
tp852
Rp853
(dp854
btp855
Rp856
(dp857
bag1
(g2
(I579
tp858
Rp859
(dp860
bg2
(I875
tp861
Rp862
(dp863
btp864
Rp865
(dp866
bag1
(g2
(I868
tp867
Rp868
(dp869
bg2
(I919
tp870
Rp871
(dp872
btp873
Rp874
(dp875
bag1
(g2
(I840
tp876
Rp877
(dp878
bg2
(I227
tp879
Rp880
(dp881
btp882
Rp883
(dp884
bag1
(g2
(I922
tp885
Rp886
(dp887
bg139
tp888
Rp889
(dp890
bag1
(g2
(I638
tp891
Rp892
(dp893
bg598
tp894
Rp895
(dp896
bag1
(g2
(I59
tp897
Rp898
(dp899
bg2
(I200
tp900
Rp901
(dp902
btp903
Rp904
(dp905
bag1
(g2
(I138
tp906
Rp907
(dp908
bg2
(I351
tp909
Rp910
(dp911
btp912
Rp913
(dp914
bag1
(g2
(I93
tp915
Rp916
(dp917
bg2
(I995
tp918
Rp919
(dp920
btp921
Rp922
(dp923
bag1
(g2
(I269
tp924
Rp925
(dp926
bg2
(I314
tp927
Rp928
(dp929
btp930
Rp931
(dp932
bag1
(g2
(I828
tp933
Rp934
(dp935
bg2
(I685
tp936
Rp937
(dp938
btp939
Rp940
(dp941
bag1
(g178
g2
(I394
tp942
Rp943
(dp944
btp945
Rp946
(dp947
bag1
(g2
(I334
tp948
Rp949
(dp950
bg2
(I177
tp951
Rp952
(dp953
btp954
Rp955
(dp956
bag1
(g2
(I545
tp957
Rp958
(dp959
bg2
(I846
tp960
Rp961
(dp962
btp963
Rp964
(dp965
bag1
(g2
(I465
tp966
Rp967
(dp968
bg2
(I792
tp969
Rp970
(dp971
btp972
Rp973
(dp974
bag1
(g2
(I707
tp975
Rp976
(dp977
bg2
(I923
tp978
Rp979
(dp980
btp981
Rp982
(dp983
bag1
(g2
(I553
tp984
Rp985
(dp986
bg2
(I654
tp987
Rp988
(dp989
btp990
Rp991
(dp992
bag1
(g2
(I534
tp993
Rp994
(dp995
bg985
tp996
Rp997
(dp998
bag1
(g61
g2
(I692
tp999
Rp1000
(dp1001
btp1002
Rp1003
(dp1004
bag1
(g2
(I359
tp1005
Rp1006
(dp1007
bg2
(I69
tp1008
Rp1009
(dp1010
btp1011
Rp1012
(dp1013
bag1
(g250
g2
(I107
tp1014
Rp1015
(dp1016
btp1017
Rp1018
(dp1019
bag1
(g2
(I570
tp1020
Rp1021
(dp1022
bg2
(I479
tp1023
Rp1024
(dp1025
btp1026
Rp1027
(dp1028
bag1
(g2
(I362
tp1029
Rp1030
(dp1031
bg2
(I582
tp1032
Rp1033
(dp1034
btp1035
Rp1036
(dp1037
bag1
(g2
(I910
tp1038
Rp1039
(dp1040
bg2
(I766
tp1041
Rp1042
(dp1043
btp1044
Rp1045
(dp1046
bag1
(g2
(I903
tp1047
Rp1048
(dp1049
bg58
tp1050
Rp1051
(dp1052
bag1
(g16
g2
(I680
tp1053
Rp1054
(dp1055
btp1056
Rp1057
(dp1058
bag1
(g796
g2
(I791
tp1059
Rp1060
(dp1061
btp1062
Rp1063
(dp1064
bag1
(g2
(I468
tp1065
Rp1066
(dp1067
bg2
(I740
tp1068
Rp1069
(dp1070
btp1071
Rp1072
(dp1073
bag1
(g754
g2
(I267
tp1074
Rp1075
(dp1076
btp1077
Rp1078
(dp1079
bag1
(g2
(I189
tp1080
Rp1081
(dp1082
bg2
(I114
tp1083
Rp1084
(dp1085
btp1086
Rp1087
(dp1088
bag1
(g2
(I253
tp1089
Rp1090
(dp1091
bg2
(I562
tp1092
Rp1093
(dp1094
btp1095
Rp1096
(dp1097
bag1
(g736
g2
(I986
tp1098
Rp1099
(dp1100
btp1101
Rp1102
(dp1103
bag1
(g2
(I103
tp1104
Rp1105
(dp1106
bg2
(I45
tp1107
Rp1108
(dp1109
btp1110
Rp1111
(dp1112
bag1
(g418
g2
(I459
tp1113
Rp1114
(dp1115
btp1116
Rp1117
(dp1118
bag1
(g2
(I747
tp1119
Rp1120
(dp1121
bg2
(I206
tp1122
Rp1123
(dp1124
btp1125
Rp1126
(dp1127
bag1
(g2
(I86
tp1128
Rp1129
(dp1130
bg2
(I82
tp1131
Rp1132
(dp1133
btp1134
Rp1135
(dp1136
bag1
(g1123
g2
(I396
tp1137
Rp1138
(dp1139
btp1140
Rp1141
(dp1142
bag1
(g2
(I722
tp1143
Rp1144
(dp1145
bg2
(I637
tp1146
Rp1147
(dp1148
btp1149
Rp1150
(dp1151
bag1
(g2
(I844
tp1152
Rp1153
(dp1154
bg2
(I519
tp1155
Rp1156
(dp1157
btp1158
Rp1159
(dp1160
bag1
(g2
(I885
tp1161
Rp1162
(dp1163
bg2
(I419
tp1164
Rp1165
(dp1166
btp1167
Rp1168
(dp1169
bag1
(g2
(I709
tp1170
Rp1171
(dp1172
bg2
(I967
tp1173
Rp1174
(dp1175
btp1176
Rp1177
(dp1178
bag1
(g2
(I856
tp1179
Rp1180
(dp1181
bg2
(I841
tp1182
Rp1183
(dp1184
btp1185
Rp1186
(dp1187
bag1
(g2
(I379
tp1188
Rp1189
(dp1190
bg2
(I935
tp1191
Rp1192
(dp1193
btp1194
Rp1195
(dp1196
bag1
(g2
(I121
tp1197
Rp1198
(dp1199
bg2
(I32
tp1200
Rp1201
(dp1202
btp1203
Rp1204
(dp1205
bag1
(g2
(I153
tp1206
Rp1207
(dp1208
bg2
(I489
tp1209
Rp1210
(dp1211
btp1212
Rp1213
(dp1214
bag1
(g2
(I119
tp1215
Rp1216
(dp1217
bg697
tp1218
Rp1219
(dp1220
bag1
(g2
(I517
tp1221
Rp1222
(dp1223
bg2
(I752
tp1224
Rp1225
(dp1226
btp1227
Rp1228
(dp1229
bag1
(g2
(I699
tp1230
Rp1231
(dp1232
bg2
(I847
tp1233
Rp1234
(dp1235
btp1236
Rp1237
(dp1238
bag1
(g691
g2
(I920
tp1239
Rp1240
(dp1241
btp1242
Rp1243
(dp1244
bag1
(g928
g2
(I478
tp1245
Rp1246
(dp1247
btp1248
Rp1249
(dp1250
bag1
(g2
(I104
tp1251
Rp1252
(dp1253
bg2
(I368
tp1254
Rp1255
(dp1256
btp1257
Rp1258
(dp1259
bag1
(g2
(I667
tp1260
Rp1261
(dp1262
bg2
(I690
tp1263
Rp1264
(dp1265
btp1266
Rp1267
(dp1268
bag1
(g2
(I630
tp1269
Rp1270
(dp1271
bg2
(I271
tp1272
Rp1273
(dp1274
btp1275
Rp1276
(dp1277
bag1
(g2
(I384
tp1278
Rp1279
(dp1280
bg2
(I164
tp1281
Rp1282
(dp1283
btp1284
Rp1285
(dp1286
bag1
(g2
(I219
tp1287
Rp1288
(dp1289
bg2
(I160
tp1290
Rp1291
(dp1292
btp1293
Rp1294
(dp1295
bag1
(g2
(I506
tp1296
Rp1297
(dp1298
bg1048
tp1299
Rp1300
(dp1301
bag1
(g532
g2
(I905
tp1302
Rp1303
(dp1304
btp1305
Rp1306
(dp1307
bag1
(g2
(I455
tp1308
Rp1309
(dp1310
bg2
(I199
tp1311
Rp1312
(dp1313
btp1314
Rp1315
(dp1316
bag1
(g2
(I588
tp1317
Rp1318
(dp1319
bg2
(I991
tp1320
Rp1321
(dp1322
btp1323
Rp1324
(dp1325
bag1
(g241
g2
(I79
tp1326
Rp1327
(dp1328
btp1329
Rp1330
(dp1331
bag1
(g2
(I621
tp1332
Rp1333
(dp1334
bg2
(I23
tp1335
Rp1336
(dp1337
btp1338
Rp1339
(dp1340
bag1
(g1327
g2
(I669
tp1341
Rp1342
(dp1343
btp1344
Rp1345
(dp1346
ba.