(lp0
csympy.geometry.point
Point2D
p1
(csympy.core.numbers
Integer
p2
(I585
tp3
Rp4
(dp5
bg2
(I839
tp6
Rp7
(dp8
btp9
Rp10
(dp11
bag1
(g2
(I54
tp12
Rp13
(dp14
bg2
(I110
tp15
Rp16
(dp17
btp18
Rp19
(dp20
bag1
(g2
(I10
tp21
Rp22
(dp23
bg2
(I182
tp24
Rp25
(dp26
btp27
Rp28
(dp29
bag1
(g2
(I617
tp30
Rp31
(dp32
bg2
(I279
tp33
Rp34
(dp35
btp36
Rp37
(dp38
bag1
(g2
(I367
tp39
Rp40
(dp41
bg2
(I187
tp42
Rp43
(dp44
btp45
Rp46
(dp47
bag1
(g2
(I458
tp48
Rp49
(dp50
bg2
(I639
tp51
Rp52
(dp53
btp54
Rp55
(dp56
bag1
(g2
(I955
tp57
Rp58
(dp59
bg2
(I661
tp60
Rp61
(dp62
btp63
Rp64
(dp65
bag1
(g2
(I910
tp66
Rp67
(dp68
bg2
(I527
tp69
Rp70
(dp71
btp72
Rp73
(dp74
bag1
(g2
(I673
tp75
Rp76
(dp77
bg2
(I206
tp78
Rp79
(dp80
btp81
Rp82
(dp83
bag1
(g2
(I557
tp84
Rp85
(dp86
bg2
(I719
tp87
Rp88
(dp89
btp90
Rp91
(dp92
bag1
(g2
(I663
tp93
Rp94
(dp95
bg2
(I462
tp96
Rp97
(dp98
btp99
Rp100
(dp101
bag1
(g2
(I371
tp102
Rp103
(dp104
bg2
(I532
tp105
Rp106
(dp107
btp108
Rp109
(dp110
bag1
(g2
(I798
tp111
Rp112
(dp113
bg2
(I222
tp114
Rp115
(dp116
btp117
Rp118
(dp119
bag1
(g2
(I773
tp120
Rp121
(dp122
bg2
(I616
tp123
Rp124
(dp125
btp126
Rp127
(dp128
bag1
(g2
(I5
tp129
Rp130
(dp131
bg2
(I20
tp132
Rp133
(dp134
btp135
Rp136
(dp137
bag1
(g2
(I198
tp138
Rp139
(dp140
bg2
(I132
tp141
Rp142
(dp143
btp144
Rp145
(dp146
bag1
(g70
g2
(I737
tp147
Rp148
(dp149
btp150
Rp151
(dp152
bag1
(g2
(I45
tp153
Rp154
(dp155
bg2
(I666
tp156
Rp157
(dp158
btp159
Rp160
(dp161
bag1
(g2
(I172
tp162
Rp163
(dp164
bg2
(I664
tp165
Rp166
(dp167
btp168
Rp169
(dp170
bag1
(g2
(I880
tp171
Rp172
(dp173
bg2
(I753
tp174
Rp175
(dp176
btp177
Rp178
(dp179
bag1
(g2
(I524
tp180
Rp181
(dp182
bg2
(I668
tp183
Rp184
(dp185
btp186
Rp187
(dp188
bag1
(g2
(I992
tp189
Rp190
(dp191
bg2
(I660
tp192
Rp193
(dp194
btp195
Rp196
(dp197
bag1
(g2
(I972
tp198
Rp199
(dp200
bg2
(I733
tp201
Rp202
(dp203
btp204
Rp205
(dp206
bag1
(g2
(I928
tp207
Rp208
(dp209
bg2
(I163
tp210
Rp211
(dp212
btp213
Rp214
(dp215
bag1
(g2
(I442
tp216
Rp217
(dp218
bg2
(I135
tp219
Rp220
(dp221
btp222
Rp223
(dp224
bag1
(g2
(I117
tp225
Rp226
(dp227
bg2
(I309
tp228
Rp229
(dp230
btp231
Rp232
(dp233
bag1
(g2
(I295
tp234
Rp235
(dp236
bg2
(I50
tp237
Rp238
(dp239
btp240
Rp241
(dp242
bag1
(g2
(I231
tp243
Rp244
(dp245
bg2
(I590
tp246
Rp247
(dp248
btp249
Rp250
(dp251
bag1
(g2
(I255
tp252
Rp253
(dp254
bg2
(I190
tp255
Rp256
(dp257
btp258
Rp259
(dp260
bag1
(g2
(I987
tp261
Rp262
(dp263
bg2
(I409
tp264
Rp265
(dp266
btp267
Rp268
(dp269
bag1
(g2
(I650
tp270
Rp271
(dp272
bg2
(I449
tp273
Rp274
(dp275
btp276
Rp277
(dp278
bag1
(g2
(I91
tp279
Rp280
(dp281
bg2
(I961
tp282
Rp283
(dp284
btp285
Rp286
(dp287
bag1
(g2
(I124
tp288
Rp289
(dp290
bg2
(I633
tp291
Rp292
(dp293
btp294
Rp295
(dp296
bag1
(g2
(I967
tp297
Rp298
(dp299
bg181
tp300
Rp301
(dp302
bag1
(g2
(I802
tp303
Rp304
(dp305
bg2
(I144
tp306
Rp307
(dp308
btp309
Rp310
(dp311
bag1
(g52
g2
(I732
tp312
Rp313
(dp314
btp315
Rp316
(dp317
bag1
(g2
(I33
tp318
Rp319
(dp320
bg2
(I205
tp321
Rp322
(dp323
btp324
Rp325
(dp326
bag1
(g283
g2
(I682
tp327
Rp328
(dp329
btp330
Rp331
(dp332
bag1
(g2
(I396
tp333
Rp334
(dp335
bg2
(I90
tp336
Rp337
(dp338
btp339
Rp340
(dp341
bag1
(g2
(I143
tp342
Rp343
(dp344
bg2
(I79
tp345
Rp346
(dp347
btp348
Rp349
(dp350
bag1
(g2
(I968
tp351
Rp352
(dp353
bg2
(I443
tp354
Rp355
(dp356
btp357
Rp358
(dp359
bag1
(g2
(I680
tp360
Rp361
(dp362
bg2
(I39
tp363
Rp364
(dp365
btp366
Rp367
(dp368
bag1
(g2
(I105
tp369
Rp370
(dp371
bg2
(I104
tp372
Rp373
(dp374
btp375
Rp376
(dp377
bag1
(g2
(I511
tp378
Rp379
(dp380
bg2
(I369
tp381
Rp382
(dp383
btp384
Rp385
(dp386
bag1
(g307
g2
(I425
tp387
Rp388
(dp389
btp390
Rp391
(dp392
bag1
(g2
(I351
tp393
Rp394
(dp395
bg2
(I665
tp396
Rp397
(dp398
btp399
Rp400
(dp401
bag1
(g2
(I979
tp402
Rp403
(dp404
bg2
(I826
tp405
Rp406
(dp407
btp408
Rp409
(dp410
bag1
(g2
(I35
tp411
Rp412
(dp413
bg2
(I327
tp414
Rp415
(dp416
btp417
Rp418
(dp419
bag1
(g2
(I672
tp420
Rp421
(dp422
bg2
(I253
tp423
Rp424
(dp425
btp426
Rp427
(dp428
bag1
(g2
(I971
tp429
Rp430
(dp431
bg2
(I808
tp432
Rp433
(dp434
btp435
Rp436
(dp437
bag1
(g2
(I549
tp438
Rp439
(dp440
bg2
(I111
tp441
Rp442
(dp443
btp444
Rp445
(dp446
bag1
(g2
(I883
tp447
Rp448
(dp449
bg2
(I619
tp450
Rp451
(dp452
btp453
Rp454
(dp455
bag1
(g2
(I211
tp456
Rp457
(dp458
bg2
(I662
tp459
Rp460
(dp461
btp462
Rp463
(dp464
bag1
(g2
(I845
tp465
Rp466
(dp467
bg2
(I517
tp468
Rp469
(dp470
btp471
Rp472
(dp473
bag1
(g2
(I127
tp474
Rp475
(dp476
bg2
(I433
tp477
Rp478
(dp479
btp480
Rp481
(dp482
bag1
(g2
(I679
tp483
Rp484
(dp485
bg2
(I41
tp486
Rp487
(dp488
btp489
Rp490
(dp491
bag1
(g2
(I879
tp492
Rp493
(dp494
bg2
(I242
tp495
Rp496
(dp497
btp498
Rp499
(dp500
bag1
(g2
(I529
tp501
Rp502
(dp503
bg2
(I461
tp504
Rp505
(dp506
btp507
Rp508
(dp509
bag1
(g25
g2
(I420
tp510
Rp511
(dp512
btp513
Rp514
(dp515
bag1
(g2
(I881
tp516
Rp517
(dp518
bg2
(I581
tp519
Rp520
(dp521
btp522
Rp523
(dp524
bag1
(g2
(I915
tp525
Rp526
(dp527
bg2
(I378
tp528
Rp529
(dp530
btp531
Rp532
(dp533
bag1
(g2
(I237
tp534
Rp535
(dp536
bg2
(I641
tp537
Rp538
(dp539
btp540
Rp541
(dp542
bag1
(g2
(I573
tp543
Rp544
(dp545
bg2
(I550
tp546
Rp547
(dp548
btp549
Rp550
(dp551
bag1
(g238
g394
tp552
Rp553
(dp554
bag1
(g2
(I387
tp555
Rp556
(dp557
bg2
(I884
tp558
Rp559
(dp560
btp561
Rp562
(dp563
bag1
(g2
(I92
tp564
Rp565
(dp566
bg2
(I623
tp567
Rp568
(dp569
btp570
Rp571
(dp572
bag1
(g2
(I488
tp573
Rp574
(dp575
bg2
(I707
tp576
Rp577
(dp578
btp579
Rp580
(dp581
bag1
(g2
(I298
tp582
Rp583
(dp584
bg2
(I583
tp585
Rp586
(dp587
btp588
Rp589
(dp590
bag1
(g2
(I555
tp591
Rp592
(dp593
bg2
(I922
tp594
Rp595
(dp596
btp597
Rp598
(dp599
bag1
(g2
(I899
tp600
Rp601
(dp602
bg484
tp603
Rp604
(dp605
bag1
(g2
(I307
tp606
Rp607
(dp608
bg2
(I921
tp609
Rp610
(dp611
btp612
Rp613
(dp614
bag1
(g2
(I238
tp615
Rp616
(dp617
bg2
(I588
tp618
Rp619
(dp620
btp621
Rp622
(dp623
bag1
(g2
(I576
tp624
Rp625
(dp626
bg2
(I510
tp627
Rp628
(dp629
btp630
Rp631
(dp632
bag1
(g2
(I758
tp633
Rp634
(dp635
bg2
(I316
tp636
Rp637
(dp638
btp639
Rp640
(dp641
bag1
(g2
(I982
tp642
Rp643
(dp644
bg2
(I312
tp645
Rp646
(dp647
btp648
Rp649
(dp650
bag1
(g2
(I607
tp651
Rp652
(dp653
bg2
(I398
tp654
Rp655
(dp656
btp657
Rp658
(dp659
bag1
(g2
(I247
tp660
Rp661
(dp662
bg2
(I547
tp663
Rp664
(dp665
btp666
Rp667
(dp668
bag1
(g2
(I944
tp669
Rp670
(dp671
bg475
tp672
Rp673
(dp674
bag1
(g2
(I194
tp675
Rp676
(dp677
bg2
(I362
tp678
Rp679
(dp680
btp681
Rp682
(dp683
bag1
(g2
(I87
tp684
Rp685
(dp686
bg2
(I23
tp687
Rp688
(dp689
btp690
Rp691
(dp692
bag1
(g2
(I319
tp693
Rp694
(dp695
bg304
tp696
Rp697
(dp698
bag1
(g2
(I678
tp699
Rp700
(dp701
bg2
(I876
tp702
Rp703
(dp704
btp705
Rp706
(dp707
bag1
(g2
(I887
tp708
Rp709
(dp710
bg2
(I150
tp711
Rp712
(dp713
btp714
Rp715
(dp716
bag1
(g2
(I497
tp717
Rp718
(dp719
bg2
(I539
tp720
Rp721
(dp722
btp723
Rp724
(dp725
bag1
(g2
(I545
tp726
Rp727
(dp728
bg2
(I865
tp729
Rp730
(dp731
btp732
Rp733
(dp734
bag1
(g2
(I219
tp735
Rp736
(dp737
bg2
(I702
tp738
Rp739
(dp740
btp741
Rp742
(dp743
bag1
(g2
(I31
tp744
Rp745
(dp746
bg448
tp747
Rp748
(dp749
bag1
(g2
(I191
tp750
Rp751
(dp752
bg2
(I180
tp753
Rp754
(dp755
btp756
Rp757
(dp758
bag1
(g2
(I184
tp759
Rp760
(dp761
bg2
(I229
tp762
Rp763
(dp764
btp765
Rp766
(dp767
bag1
(g2
(I647
tp768
Rp769
(dp770
bg2
(I874
tp771
Rp772
(dp773
btp774
Rp775
(dp776
bag1
(g2
(I234
tp777
Rp778
(dp779
bg565
tp780
Rp781
(dp782
bag1
(g2
(I287
tp783
Rp784
(dp785
bg2
(I315
tp786
Rp787
(dp788
btp789
Rp790
(dp791
bag1
(g2
(I14
tp792
Rp793
(dp794
bg2
(I597
tp795
Rp796
(dp797
btp798
Rp799
(dp800
bag1
(g2
(I729
tp801
Rp802
(dp803
bg2
(I900
tp804
Rp805
(dp806
btp807
Rp808
(dp809
bag1
(g2
(I363
tp810
Rp811
(dp812
bg2
(I988
tp813
Rp814
(dp815
btp816
Rp817
(dp818
bag1
(g2
(I813
tp819
Rp820
(dp821
bg2
(I320
tp822
Rp823
(dp824
btp825
Rp826
(dp827
bag1
(g2
(I494
tp828
Rp829
(dp830
bg2
(I170
tp831
Rp832
(dp833
btp834
Rp835
(dp836
bag1
(g2
(I254
tp837
Rp838
(dp839
bg2
(I671
tp840
Rp841
(dp842
btp843
Rp844
(dp845
bag1
(g2
(I755
tp846
Rp847
(dp848
bg2
(I603
tp849
Rp850
(dp851
btp852
Rp853
(dp854
bag1
(g2
(I566
tp855
Rp856
(dp857
bg2
(I993
tp858
Rp859
(dp860
btp861
Rp862
(dp863
bag1
(g2
(I674
tp864
Rp865
(dp866
bg2
(I335
tp867
Rp868
(dp869
btp870
Rp871
(dp872
bag1
(g2
(I797
tp873
Rp874
(dp875
bg2
(I689
tp876
Rp877
(dp878
btp879
Rp880
(dp881
bag1
(g505
g199
tp882
Rp883
(dp884
bag1
(g2
(I906
tp885
Rp886
(dp887
bg2
(I380
tp888
Rp889
(dp890
btp891
Rp892
(dp893
bag1
(g2
(I496
tp894
Rp895
(dp896
bg2
(I621
tp897
Rp898
(dp899
btp900
Rp901
(dp902
bag1
(g2
(I464
tp903
Rp904
(dp905
bg2
(I146
tp906
Rp907
(dp908
btp909
Rp910
(dp911
bag1
(g2
(I859
tp912
Rp913
(dp914
bg67
tp915
Rp916
(dp917
bag1
(g2
(I366
tp918
Rp919
(dp920
bg2
(I139
tp921
Rp922
(dp923
btp924
Rp925
(dp926
bag1
(g2
(I632
tp927
Rp928
(dp929
bg2
(I326
tp930
Rp931
(dp932
btp933
Rp934
(dp935
bag1
(g2
(I743
tp936
Rp937
(dp938
bg2
(I482
tp939
Rp940
(dp941
btp942
Rp943
(dp944
bag1
(g2
(I22
tp945
Rp946
(dp947
bg2
(I978
tp948
Rp949
(dp950
btp951
Rp952
(dp953
bag1
(g2
(I875
tp954
Rp955
(dp956
bg262
tp957
Rp958
(dp959
bag1
(g2
(I28
tp960
Rp961
(dp962
bg2
(I864
tp963
Rp964
(dp965
btp966
Rp967
(dp968
bag1
(g2
(I493
tp969
Rp970
(dp971
bg2
(I863
tp972
Rp973
(dp974
btp975
Rp976
(dp977
bag1
(g2
(I804
tp978
Rp979
(dp980
bg2
(I9
tp981
Rp982
(dp983
btp984
Rp985
(dp986
bag1
(g2
(I730
tp987
Rp988
(dp989
bg2
(I438
tp990
Rp991
(dp992
btp993
Rp994
(dp995
bag1
(g2
(I932
tp996
Rp997
(dp998
bg2
(I342
tp999
Rp1000
(dp1001
btp1002
Rp1003
(dp1004
bag1
(g2
(I659
tp1005
Rp1006
(dp1007
bg2
(I424
tp1008
Rp1009
(dp1010
btp1011
Rp1012
(dp1013
bag1
(g2
(I970
tp1014
Rp1015
(dp1016
bg2
(I161
tp1017
Rp1018
(dp1019
btp1020
Rp1021
(dp1022
bag1
(g2
(I622
tp1023
Rp1024
(dp1025
bg2
(I749
tp1026
Rp1027
(dp1028
btp1029
Rp1030
(dp1031
bag1
(g2
(I240
tp1032
Rp1033
(dp1034
bg2
(I536
tp1035
Rp1036
(dp1037
btp1038
Rp1039
(dp1040
bag1
(g2
(I430
tp1041
Rp1042
(dp1043
bg2
(I444
tp1044
Rp1045
(dp1046
btp1047
Rp1048
(dp1049
bag1
(g2
(I703
tp1050
Rp1051
(dp1052
bg2
(I512
tp1053
Rp1054
(dp1055
btp1056
Rp1057
(dp1058
bag1
(g2
(I854
tp1059
Rp1060
(dp1061
bg2
(I605
tp1062
Rp1063
(dp1064
btp1065
Rp1066
(dp1067
bag1
(g2
(I868
tp1068
Rp1069
(dp1070
bg2
(I544
tp1071
Rp1072
(dp1073
btp1074
Rp1075
(dp1076
bag1
(g2
(I113
tp1077
Rp1078
(dp1079
bg2
(I203
tp1080
Rp1081
(dp1082
btp1083
Rp1084
(dp1085
bag1
(g2
(I411
tp1086
Rp1087
(dp1088
bg2
(I559
tp1089
Rp1090
(dp1091
btp1092
Rp1093
(dp1094
bag1
(g2
(I349
tp1095
Rp1096
(dp1097
bg2
(I185
tp1098
Rp1099
(dp1100
btp1101
Rp1102
(dp1103
bag1
(g2
(I902
tp1104
Rp1105
(dp1106
bg2
(I976
tp1107
Rp1108
(dp1109
btp1110
Rp1111
(dp1112
bag1
(g2
(I174
tp1113
Rp1114
(dp1115
bg2
(I909
tp1116
Rp1117
(dp1118
btp1119
Rp1120
(dp1121
bag1
(g2
(I822
tp1122
Rp1123
(dp1124
bg2
(I698
tp1125
Rp1126
(dp1127
btp1128
Rp1129
(dp1130
bag1
(g2
(I811
tp1131
Rp1132
(dp1133
bg2
(I568
tp1134
Rp1135
(dp1136
btp1137
Rp1138
(dp1139
bag1
(g2
(I34
tp1140
Rp1141
(dp1142
bg2
(I384
tp1143
Rp1144
(dp1145
btp1146
Rp1147
(dp1148
bag1
(g2
(I895
tp1149
Rp1150
(dp1151
bg2
(I984
tp1152
Rp1153
(dp1154
btp1155
Rp1156
(dp1157
bag1
(g2
(I505
tp1158
Rp1159
(dp1160
bg2
(I794
tp1161
Rp1162
(dp1163
btp1164
Rp1165
(dp1166
bag1
(g397
g2
(I872
tp1167
Rp1168
(dp1169
btp1170
Rp1171
(dp1172
bag1
(g2
(I608
tp1173
Rp1174
(dp1175
bg2
(I463
tp1176
Rp1177
(dp1178
btp1179
Rp1180
(dp1181
bag1
(g2
(I766
tp1182
Rp1183
(dp1184
bg2
(I692
tp1185
Rp1186
(dp1187
btp1188
Rp1189
(dp1190
bag1
(g124
g2
(I119
tp1191
Rp1192
(dp1193
btp1194
Rp1195
(dp1196
bag1
(g2
(I575
tp1197
Rp1198
(dp1199
bg2
(I368
tp1200
Rp1201
(dp1202
btp1203
Rp1204
(dp1205
bag1
(g2
(I624
tp1206
Rp1207
(dp1208
bg2
(I293
tp1209
Rp1210
(dp1211
btp1212
Rp1213
(dp1214
bag1
(g2
(I465
tp1215
Rp1216
(dp1217
bg736
tp1218
Rp1219
(dp1220
bag1
(g2
(I216
tp1221
Rp1222
(dp1223
bg1132
tp1224
Rp1225
(dp1226
bag1
(g2
(I73
tp1227
Rp1228
(dp1229
bg2
(I303
tp1230
Rp1231
(dp1232
btp1233
Rp1234
(dp1235
bag1
(g2
(I251
tp1236
Rp1237
(dp1238
bg2
(I696
tp1239
Rp1240
(dp1241
btp1242
Rp1243
(dp1244
bag1
(g2
(I776
tp1245
Rp1246
(dp1247
bg2
(I538
tp1248
Rp1249
(dp1250
btp1251
Rp1252
(dp1253
bag1
(g2
(I995
tp1254
Rp1255
(dp1256
bg2
(I305
tp1257
Rp1258
(dp1259
btp1260
Rp1261
(dp1262
bag1
(g2
(I64
tp1263
Rp1264
(dp1265
bg2
(I24
tp1266
Rp1267
(dp1268
btp1269
Rp1270
(dp1271
bag1
(g2
(I12
tp1272
Rp1273
(dp1274
bg2
(I534
tp1275
Rp1276
(dp1277
btp1278
Rp1279
(dp1280
bag1
(g2
(I122
tp1281
Rp1282
(dp1283
bg2
(I480
tp1284
Rp1285
(dp1286
btp1287
Rp1288
(dp1289
bag1
(g1126
g2
(I138
tp1290
Rp1291
(dp1292
btp1293
Rp1294
(dp1295
bag1
(g2
(I963
tp1296
Rp1297
(dp1298
bg2
(I724
tp1299
Rp1300
(dp1301
btp1302
Rp1303
(dp1304
bag1
(g2
(I904
tp1305
Rp1306
(dp1307
bg2
(I478
tp1308
Rp1309
(dp1310
btp1311
Rp1312
(dp1313
bag1
(g2
(I869
tp1314
Rp1315
(dp1316
bg2
(I401
tp1317
Rp1318
(dp1319
btp1320
Rp1321
(dp1322
bag1
(g2
(I348
tp1323
Rp1324
(dp1325
bg2
(I226
tp1326
Rp1327
(dp1328
btp1329
Rp1330
(dp1331
bag1
(g2
(I266
tp1332
Rp1333
(dp1334
bg2
(I207
tp1335
Rp1336
(dp1337
btp1338
Rp1339
(dp1340
bag1
(g2
(I364
tp1341
Rp1342
(dp1343
bg2
(I645
tp1344
Rp1345
(dp1346
btp1347
Rp1348
(dp1349
bag1
(g2
(I728
tp1350
Rp1351
(dp1352
bg2
(I571
tp1353
Rp1354
(dp1355
btp1356
Rp1357
(dp1358
bag1
(g2
(I636
tp1359
Rp1360
(dp1361
bg2
(I856
tp1362
Rp1363
(dp1364
btp1365
Rp1366
(dp1367
bag1
(g43
g2
(I141
tp1368
Rp1369
(dp1370
btp1371
Rp1372
(dp1373
ba.