(lp0
csympy.geometry.point
Point2D
p1
(csympy.core.numbers
Integer
p2
(I257
tp3
Rp4
(dp5
bg2
(I580
tp6
Rp7
(dp8
btp9
Rp10
(dp11
bag1
(g2
(I151
tp12
Rp13
(dp14
bg2
(I819
tp15
Rp16
(dp17
btp18
Rp19
(dp20
bag1
(g2
(I261
tp21
Rp22
(dp23
bg2
(I62
tp24
Rp25
(dp26
btp27
Rp28
(dp29
bag1
(g2
(I727
tp30
Rp31
(dp32
bg2
(I768
tp33
Rp34
(dp35
btp36
Rp37
(dp38
bag1
(g2
(I944
tp39
Rp40
(dp41
bg2
(I821
tp42
Rp43
(dp44
btp45
Rp46
(dp47
bag1
(g2
(I694
tp48
Rp49
(dp50
bg2
(I271
tp51
Rp52
(dp53
btp54
Rp55
(dp56
bag1
(g2
(I776
tp57
Rp58
(dp59
bg2
(I281
tp60
Rp61
(dp62
btp63
Rp64
(dp65
bag1
(g2
(I84
tp66
Rp67
(dp68
bg2
(I926
tp69
Rp70
(dp71
btp72
Rp73
(dp74
bag1
(g2
(I920
tp75
Rp76
(dp77
bg2
(I91
tp78
Rp79
(dp80
btp81
Rp82
(dp83
bag1
(g2
(I982
tp84
Rp85
(dp86
bg2
(I354
tp87
Rp88
(dp89
btp90
Rp91
(dp92
bag1
(g2
(I223
tp93
Rp94
(dp95
bg2
(I311
tp96
Rp97
(dp98
btp99
Rp100
(dp101
bag1
(g2
(I647
tp102
Rp103
(dp104
bg2
(I978
tp105
Rp106
(dp107
btp108
Rp109
(dp110
bag1
(g2
(I733
tp111
Rp112
(dp113
bg2
(I417
tp114
Rp115
(dp116
btp117
Rp118
(dp119
bag1
(g2
(I34
tp120
Rp121
(dp122
bg2
(I756
tp123
Rp124
(dp125
btp126
Rp127
(dp128
bag1
(g2
(I27
tp129
Rp130
(dp131
bg130
tp132
Rp133
(dp134
bag1
(g2
(I254
tp135
Rp136
(dp137
bg2
(I940
tp138
Rp139
(dp140
btp141
Rp142
(dp143
bag1
(g2
(I865
tp144
Rp145
(dp146
bg2
(I154
tp147
Rp148
(dp149
btp150
Rp151
(dp152
bag1
(g2
(I446
tp153
Rp154
(dp155
bg2
(I816
tp156
Rp157
(dp158
btp159
Rp160
(dp161
bag1
(g2
(I904
tp162
Rp163
(dp164
bg2
(I667
tp165
Rp166
(dp167
btp168
Rp169
(dp170
bag1
(g2
(I439
tp171
Rp172
(dp173
bg2
(I181
tp174
Rp175
(dp176
btp177
Rp178
(dp179
bag1
(g2
(I185
tp180
Rp181
(dp182
bg2
(I451
tp183
Rp184
(dp185
btp186
Rp187
(dp188
bag1
(g2
(I159
tp189
Rp190
(dp191
bg2
(I814
tp192
Rp193
(dp194
btp195
Rp196
(dp197
bag1
(g2
(I5
tp198
Rp199
(dp200
bg2
(I295
tp201
Rp202
(dp203
btp204
Rp205
(dp206
bag1
(g2
(I869
tp207
Rp208
(dp209
bg2
(I590
tp210
Rp211
(dp212
btp213
Rp214
(dp215
bag1
(g2
(I709
tp216
Rp217
(dp218
bg2
(I177
tp219
Rp220
(dp221
btp222
Rp223
(dp224
bag1
(g2
(I648
tp225
Rp226
(dp227
bg2
(I720
tp228
Rp229
(dp230
btp231
Rp232
(dp233
bag1
(g2
(I495
tp234
Rp235
(dp236
bg2
(I771
tp237
Rp238
(dp239
btp240
Rp241
(dp242
bag1
(g2
(I96
tp243
Rp244
(dp245
bg2
(I642
tp246
Rp247
(dp248
btp249
Rp250
(dp251
bag1
(g2
(I847
tp252
Rp253
(dp254
bg2
(I901
tp255
Rp256
(dp257
btp258
Rp259
(dp260
bag1
(g2
(I570
tp261
Rp262
(dp263
bg2
(I344
tp264
Rp265
(dp266
btp267
Rp268
(dp269
bag1
(g2
(I810
tp270
Rp271
(dp272
bg2
(I266
tp273
Rp274
(dp275
btp276
Rp277
(dp278
bag1
(g2
(I117
tp279
Rp280
(dp281
bg2
(I990
tp282
Rp283
(dp284
btp285
Rp286
(dp287
bag1
(g2
(I724
tp288
Rp289
(dp290
bg2
(I396
tp291
Rp292
(dp293
btp294
Rp295
(dp296
bag1
(g2
(I535
tp297
Rp298
(dp299
bg2
(I94
tp300
Rp301
(dp302
btp303
Rp304
(dp305
bag1
(g2
(I505
tp306
Rp307
(dp308
bg2
(I844
tp309
Rp310
(dp311
btp312
Rp313
(dp314
bag1
(g2
(I157
tp315
Rp316
(dp317
bg2
(I716
tp318
Rp319
(dp320
btp321
Rp322
(dp323
bag1
(g2
(I370
tp324
Rp325
(dp326
bg2
(I502
tp327
Rp328
(dp329
btp330
Rp331
(dp332
bag1
(g2
(I324
tp333
Rp334
(dp335
bg2
(I339
tp336
Rp337
(dp338
btp339
Rp340
(dp341
bag1
(g2
(I679
tp342
Rp343
(dp344
bg2
(I532
tp345
Rp346
(dp347
btp348
Rp349
(dp350
bag1
(g2
(I141
tp351
Rp352
(dp353
bg2
(I323
tp354
Rp355
(dp356
btp357
Rp358
(dp359
bag1
(g2
(I710
tp360
Rp361
(dp362
bg2
(I372
tp363
Rp364
(dp365
btp366
Rp367
(dp368
bag1
(g2
(I32
tp369
Rp370
(dp371
bg2
(I604
tp372
Rp373
(dp374
btp375
Rp376
(dp377
bag1
(g2
(I976
tp378
Rp379
(dp380
bg2
(I601
tp381
Rp382
(dp383
btp384
Rp385
(dp386
bag1
(g2
(I537
tp387
Rp388
(dp389
bg2
(I475
tp390
Rp391
(dp392
btp393
Rp394
(dp395
bag1
(g2
(I168
tp396
Rp397
(dp398
bg2
(I457
tp399
Rp400
(dp401
btp402
Rp403
(dp404
bag1
(g2
(I681
tp405
Rp406
(dp407
bg2
(I147
tp408
Rp409
(dp410
btp411
Rp412
(dp413
bag1
(g229
g2
(I567
tp414
Rp415
(dp416
btp417
Rp418
(dp419
bag1
(g2
(I504
tp420
Rp421
(dp422
bg2
(I208
tp423
Rp424
(dp425
btp426
Rp427
(dp428
bag1
(g2
(I634
tp429
Rp430
(dp431
bg2
(I556
tp432
Rp433
(dp434
btp435
Rp436
(dp437
bag1
(g2
(I321
tp438
Rp439
(dp440
bg2
(I517
tp441
Rp442
(dp443
btp444
Rp445
(dp446
bag1
(g2
(I731
tp447
Rp448
(dp449
bg2
(I599
tp450
Rp451
(dp452
btp453
Rp454
(dp455
bag1
(g2
(I331
tp456
Rp457
(dp458
bg2
(I64
tp459
Rp460
(dp461
btp462
Rp463
(dp464
bag1
(g2
(I993
tp465
Rp466
(dp467
bg2
(I248
tp468
Rp469
(dp470
btp471
Rp472
(dp473
bag1
(g346
g2
(I403
tp474
Rp475
(dp476
btp477
Rp478
(dp479
bag1
(g2
(I102
tp480
Rp481
(dp482
bg2
(I521
tp483
Rp484
(dp485
btp486
Rp487
(dp488
bag1
(g2
(I375
tp489
Rp490
(dp491
bg2
(I646
tp492
Rp493
(dp494
btp495
Rp496
(dp497
bag1
(g2
(I683
tp498
Rp499
(dp500
bg2
(I326
tp501
Rp502
(dp503
btp504
Rp505
(dp506
bag1
(g2
(I909
tp507
Rp508
(dp509
bg2
(I347
tp510
Rp511
(dp512
btp513
Rp514
(dp515
bag1
(g2
(I179
tp516
Rp517
(dp518
bg2
(I161
tp519
Rp520
(dp521
btp522
Rp523
(dp524
bag1
(g2
(I890
tp525
Rp526
(dp527
bg2
(I178
tp528
Rp529
(dp530
btp531
Rp532
(dp533
bag1
(g2
(I496
tp534
Rp535
(dp536
bg2
(I678
tp537
Rp538
(dp539
btp540
Rp541
(dp542
bag1
(g2
(I799
tp543
Rp544
(dp545
bg2
(I718
tp546
Rp547
(dp548
btp549
Rp550
(dp551
bag1
(g2
(I195
tp552
Rp553
(dp554
bg2
(I192
tp555
Rp556
(dp557
btp558
Rp559
(dp560
bag1
(g2
(I227
tp561
Rp562
(dp563
bg2
(I815
tp564
Rp565
(dp566
btp567
Rp568
(dp569
bag1
(g2
(I627
tp570
Rp571
(dp572
bg2
(I974
tp573
Rp574
(dp575
btp576
Rp577
(dp578
bag1
(g2
(I924
tp579
Rp580
(dp581
bg2
(I861
tp582
Rp583
(dp584
btp585
Rp586
(dp587
bag1
(g2
(I183
tp588
Rp589
(dp590
bg2
(I843
tp591
Rp592
(dp593
btp594
Rp595
(dp596
bag1
(g2
(I76
tp597
Rp598
(dp599
bg2
(I487
tp600
Rp601
(dp602
btp603
Rp604
(dp605
bag1
(g2
(I437
tp606
Rp607
(dp608
bg2
(I17
tp609
Rp610
(dp611
btp612
Rp613
(dp614
bag1
(g2
(I365
tp615
Rp616
(dp617
bg343
tp618
Rp619
(dp620
bag1
(g2
(I707
tp621
Rp622
(dp623
bg2
(I789
tp624
Rp625
(dp626
btp627
Rp628
(dp629
bag1
(g2
(I206
tp630
Rp631
(dp632
bg2
(I851
tp633
Rp634
(dp635
btp636
Rp637
(dp638
bag1
(g2
(I462
tp639
Rp640
(dp641
bg2
(I689
tp642
Rp643
(dp644
btp645
Rp646
(dp647
bag1
(g2
(I351
tp648
Rp649
(dp650
bg2
(I92
tp651
Rp652
(dp653
btp654
Rp655
(dp656
bag1
(g2
(I107
tp657
Rp658
(dp659
bg598
tp660
Rp661
(dp662
bag1
(g2
(I213
tp663
Rp664
(dp665
bg2
(I110
tp666
Rp667
(dp668
btp669
Rp670
(dp671
bag1
(g2
(I544
tp672
Rp673
(dp674
bg2
(I278
tp675
Rp676
(dp677
btp678
Rp679
(dp680
bag1
(g2
(I702
tp681
Rp682
(dp683
bg2
(I484
tp684
Rp685
(dp686
btp687
Rp688
(dp689
bag1
(g2
(I633
tp690
Rp691
(dp692
bg2
(I288
tp693
Rp694
(dp695
btp696
Rp697
(dp698
bag1
(g2
(I48
tp699
Rp700
(dp701
bg2
(I692
tp702
Rp703
(dp704
btp705
Rp706
(dp707
bag1
(g529
g2
(I105
tp708
Rp709
(dp710
btp711
Rp712
(dp713
bag1
(g43
g673
tp714
Rp715
(dp716
bag1
(g2
(I883
tp717
Rp718
(dp719
bg2
(I520
tp720
Rp721
(dp722
btp723
Rp724
(dp725
bag1
(g2
(I305
tp726
Rp727
(dp728
bg580
tp729
Rp730
(dp731
bag1
(g2
(I95
tp732
Rp733
(dp734
bg2
(I42
tp735
Rp736
(dp737
btp738
Rp739
(dp740
bag1
(g2
(I981
tp741
Rp742
(dp743
bg2
(I610
tp744
Rp745
(dp746
btp747
Rp748
(dp749
bag1
(g2
(I280
tp750
Rp751
(dp752
bg2
(I476
tp753
Rp754
(dp755
btp756
Rp757
(dp758
bag1
(g2
(I398
tp759
Rp760
(dp761
bg2
(I839
tp762
Rp763
(dp764
btp765
Rp766
(dp767
bag1
(g2
(I848
tp768
Rp769
(dp770
bg2
(I50
tp771
Rp772
(dp773
btp774
Rp775
(dp776
bag1
(g2
(I160
tp777
Rp778
(dp779
bg2
(I488
tp780
Rp781
(dp782
btp783
Rp784
(dp785
bag1
(g2
(I492
tp786
Rp787
(dp788
bg640
tp789
Rp790
(dp791
bag1
(g2
(I125
tp792
Rp793
(dp794
bg2
(I498
tp795
Rp796
(dp797
btp798
Rp799
(dp800
bag1
(g2
(I139
tp801
Rp802
(dp803
bg2
(I73
tp804
Rp805
(dp806
btp807
Rp808
(dp809
bag1
(g2
(I930
tp810
Rp811
(dp812
bg2
(I577
tp813
Rp814
(dp815
btp816
Rp817
(dp818
bag1
(g2
(I182
tp819
Rp820
(dp821
bg307
tp822
Rp823
(dp824
bag1
(g2
(I750
tp825
Rp826
(dp827
bg2
(I363
tp828
Rp829
(dp830
btp831
Rp832
(dp833
bag1
(g2
(I124
tp834
Rp835
(dp836
bg280
tp837
Rp838
(dp839
bag1
(g2
(I759
tp840
Rp841
(dp842
bg2
(I486
tp843
Rp844
(dp845
btp846
Rp847
(dp848
bag1
(g2
(I215
tp849
Rp850
(dp851
bg2
(I977
tp852
Rp853
(dp854
btp855
Rp856
(dp857
bag1
(g283
g2
(I51
tp858
Rp859
(dp860
btp861
Rp862
(dp863
bag1
(g2
(I33
tp864
Rp865
(dp866
bg2
(I196
tp867
Rp868
(dp869
btp870
Rp871
(dp872
bag1
(g2
(I325
tp873
Rp874
(dp875
bg2
(I45
tp876
Rp877
(dp878
btp879
Rp880
(dp881
bag1
(g2
(I856
tp882
Rp883
(dp884
bg2
(I293
tp885
Rp886
(dp887
btp888
Rp889
(dp890
bag1
(g2
(I483
tp891
Rp892
(dp893
bg2
(I910
tp894
Rp895
(dp896
btp897
Rp898
(dp899
bag1
(g391
g2
(I791
tp900
Rp901
(dp902
btp903
Rp904
(dp905
bag1
(g2
(I277
tp906
Rp907
(dp908
bg2
(I118
tp909
Rp910
(dp911
btp912
Rp913
(dp914
bag1
(g2
(I663
tp915
Rp916
(dp917
bg2
(I361
tp918
Rp919
(dp920
btp921
Rp922
(dp923
bag1
(g2
(I343
tp924
Rp925
(dp926
bg2
(I301
tp927
Rp928
(dp929
btp930
Rp931
(dp932
bag1
(g2
(I589
tp933
Rp934
(dp935
bg2
(I992
tp936
Rp937
(dp938
btp939
Rp940
(dp941
bag1
(g2
(I948
tp942
Rp943
(dp944
bg2
(I670
tp945
Rp946
(dp947
btp948
Rp949
(dp950
bag1
(g2
(I303
tp951
Rp952
(dp953
bg2
(I82
tp954
Rp955
(dp956
btp957
Rp958
(dp959
bag1
(g763
g2
(I445
tp960
Rp961
(dp962
btp963
Rp964
(dp965
bag1
(g2
(I671
tp966
Rp967
(dp968
bg2
(I156
tp969
Rp970
(dp971
btp972
Rp973
(dp974
bag1
(g2
(I358
tp975
Rp976
(dp977
bg2
(I469
tp978
Rp979
(dp980
btp981
Rp982
(dp983
bag1
(g2
(I818
tp984
Rp985
(dp986
bg2
(I489
tp987
Rp988
(dp989
btp990
Rp991
(dp992
bag1
(g2
(I652
tp993
Rp994
(dp995
bg2
(I746
tp996
Rp997
(dp998
btp999
Rp1000
(dp1001
bag1
(g2
(I296
tp1002
Rp1003
(dp1004
bg2
(I390
tp1005
Rp1006
(dp1007
btp1008
Rp1009
(dp1010
bag1
(g2
(I121
tp1011
Rp1012
(dp1013
bg2
(I171
tp1014
Rp1015
(dp1016
btp1017
Rp1018
(dp1019
bag1
(g2
(I119
tp1020
Rp1021
(dp1022
bg2
(I238
tp1023
Rp1024
(dp1025
btp1026
Rp1027
(dp1028
bag1
(g409
g2
(I49
tp1029
Rp1030
(dp1031
btp1032
Rp1033
(dp1034
bag1
(g2
(I93
tp1035
Rp1036
(dp1037
bg2
(I907
tp1038
Rp1039
(dp1040
btp1041
Rp1042
(dp1043
bag1
(g2
(I831
tp1044
Rp1045
(dp1046
bg2
(I586
tp1047
Rp1048
(dp1049
btp1050
Rp1051
(dp1052
bag1
(g937
g2
(I672
tp1053
Rp1054
(dp1055
btp1056
Rp1057
(dp1058
bag1
(g2
(I584
tp1059
Rp1060
(dp1061
bg2
(I87
tp1062
Rp1063
(dp1064
btp1065
Rp1066
(dp1067
bag1
(g2
(I669
tp1068
Rp1069
(dp1070
bg553
tp1071
Rp1072
(dp1073
bag1
(g460
g2
(I524
tp1074
Rp1075
(dp1076
btp1077
Rp1078
(dp1079
bag1
(g2
(I889
tp1080
Rp1081
(dp1082
bg2
(I965
tp1083
Rp1084
(dp1085
btp1086
Rp1087
(dp1088
bag1
(g2
(I635
tp1089
Rp1090
(dp1091
bg2
(I849
tp1092
Rp1093
(dp1094
btp1095
Rp1096
(dp1097
bag1
(g2
(I659
tp1098
Rp1099
(dp1100
bg2
(I877
tp1101
Rp1102
(dp1103
btp1104
Rp1105
(dp1106
bag1
(g2
(I144
tp1107
Rp1108
(dp1109
bg2
(I423
tp1110
Rp1111
(dp1112
btp1113
Rp1114
(dp1115
bag1
(g2
(I749
tp1116
Rp1117
(dp1118
bg235
tp1119
Rp1120
(dp1121
bag1
(g2
(I644
tp1122
Rp1123
(dp1124
bg2
(I494
tp1125
Rp1126
(dp1127
btp1128
Rp1129
(dp1130
bag1
(g2
(I189
tp1131
Rp1132
(dp1133
bg2
(I575
tp1134
Rp1135
(dp1136
btp1137
Rp1138
(dp1139
bag1
(g2
(I571
tp1140
Rp1141
(dp1142
bg2
(I618
tp1143
Rp1144
(dp1145
btp1146
Rp1147
(dp1148
bag1
(g2
(I104
tp1149
Rp1150
(dp1151
bg2
(I126
tp1152
Rp1153
(dp1154
btp1155
Rp1156
(dp1157
bag1
(g2
(I952
tp1158
Rp1159
(dp1160
bg2
(I898
tp1161
Rp1162
(dp1163
btp1164
Rp1165
(dp1166
bag1
(g2
(I788
tp1167
Rp1168
(dp1169
bg2
(I239
tp1170
Rp1171
(dp1172
btp1173
Rp1174
(dp1175
bag1
(g2
(I572
tp1176
Rp1177
(dp1178
bg2
(I140
tp1179
Rp1180
(dp1181
btp1182
Rp1183
(dp1184
bag1
(g2
(I712
tp1185
Rp1186
(dp1187
bg334
tp1188
Rp1189
(dp1190
bag1
(g2
(I882
tp1191
Rp1192
(dp1193
bg2
(I103
tp1194
Rp1195
(dp1196
btp1197
Rp1198
(dp1199
bag1
(g685
g2
(I11
tp1200
Rp1201
(dp1202
btp1203
Rp1204
(dp1205
bag1
(g2
(I954
tp1206
Rp1207
(dp1208
bg2
(I66
tp1209
Rp1210
(dp1211
btp1212
Rp1213
(dp1214
bag1
(g2
(I243
tp1215
Rp1216
(dp1217
bg2
(I340
tp1218
Rp1219
(dp1220
btp1221
Rp1222
(dp1223
bag1
(g2
(I855
tp1224
Rp1225
(dp1226
bg2
(I275
tp1227
Rp1228
(dp1229
btp1230
Rp1231
(dp1232
bag1
(g2
(I320
tp1233
Rp1234
(dp1235
bg2
(I508
tp1236
Rp1237
(dp1238
btp1239
Rp1240
(dp1241
bag1
(g2
(I276
tp1242
Rp1243
(dp1244
bg2
(I732
tp1245
Rp1246
(dp1247
btp1248
Rp1249
(dp1250
bag1
(g2
(I784
tp1251
Rp1252
(dp1253
bg2
(I232
tp1254
Rp1255
(dp1256
btp1257
Rp1258
(dp1259
bag1
(g2
(I906
tp1260
Rp1261
(dp1262
bg2
(I830
tp1263
Rp1264
(dp1265
btp1266
Rp1267
(dp1268
bag1
(g2
(I312
tp1269
Rp1270
(dp1271
bg2
(I766
tp1272
Rp1273
(dp1274
btp1275
Rp1276
(dp1277
bag1
(g2
(I270
tp1278
Rp1279
(dp1280
bg2
(I624
tp1281
Rp1282
(dp1283
btp1284
Rp1285
(dp1286
bag1
(g2
(I55
tp1287
Rp1288
(dp1289
bg2
(I588
tp1290
Rp1291
(dp1292
btp1293
Rp1294
(dp1295
bag1
(g565
g2
(I258
tp1296
Rp1297
(dp1298
btp1299
Rp1300
(dp1301
bag1
(g2
(I427
tp1302
Rp1303
(dp1304
bg2
(I516
tp1305
Rp1306
(dp1307
btp1308
Rp1309
(dp1310
bag1
(g2
(I249
tp1311
Rp1312
(dp1313
bg2
(I381
tp1314
Rp1315
(dp1316
btp1317
Rp1318
(dp1319
bag1
(g2
(I268
tp1320
Rp1321
(dp1322
bg2
(I35
tp1323
Rp1324
(dp1325
btp1326
Rp1327
(dp1328
bag1
(g2
(I98
tp1329
Rp1330
(dp1331
bg1117
tp1332
Rp1333
(dp1334
bag1
(g166
g2
(I860
tp1335
Rp1336
(dp1337
btp1338
Rp1339
(dp1340
bag1
(g2
(I40
tp1341
Rp1342
(dp1343
bg2
(I382
tp1344
Rp1345
(dp1346
btp1347
Rp1348
(dp1349
bag1
(g2
(I605
tp1350
Rp1351
(dp1352
bg2
(I134
tp1353
Rp1354
(dp1355
btp1356
Rp1357
(dp1358
bag1
(g2
(I928
tp1359
Rp1360
(dp1361
bg2
(I794
tp1362
Rp1363
(dp1364
btp1365
Rp1366
(dp1367
ba.