(lp0
csympy.geometry.point
Point2D
p1
(csympy.core.numbers
Integer
p2
(I946
tp3
Rp4
(dp5
bg2
(I121
tp6
Rp7
(dp8
btp9
Rp10
(dp11
bag1
(g2
(I212
tp12
Rp13
(dp14
bg2
(I563
tp15
Rp16
(dp17
btp18
Rp19
(dp20
bag1
(g2
(I757
tp21
Rp22
(dp23
bg2
(I494
tp24
Rp25
(dp26
btp27
Rp28
(dp29
bag1
(g2
(I239
tp30
Rp31
(dp32
bg2
(I697
tp33
Rp34
(dp35
btp36
Rp37
(dp38
bag1
(g2
(I984
tp39
Rp40
(dp41
bg2
(I437
tp42
Rp43
(dp44
btp45
Rp46
(dp47
bag1
(g2
(I679
tp48
Rp49
(dp50
bg2
(I421
tp51
Rp52
(dp53
btp54
Rp55
(dp56
bag1
(g2
(I524
tp57
Rp58
(dp59
bg2
(I509
tp60
Rp61
(dp62
btp63
Rp64
(dp65
bag1
(g2
(I752
tp66
Rp67
(dp68
bg2
(I980
tp69
Rp70
(dp71
btp72
Rp73
(dp74
bag1
(g2
(I763
tp75
Rp76
(dp77
bg2
(I586
tp78
Rp79
(dp80
btp81
Rp82
(dp83
bag1
(g2
(I977
tp84
Rp85
(dp86
bg2
(I348
tp87
Rp88
(dp89
btp90
Rp91
(dp92
bag1
(g2
(I640
tp93
Rp94
(dp95
bg2
(I561
tp96
Rp97
(dp98
btp99
Rp100
(dp101
bag1
(g2
(I125
tp102
Rp103
(dp104
bg2
(I798
tp105
Rp106
(dp107
btp108
Rp109
(dp110
bag1
(g2
(I755
tp111
Rp112
(dp113
bg2
(I573
tp114
Rp115
(dp116
btp117
Rp118
(dp119
bag1
(g2
(I347
tp120
Rp121
(dp122
bg2
(I549
tp123
Rp124
(dp125
btp126
Rp127
(dp128
bag1
(g2
(I906
tp129
Rp130
(dp131
bg2
(I429
tp132
Rp133
(dp134
btp135
Rp136
(dp137
bag1
(g2
(I475
tp138
Rp139
(dp140
bg2
(I681
tp141
Rp142
(dp143
btp144
Rp145
(dp146
bag1
(g2
(I369
tp147
Rp148
(dp149
bg2
(I39
tp150
Rp151
(dp152
btp153
Rp154
(dp155
bag1
(g2
(I603
tp156
Rp157
(dp158
bg2
(I25
tp159
Rp160
(dp161
btp162
Rp163
(dp164
bag1
(g2
(I981
tp165
Rp166
(dp167
bg2
(I797
tp168
Rp169
(dp170
btp171
Rp172
(dp173
bag1
(g2
(I417
tp174
Rp175
(dp176
bg2
(I313
tp177
Rp178
(dp179
btp180
Rp181
(dp182
bag1
(g2
(I617
tp183
Rp184
(dp185
bg2
(I791
tp186
Rp187
(dp188
btp189
Rp190
(dp191
bag1
(g2
(I354
tp192
Rp193
(dp194
bg2
(I832
tp195
Rp196
(dp197
btp198
Rp199
(dp200
bag1
(g2
(I970
tp201
Rp202
(dp203
bg2
(I146
tp204
Rp205
(dp206
btp207
Rp208
(dp209
bag1
(g2
(I598
tp210
Rp211
(dp212
bg2
(I766
tp213
Rp214
(dp215
btp216
Rp217
(dp218
bag1
(g2
(I169
tp219
Rp220
(dp221
bg2
(I200
tp222
Rp223
(dp224
btp225
Rp226
(dp227
bag1
(g2
(I330
tp228
Rp229
(dp230
bg2
(I888
tp231
Rp232
(dp233
btp234
Rp235
(dp236
bag1
(g2
(I968
tp237
Rp238
(dp239
bg2
(I639
tp240
Rp241
(dp242
btp243
Rp244
(dp245
bag1
(g2
(I582
tp246
Rp247
(dp248
bg2
(I18
tp249
Rp250
(dp251
btp252
Rp253
(dp254
bag1
(g2
(I310
tp255
Rp256
(dp257
bg2
(I913
tp258
Rp259
(dp260
btp261
Rp262
(dp263
bag1
(g2
(I311
tp264
Rp265
(dp266
bg2
(I990
tp267
Rp268
(dp269
btp270
Rp271
(dp272
bag1
(g2
(I240
tp273
Rp274
(dp275
bg2
(I234
tp276
Rp277
(dp278
btp279
Rp280
(dp281
bag1
(g2
(I442
tp282
Rp283
(dp284
bg2
(I689
tp285
Rp286
(dp287
btp288
Rp289
(dp290
bag1
(g2
(I5
tp291
Rp292
(dp293
bg2
(I776
tp294
Rp295
(dp296
btp297
Rp298
(dp299
bag1
(g2
(I188
tp300
Rp301
(dp302
bg2
(I28
tp303
Rp304
(dp305
btp306
Rp307
(dp308
bag1
(g2
(I281
tp309
Rp310
(dp311
bg2
(I29
tp312
Rp313
(dp314
btp315
Rp316
(dp317
bag1
(g2
(I3
tp318
Rp319
(dp320
bg2
(I298
tp321
Rp322
(dp323
btp324
Rp325
(dp326
bag1
(g2
(I723
tp327
Rp328
(dp329
bg2
(I534
tp330
Rp331
(dp332
btp333
Rp334
(dp335
bag1
(g2
(I290
tp336
Rp337
(dp338
bg2
(I780
tp339
Rp340
(dp341
btp342
Rp343
(dp344
bag1
(g2
(I267
tp345
Rp346
(dp347
bg2
(I997
tp348
Rp349
(dp350
btp351
Rp352
(dp353
bag1
(g2
(I282
tp354
Rp355
(dp356
bg2
(I374
tp357
Rp358
(dp359
btp360
Rp361
(dp362
bag1
(g2
(I982
tp363
Rp364
(dp365
bg2
(I530
tp366
Rp367
(dp368
btp369
Rp370
(dp371
bag1
(g2
(I251
tp372
Rp373
(dp374
bg2
(I213
tp375
Rp376
(dp377
btp378
Rp379
(dp380
bag1
(g2
(I954
tp381
Rp382
(dp383
bg2
(I431
tp384
Rp385
(dp386
btp387
Rp388
(dp389
bag1
(g2
(I991
tp390
Rp391
(dp392
bg2
(I133
tp393
Rp394
(dp395
btp396
Rp397
(dp398
bag1
(g2
(I289
tp399
Rp400
(dp401
bg2
(I364
tp402
Rp403
(dp404
btp405
Rp406
(dp407
bag1
(g2
(I731
tp408
Rp409
(dp410
bg2
(I690
tp411
Rp412
(dp413
btp414
Rp415
(dp416
bag1
(g2
(I399
tp417
Rp418
(dp419
bg2
(I415
tp420
Rp421
(dp422
btp423
Rp424
(dp425
bag1
(g2
(I983
tp426
Rp427
(dp428
bg2
(I71
tp429
Rp430
(dp431
btp432
Rp433
(dp434
bag1
(g2
(I286
tp435
Rp436
(dp437
bg2
(I115
tp438
Rp439
(dp440
btp441
Rp442
(dp443
bag1
(g2
(I620
tp444
Rp445
(dp446
bg2
(I116
tp447
Rp448
(dp449
btp450
Rp451
(dp452
bag1
(g2
(I439
tp453
Rp454
(dp455
bg2
(I853
tp456
Rp457
(dp458
btp459
Rp460
(dp461
bag1
(g2
(I744
tp462
Rp463
(dp464
bg2
(I478
tp465
Rp466
(dp467
btp468
Rp469
(dp470
bag1
(g2
(I839
tp471
Rp472
(dp473
bg2
(I866
tp474
Rp475
(dp476
btp477
Rp478
(dp479
bag1
(g2
(I49
tp480
Rp481
(dp482
bg2
(I385
tp483
Rp484
(dp485
btp486
Rp487
(dp488
bag1
(g2
(I108
tp489
Rp490
(dp491
bg2
(I45
tp492
Rp493
(dp494
btp495
Rp496
(dp497
bag1
(g2
(I456
tp498
Rp499
(dp500
bg2
(I74
tp501
Rp502
(dp503
btp504
Rp505
(dp506
bag1
(g2
(I646
tp507
Rp508
(dp509
bg2
(I918
tp510
Rp511
(dp512
btp513
Rp514
(dp515
bag1
(g2
(I884
tp516
Rp517
(dp518
bg2
(I8
tp519
Rp520
(dp521
btp522
Rp523
(dp524
bag1
(g2
(I548
tp525
Rp526
(dp527
bg2
(I694
tp528
Rp529
(dp530
btp531
Rp532
(dp533
bag1
(g2
(I148
tp534
Rp535
(dp536
bg2
(I250
tp537
Rp538
(dp539
btp540
Rp541
(dp542
bag1
(g2
(I195
tp543
Rp544
(dp545
bg2
(I775
tp546
Rp547
(dp548
btp549
Rp550
(dp551
bag1
(g331
g2
(I483
tp552
Rp553
(dp554
btp555
Rp556
(dp557
bag1
(g2
(I209
tp558
Rp559
(dp560
bg2
(I383
tp561
Rp562
(dp563
btp564
Rp565
(dp566
bag1
(g2
(I870
tp567
Rp568
(dp569
bg2
(I989
tp570
Rp571
(dp572
btp573
Rp574
(dp575
bag1
(g2
(I662
tp576
Rp577
(dp578
bg2
(I887
tp579
Rp580
(dp581
btp582
Rp583
(dp584
bag1
(g2
(I863
tp585
Rp586
(dp587
bg2
(I753
tp588
Rp589
(dp590
btp591
Rp592
(dp593
bag1
(g2
(I673
tp594
Rp595
(dp596
bg2
(I883
tp597
Rp598
(dp599
btp600
Rp601
(dp602
bag1
(g2
(I199
tp603
Rp604
(dp605
bg2
(I695
tp606
Rp607
(dp608
btp609
Rp610
(dp611
bag1
(g2
(I507
tp612
Rp613
(dp614
bg2
(I229
tp615
Rp616
(dp617
btp618
Rp619
(dp620
bag1
(g2
(I205
tp621
Rp622
(dp623
bg2
(I194
tp624
Rp625
(dp626
btp627
Rp628
(dp629
bag1
(g2
(I613
tp630
Rp631
(dp632
bg2
(I328
tp633
Rp634
(dp635
btp636
Rp637
(dp638
bag1
(g2
(I904
tp639
Rp640
(dp641
bg2
(I589
tp642
Rp643
(dp644
btp645
Rp646
(dp647
bag1
(g2
(I16
tp648
Rp649
(dp650
bg2
(I363
tp651
Rp652
(dp653
btp654
Rp655
(dp656
bag1
(g2
(I189
tp657
Rp658
(dp659
bg2
(I986
tp660
Rp661
(dp662
btp663
Rp664
(dp665
bag1
(g2
(I184
tp666
Rp667
(dp668
bg2
(I122
tp669
Rp670
(dp671
btp672
Rp673
(dp674
bag1
(g2
(I686
tp675
Rp676
(dp677
bg2
(I521
tp678
Rp679
(dp680
btp681
Rp682
(dp683
bag1
(g2
(I150
tp684
Rp685
(dp686
bg2
(I789
tp687
Rp688
(dp689
btp690
Rp691
(dp692
bag1
(g2
(I557
tp693
Rp694
(dp695
bg2
(I880
tp696
Rp697
(dp698
btp699
Rp700
(dp701
bag1
(g2
(I910
tp702
Rp703
(dp704
bg2
(I203
tp705
Rp706
(dp707
btp708
Rp709
(dp710
bag1
(g2
(I663
tp711
Rp712
(dp713
bg2
(I501
tp714
Rp715
(dp716
btp717
Rp718
(dp719
bag1
(g2
(I265
tp720
Rp721
(dp722
bg2
(I450
tp723
Rp724
(dp725
btp726
Rp727
(dp728
bag1
(g493
g2
(I525
tp729
Rp730
(dp731
btp732
Rp733
(dp734
bag1
(g2
(I52
tp735
Rp736
(dp737
bg2
(I165
tp738
Rp739
(dp740
btp741
Rp742
(dp743
bag1
(g2
(I443
tp744
Rp745
(dp746
bg2
(I655
tp747
Rp748
(dp749
btp750
Rp751
(dp752
bag1
(g2
(I175
tp753
Rp754
(dp755
bg2
(I978
tp756
Rp757
(dp758
btp759
Rp760
(dp761
bag1
(g2
(I496
tp762
Rp763
(dp764
bg2
(I370
tp765
Rp766
(dp767
btp768
Rp769
(dp770
bag1
(g2
(I684
tp771
Rp772
(dp773
bg2
(I141
tp774
Rp775
(dp776
btp777
Rp778
(dp779
bag1
(g2
(I932
tp780
Rp781
(dp782
bg622
tp783
Rp784
(dp785
bag1
(g2
(I810
tp786
Rp787
(dp788
bg2
(I559
tp789
Rp790
(dp791
btp792
Rp793
(dp794
bag1
(g2
(I971
tp795
Rp796
(dp797
bg2
(I36
tp798
Rp799
(dp800
btp801
Rp802
(dp803
bag1
(g2
(I895
tp804
Rp805
(dp806
bg2
(I222
tp807
Rp808
(dp809
btp810
Rp811
(dp812
bag1
(g2
(I622
tp813
Rp814
(dp815
bg2
(I959
tp816
Rp817
(dp818
btp819
Rp820
(dp821
bag1
(g2
(I849
tp822
Rp823
(dp824
bg2
(I767
tp825
Rp826
(dp827
btp828
Rp829
(dp830
bag1
(g142
g2
(I795
tp831
Rp832
(dp833
btp834
Rp835
(dp836
bag1
(g2
(I402
tp837
Rp838
(dp839
bg2
(I794
tp840
Rp841
(dp842
btp843
Rp844
(dp845
bag1
(g2
(I338
tp846
Rp847
(dp848
bg2
(I196
tp849
Rp850
(dp851
btp852
Rp853
(dp854
bag1
(g2
(I177
tp855
Rp856
(dp857
bg823
tp858
Rp859
(dp860
bag1
(g2
(I164
tp861
Rp862
(dp863
bg2
(I97
tp864
Rp865
(dp866
btp867
Rp868
(dp869
bag1
(g2
(I81
tp870
Rp871
(dp872
bg2
(I135
tp873
Rp874
(dp875
btp876
Rp877
(dp878
bag1
(g2
(I315
tp879
Rp880
(dp881
bg2
(I760
tp882
Rp883
(dp884
btp885
Rp886
(dp887
bag1
(g2
(I341
tp888
Rp889
(dp890
bg2
(I565
tp891
Rp892
(dp893
btp894
Rp895
(dp896
bag1
(g2
(I520
tp897
Rp898
(dp899
bg2
(I433
tp900
Rp901
(dp902
btp903
Rp904
(dp905
bag1
(g2
(I168
tp906
Rp907
(dp908
bg2
(I657
tp909
Rp910
(dp911
btp912
Rp913
(dp914
bag1
(g2
(I216
tp915
Rp916
(dp917
bg2
(I346
tp918
Rp919
(dp920
btp921
Rp922
(dp923
bag1
(g2
(I218
tp924
Rp925
(dp926
bg2
(I83
tp927
Rp928
(dp929
btp930
Rp931
(dp932
bag1
(g2
(I854
tp933
Rp934
(dp935
bg2
(I800
tp936
Rp937
(dp938
btp939
Rp940
(dp941
bag1
(g2
(I129
tp942
Rp943
(dp944
bg2
(I773
tp945
Rp946
(dp947
btp948
Rp949
(dp950
bag1
(g2
(I226
tp951
Rp952
(dp953
bg328
tp954
Rp955
(dp956
bag1
(g2
(I454
tp957
Rp958
(dp959
bg2
(I138
tp960
Rp961
(dp962
btp963
Rp964
(dp965
bag1
(g547
g2
(I823
tp966
Rp967
(dp968
btp969
Rp970
(dp971
bag1
(g2
(I503
tp972
Rp973
(dp974
bg2
(I345
tp975
Rp976
(dp977
btp978
Rp979
(dp980
bag1
(g2
(I65
tp981
Rp982
(dp983
bg2
(I542
tp984
Rp985
(dp986
btp987
Rp988
(dp989
bag1
(g2
(I647
tp990
Rp991
(dp992
bg2
(I536
tp993
Rp994
(dp995
btp996
Rp997
(dp998
bag1
(g2
(I743
tp999
Rp1000
(dp1001
bg2
(I252
tp1002
Rp1003
(dp1004
btp1005
Rp1006
(dp1007
bag1
(g2
(I48
tp1008
Rp1009
(dp1010
bg2
(I774
tp1011
Rp1012
(dp1013
btp1014
Rp1015
(dp1016
bag1
(g223
g2
(I334
tp1017
Rp1018
(dp1019
btp1020
Rp1021
(dp1022
bag1
(g2
(I911
tp1023
Rp1024
(dp1025
bg2
(I500
tp1026
Rp1027
(dp1028
btp1029
Rp1030
(dp1031
bag1
(g2
(I554
tp1032
Rp1033
(dp1034
bg991
tp1035
Rp1036
(dp1037
bag1
(g1018
g85
tp1038
Rp1039
(dp1040
bag1
(g919
g2
(I944
tp1041
Rp1042
(dp1043
btp1044
Rp1045
(dp1046
bag1
(g2
(I562
tp1047
Rp1048
(dp1049
bg2
(I256
tp1050
Rp1051
(dp1052
btp1053
Rp1054
(dp1055
bag1
(g2
(I101
tp1056
Rp1057
(dp1058
bg2
(I493
tp1059
Rp1060
(dp1061
btp1062
Rp1063
(dp1064
bag1
(g340
g2
(I270
tp1065
Rp1066
(dp1067
btp1068
Rp1069
(dp1070
bag1
(g2
(I570
tp1071
Rp1072
(dp1073
bg973
tp1074
Rp1075
(dp1076
bag1
(g2
(I210
tp1077
Rp1078
(dp1079
bg2
(I68
tp1080
Rp1081
(dp1082
btp1083
Rp1084
(dp1085
bag1
(g2
(I629
tp1086
Rp1087
(dp1088
bg2
(I928
tp1089
Rp1090
(dp1091
btp1092
Rp1093
(dp1094
bag1
(g2
(I230
tp1095
Rp1096
(dp1097
bg2
(I448
tp1098
Rp1099
(dp1100
btp1101
Rp1102
(dp1103
bag1
(g2
(I53
tp1104
Rp1105
(dp1106
bg787
tp1107
Rp1108
(dp1109
bag1
(g2
(I897
tp1110
Rp1111
(dp1112
bg2
(I713
tp1113
Rp1114
(dp1115
btp1116
Rp1117
(dp1118
bag1
(g2
(I518
tp1119
Rp1120
(dp1121
bg2
(I718
tp1122
Rp1123
(dp1124
btp1125
Rp1126
(dp1127
bag1
(g2
(I644
tp1128
Rp1129
(dp1130
bg2
(I555
tp1131
Rp1132
(dp1133
btp1134
Rp1135
(dp1136
bag1
(g2
(I276
tp1137
Rp1138
(dp1139
bg2
(I937
tp1140
Rp1141
(dp1142
btp1143
Rp1144
(dp1145
bag1
(g2
(I72
tp1146
Rp1147
(dp1148
bg2
(I527
tp1149
Rp1150
(dp1151
btp1152
Rp1153
(dp1154
bag1
(g2
(I356
tp1155
Rp1156
(dp1157
bg2
(I825
tp1158
Rp1159
(dp1160
btp1161
Rp1162
(dp1163
bag1
(g1060
g2
(I924
tp1164
Rp1165
(dp1166
btp1167
Rp1168
(dp1169
bag1
(g2
(I512
tp1170
Rp1171
(dp1172
bg2
(I69
tp1173
Rp1174
(dp1175
btp1176
Rp1177
(dp1178
bag1
(g2
(I532
tp1179
Rp1180
(dp1181
bg2
(I76
tp1182
Rp1183
(dp1184
btp1185
Rp1186
(dp1187
bag1
(g2
(I490
tp1188
Rp1189
(dp1190
bg121
tp1191
Rp1192
(dp1193
bag1
(g2
(I131
tp1194
Rp1195
(dp1196
bg2
(I931
tp1197
Rp1198
(dp1199
btp1200
Rp1201
(dp1202
bag1
(g670
g2
(I715
tp1203
Rp1204
(dp1205
btp1206
Rp1207
(dp1208
bag1
(g2
(I384
tp1209
Rp1210
(dp1211
bg2
(I162
tp1212
Rp1213
(dp1214
btp1215
Rp1216
(dp1217
bag1
(g2
(I706
tp1218
Rp1219
(dp1220
bg577
tp1221
Rp1222
(dp1223
bag1
(g2
(I238
tp1224
Rp1225
(dp1226
bg2
(I571
tp1227
Rp1228
(dp1229
btp1230
Rp1231
(dp1232
bag1
(g2
(I161
tp1233
Rp1234
(dp1235
bg1000
tp1236
Rp1237
(dp1238
bag1
(g2
(I7
tp1239
Rp1240
(dp1241
bg2
(I923
tp1242
Rp1243
(dp1244
btp1245
Rp1246
(dp1247
bag1
(g2
(I261
tp1248
Rp1249
(dp1250
bg1096
tp1251
Rp1252
(dp1253
bag1
(g2
(I260
tp1254
Rp1255
(dp1256
bg2
(I645
tp1257
Rp1258
(dp1259
btp1260
Rp1261
(dp1262
bag1
(g2
(I119
tp1263
Rp1264
(dp1265
bg2
(I386
tp1266
Rp1267
(dp1268
btp1269
Rp1270
(dp1271
bag1
(g2
(I92
tp1272
Rp1273
(dp1274
bg2
(I741
tp1275
Rp1276
(dp1277
btp1278
Rp1279
(dp1280
bag1
(g2
(I12
tp1281
Rp1282
(dp1283
bg2
(I89
tp1284
Rp1285
(dp1286
btp1287
Rp1288
(dp1289
bag1
(g2
(I594
tp1290
Rp1291
(dp1292
bg2
(I668
tp1293
Rp1294
(dp1295
btp1296
Rp1297
(dp1298
bag1
(g2
(I11
tp1299
Rp1300
(dp1301
bg916
tp1302
Rp1303
(dp1304
bag1
(g2
(I343
tp1305
Rp1306
(dp1307
bg2
(I379
tp1308
Rp1309
(dp1310
btp1311
Rp1312
(dp1313
bag1
(g2
(I2
tp1314
Rp1315
(dp1316
bg2
(I64
tp1317
Rp1318
(dp1319
btp1320
Rp1321
(dp1322
bag1
(g661
g481
tp1323
Rp1324
(dp1325
bag1
(g2
(I564
tp1326
Rp1327
(dp1328
bg2
(I502
tp1329
Rp1330
(dp1331
btp1332
Rp1333
(dp1334
bag1
(g2
(I893
tp1335
Rp1336
(dp1337
bg2
(I174
tp1338
Rp1339
(dp1340
btp1341
Rp1342
(dp1343
bag1
(g2
(I547
tp1344
Rp1345
(dp1346
bg2
(I726
tp1347
Rp1348
(dp1349
btp1350
Rp1351
(dp1352
bag1
(g652
g2
(I404
tp1353
Rp1354
(dp1355
btp1356
Rp1357
(dp1358
bag1
(g2
(I961
tp1359
Rp1360
(dp1361
bg2
(I88
tp1362
Rp1363
(dp1364
btp1365
Rp1366
(dp1367
ba.