(lp0
csympy.geometry.point
Point2D
p1
(csympy.core.numbers
Integer
p2
(I371
tp3
Rp4
(dp5
bg2
(I289
tp6
Rp7
(dp8
btp9
Rp10
(dp11
bag1
(g2
(I229
tp12
Rp13
(dp14
bg2
(I263
tp15
Rp16
(dp17
btp18
Rp19
(dp20
bag1
(g2
(I724
tp21
Rp22
(dp23
bg2
(I610
tp24
Rp25
(dp26
btp27
Rp28
(dp29
bag1
(g2
(I857
tp30
Rp31
(dp32
bg2
(I624
tp33
Rp34
(dp35
btp36
Rp37
(dp38
bag1
(g2
(I28
tp39
Rp40
(dp41
bg2
(I504
tp42
Rp43
(dp44
btp45
Rp46
(dp47
bag1
(g2
(I561
tp48
Rp49
(dp50
bg2
(I980
tp51
Rp52
(dp53
btp54
Rp55
(dp56
bag1
(g2
(I602
tp57
Rp58
(dp59
bg2
(I543
tp60
Rp61
(dp62
btp63
Rp64
(dp65
bag1
(g2
(I204
tp66
Rp67
(dp68
bg2
(I253
tp69
Rp70
(dp71
btp72
Rp73
(dp74
bag1
(g2
(I23
tp75
Rp76
(dp77
bg2
(I653
tp78
Rp79
(dp80
btp81
Rp82
(dp83
bag1
(g2
(I595
tp84
Rp85
(dp86
bg2
(I265
tp87
Rp88
(dp89
btp90
Rp91
(dp92
bag1
(g7
g2
(I622
tp93
Rp94
(dp95
btp96
Rp97
(dp98
bag1
(g2
(I385
tp99
Rp100
(dp101
bg2
(I47
tp102
Rp103
(dp104
btp105
Rp106
(dp107
bag1
(g2
(I327
tp108
Rp109
(dp110
bg2
(I477
tp111
Rp112
(dp113
btp114
Rp115
(dp116
bag1
(g2
(I211
tp117
Rp118
(dp119
bg2
(I768
tp120
Rp121
(dp122
btp123
Rp124
(dp125
bag1
(g2
(I53
tp126
Rp127
(dp128
bg2
(I968
tp129
Rp130
(dp131
btp132
Rp133
(dp134
bag1
(g2
(I556
tp135
Rp136
(dp137
bg2
(I621
tp138
Rp139
(dp140
btp141
Rp142
(dp143
bag1
(g2
(I870
tp144
Rp145
(dp146
bg2
(I64
tp147
Rp148
(dp149
btp150
Rp151
(dp152
bag1
(g2
(I503
tp153
Rp154
(dp155
bg2
(I687
tp156
Rp157
(dp158
btp159
Rp160
(dp161
bag1
(g2
(I32
tp162
Rp163
(dp164
bg2
(I835
tp165
Rp166
(dp167
btp168
Rp169
(dp170
bag1
(g2
(I940
tp171
Rp172
(dp173
bg2
(I970
tp174
Rp175
(dp176
btp177
Rp178
(dp179
bag1
(g2
(I198
tp180
Rp181
(dp182
bg2
(I69
tp183
Rp184
(dp185
btp186
Rp187
(dp188
bag1
(g2
(I195
tp189
Rp190
(dp191
bg2
(I786
tp192
Rp193
(dp194
btp195
Rp196
(dp197
bag1
(g2
(I143
tp198
Rp199
(dp200
bg2
(I827
tp201
Rp202
(dp203
btp204
Rp205
(dp206
bag1
(g2
(I338
tp207
Rp208
(dp209
bg2
(I37
tp210
Rp211
(dp212
btp213
Rp214
(dp215
bag1
(g2
(I51
tp216
Rp217
(dp218
bg2
(I880
tp219
Rp220
(dp221
btp222
Rp223
(dp224
bag1
(g2
(I396
tp225
Rp226
(dp227
bg2
(I233
tp228
Rp229
(dp230
btp231
Rp232
(dp233
bag1
(g2
(I489
tp234
Rp235
(dp236
bg2
(I280
tp237
Rp238
(dp239
btp240
Rp241
(dp242
bag1
(g2
(I286
tp243
Rp244
(dp245
bg2
(I526
tp246
Rp247
(dp248
btp249
Rp250
(dp251
bag1
(g2
(I242
tp252
Rp253
(dp254
bg2
(I425
tp255
Rp256
(dp257
btp258
Rp259
(dp260
bag1
(g2
(I269
tp261
Rp262
(dp263
bg2
(I781
tp264
Rp265
(dp266
btp267
Rp268
(dp269
bag1
(g2
(I733
tp270
Rp271
(dp272
bg2
(I727
tp273
Rp274
(dp275
btp276
Rp277
(dp278
bag1
(g2
(I461
tp279
Rp280
(dp281
bg2
(I89
tp282
Rp283
(dp284
btp285
Rp286
(dp287
bag1
(g2
(I867
tp288
Rp289
(dp290
bg2
(I251
tp291
Rp292
(dp293
btp294
Rp295
(dp296
bag1
(g2
(I705
tp297
Rp298
(dp299
bg2
(I632
tp300
Rp301
(dp302
btp303
Rp304
(dp305
bag1
(g2
(I505
tp306
Rp307
(dp308
bg2
(I121
tp309
Rp310
(dp311
btp312
Rp313
(dp314
bag1
(g2
(I5
tp315
Rp316
(dp317
bg2
(I50
tp318
Rp319
(dp320
btp321
Rp322
(dp323
bag1
(g2
(I205
tp324
Rp325
(dp326
bg2
(I258
tp327
Rp328
(dp329
btp330
Rp331
(dp332
bag1
(g2
(I192
tp333
Rp334
(dp335
bg2
(I554
tp336
Rp337
(dp338
btp339
Rp340
(dp341
bag1
(g2
(I452
tp342
Rp343
(dp344
bg2
(I491
tp345
Rp346
(dp347
btp348
Rp349
(dp350
bag1
(g2
(I466
tp351
Rp352
(dp353
bg2
(I340
tp354
Rp355
(dp356
btp357
Rp358
(dp359
bag1
(g2
(I577
tp360
Rp361
(dp362
bg2
(I910
tp363
Rp364
(dp365
btp366
Rp367
(dp368
bag1
(g2
(I825
tp369
Rp370
(dp371
bg2
(I65
tp372
Rp373
(dp374
btp375
Rp376
(dp377
bag1
(g2
(I500
tp378
Rp379
(dp380
bg2
(I607
tp381
Rp382
(dp383
btp384
Rp385
(dp386
bag1
(g2
(I14
tp387
Rp388
(dp389
bg2
(I909
tp390
Rp391
(dp392
btp393
Rp394
(dp395
bag1
(g2
(I771
tp396
Rp397
(dp398
bg2
(I43
tp399
Rp400
(dp401
btp402
Rp403
(dp404
bag1
(g2
(I766
tp405
Rp406
(dp407
bg2
(I942
tp408
Rp409
(dp410
btp411
Rp412
(dp413
bag1
(g2
(I193
tp414
Rp415
(dp416
bg2
(I200
tp417
Rp418
(dp419
btp420
Rp421
(dp422
bag1
(g2
(I550
tp423
Rp424
(dp425
bg397
tp426
Rp427
(dp428
bag1
(g2
(I441
tp429
Rp430
(dp431
bg2
(I954
tp432
Rp433
(dp434
btp435
Rp436
(dp437
bag1
(g2
(I4
tp438
Rp439
(dp440
bg2
(I150
tp441
Rp442
(dp443
btp444
Rp445
(dp446
bag1
(g2
(I600
tp447
Rp448
(dp449
bg2
(I907
tp450
Rp451
(dp452
btp453
Rp454
(dp455
bag1
(g2
(I635
tp456
Rp457
(dp458
bg2
(I787
tp459
Rp460
(dp461
btp462
Rp463
(dp464
bag1
(g2
(I958
tp465
Rp466
(dp467
bg2
(I534
tp468
Rp469
(dp470
btp471
Rp472
(dp473
bag1
(g2
(I950
tp474
Rp475
(dp476
bg2
(I623
tp477
Rp478
(dp479
btp480
Rp481
(dp482
bag1
(g2
(I372
tp483
Rp484
(dp485
bg2
(I886
tp486
Rp487
(dp488
btp489
Rp490
(dp491
bag1
(g2
(I626
tp492
Rp493
(dp494
bg2
(I591
tp495
Rp496
(dp497
btp498
Rp499
(dp500
bag1
(g364
g2
(I647
tp501
Rp502
(dp503
btp504
Rp505
(dp506
bag1
(g2
(I562
tp507
Rp508
(dp509
bg2
(I560
tp510
Rp511
(dp512
btp513
Rp514
(dp515
bag1
(g2
(I407
tp516
Rp517
(dp518
bg2
(I648
tp519
Rp520
(dp521
btp522
Rp523
(dp524
bag1
(g2
(I33
tp525
Rp526
(dp527
bg2
(I386
tp528
Rp529
(dp530
btp531
Rp532
(dp533
bag1
(g2
(I61
tp534
Rp535
(dp536
bg2
(I188
tp537
Rp538
(dp539
btp540
Rp541
(dp542
bag1
(g2
(I438
tp543
Rp544
(dp545
bg2
(I135
tp546
Rp547
(dp548
btp549
Rp550
(dp551
bag1
(g2
(I469
tp552
Rp553
(dp554
bg535
tp555
Rp556
(dp557
bag1
(g382
g2
(I448
tp558
Rp559
(dp560
btp561
Rp562
(dp563
bag1
(g2
(I726
tp564
Rp565
(dp566
bg2
(I584
tp567
Rp568
(dp569
btp570
Rp571
(dp572
bag1
(g2
(I911
tp573
Rp574
(dp575
bg2
(I379
tp576
Rp577
(dp578
btp579
Rp580
(dp581
bag1
(g2
(I94
tp582
Rp583
(dp584
bg2
(I722
tp585
Rp586
(dp587
btp588
Rp589
(dp590
bag1
(g2
(I446
tp591
Rp592
(dp593
bg2
(I278
tp594
Rp595
(dp596
btp597
Rp598
(dp599
bag1
(g79
g2
(I149
tp600
Rp601
(dp602
btp603
Rp604
(dp605
bag1
(g2
(I133
tp606
Rp607
(dp608
bg2
(I836
tp609
Rp610
(dp611
btp612
Rp613
(dp614
bag1
(g2
(I447
tp615
Rp616
(dp617
bg2
(I314
tp618
Rp619
(dp620
btp621
Rp622
(dp623
bag1
(g2
(I108
tp624
Rp625
(dp626
bg118
tp627
Rp628
(dp629
bag1
(g2
(I359
tp630
Rp631
(dp632
bg2
(I752
tp633
Rp634
(dp635
btp636
Rp637
(dp638
bag1
(g2
(I288
tp639
Rp640
(dp641
bg76
tp642
Rp643
(dp644
bag1
(g2
(I387
tp645
Rp646
(dp647
bg2
(I831
tp648
Rp649
(dp650
btp651
Rp652
(dp653
bag1
(g2
(I839
tp654
Rp655
(dp656
bg2
(I127
tp657
Rp658
(dp659
btp660
Rp661
(dp662
bag1
(g2
(I813
tp663
Rp664
(dp665
bg2
(I298
tp666
Rp667
(dp668
btp669
Rp670
(dp671
bag1
(g2
(I601
tp672
Rp673
(dp674
bg2
(I639
tp675
Rp676
(dp677
btp678
Rp679
(dp680
bag1
(g274
g2
(I618
tp681
Rp682
(dp683
btp684
Rp685
(dp686
bag1
(g2
(I421
tp687
Rp688
(dp689
bg2
(I272
tp690
Rp691
(dp692
btp693
Rp694
(dp695
bag1
(g2
(I916
tp696
Rp697
(dp698
bg2
(I252
tp699
Rp700
(dp701
btp702
Rp703
(dp704
bag1
(g2
(I774
tp705
Rp706
(dp707
bg2
(I688
tp708
Rp709
(dp710
btp711
Rp712
(dp713
bag1
(g2
(I100
tp714
Rp715
(dp716
bg2
(I197
tp717
Rp718
(dp719
btp720
Rp721
(dp722
bag1
(g2
(I808
tp723
Rp724
(dp725
bg2
(I310
tp726
Rp727
(dp728
btp729
Rp730
(dp731
bag1
(g2
(I620
tp732
Rp733
(dp734
bg2
(I151
tp735
Rp736
(dp737
btp738
Rp739
(dp740
bag1
(g2
(I46
tp741
Rp742
(dp743
bg466
tp744
Rp745
(dp746
bag1
(g2
(I362
tp747
Rp748
(dp749
bg2
(I815
tp750
Rp751
(dp752
btp753
Rp754
(dp755
bag1
(g2
(I997
tp756
Rp757
(dp758
bg2
(I824
tp759
Rp760
(dp761
btp762
Rp763
(dp764
bag1
(g451
g2
(I109
tp765
Rp766
(dp767
btp768
Rp769
(dp770
bag1
(g2
(I924
tp771
Rp772
(dp773
bg2
(I92
tp774
Rp775
(dp776
btp777
Rp778
(dp779
bag1
(g2
(I518
tp780
Rp781
(dp782
bg2
(I529
tp783
Rp784
(dp785
btp786
Rp787
(dp788
bag1
(g2
(I15
tp789
Rp790
(dp791
bg2
(I702
tp792
Rp793
(dp794
btp795
Rp796
(dp797
bag1
(g2
(I594
tp798
Rp799
(dp800
bg2
(I354
tp801
Rp802
(dp803
btp804
Rp805
(dp806
bag1
(g2
(I257
tp807
Rp808
(dp809
bg808
tp810
Rp811
(dp812
bag1
(g2
(I957
tp813
Rp814
(dp815
bg49
tp816
Rp817
(dp818
bag1
(g2
(I838
tp819
Rp820
(dp821
bg2
(I850
tp822
Rp823
(dp824
btp825
Rp826
(dp827
bag1
(g2
(I748
tp828
Rp829
(dp830
bg2
(I487
tp831
Rp832
(dp833
btp834
Rp835
(dp836
bag1
(g2
(I95
tp837
Rp838
(dp839
bg583
tp840
Rp841
(dp842
bag1
(g2
(I243
tp843
Rp844
(dp845
bg2
(I256
tp846
Rp847
(dp848
btp849
Rp850
(dp851
bag1
(g568
g2
(I735
tp852
Rp853
(dp854
btp855
Rp856
(dp857
bag1
(g2
(I720
tp858
Rp859
(dp860
bg2
(I658
tp861
Rp862
(dp863
btp864
Rp865
(dp866
bag1
(g2
(I398
tp867
Rp868
(dp869
bg625
tp870
Rp871
(dp872
bag1
(g2
(I737
tp873
Rp874
(dp875
bg2
(I62
tp876
Rp877
(dp878
btp879
Rp880
(dp881
bag1
(g2
(I131
tp882
Rp883
(dp884
bg2
(I353
tp885
Rp886
(dp887
btp888
Rp889
(dp890
bag1
(g2
(I113
tp891
Rp892
(dp893
bg2
(I162
tp894
Rp895
(dp896
btp897
Rp898
(dp899
bag1
(g2
(I772
tp900
Rp901
(dp902
bg2
(I212
tp903
Rp904
(dp905
btp906
Rp907
(dp908
bag1
(g2
(I124
tp909
Rp910
(dp911
bg508
tp912
Rp913
(dp914
bag1
(g2
(I943
tp915
Rp916
(dp917
bg2
(I680
tp918
Rp919
(dp920
btp921
Rp922
(dp923
bag1
(g157
g2
(I225
tp924
Rp925
(dp926
btp927
Rp928
(dp929
bag1
(g2
(I366
tp930
Rp931
(dp932
bg2
(I697
tp933
Rp934
(dp935
btp936
Rp937
(dp938
bag1
(g2
(I743
tp939
Rp940
(dp941
bg2
(I944
tp942
Rp943
(dp944
btp945
Rp946
(dp947
bag1
(g2
(I993
tp948
Rp949
(dp950
bg2
(I833
tp951
Rp952
(dp953
btp954
Rp955
(dp956
bag1
(g2
(I276
tp957
Rp958
(dp959
bg2
(I9
tp960
Rp961
(dp962
btp963
Rp964
(dp965
bag1
(g2
(I363
tp966
Rp967
(dp968
bg2
(I458
tp969
Rp970
(dp971
btp972
Rp973
(dp974
bag1
(g2
(I38
tp975
Rp976
(dp977
bg2
(I796
tp978
Rp979
(dp980
btp981
Rp982
(dp983
bag1
(g2
(I765
tp984
Rp985
(dp986
bg2
(I712
tp987
Rp988
(dp989
btp990
Rp991
(dp992
bag1
(g886
g2
(I481
tp993
Rp994
(dp995
btp996
Rp997
(dp998
bag1
(g2
(I381
tp999
Rp1000
(dp1001
bg343
tp1002
Rp1003
(dp1004
bag1
(g2
(I344
tp1005
Rp1006
(dp1007
bg2
(I884
tp1008
Rp1009
(dp1010
btp1011
Rp1012
(dp1013
bag1
(g2
(I769
tp1014
Rp1015
(dp1016
bg2
(I646
tp1017
Rp1018
(dp1019
btp1020
Rp1021
(dp1022
bag1
(g2
(I141
tp1023
Rp1024
(dp1025
bg2
(I476
tp1026
Rp1027
(dp1028
btp1029
Rp1030
(dp1031
bag1
(g2
(I953
tp1032
Rp1033
(dp1034
bg2
(I382
tp1035
Rp1036
(dp1037
btp1038
Rp1039
(dp1040
bag1
(g2
(I912
tp1041
Rp1042
(dp1043
bg2
(I352
tp1044
Rp1045
(dp1046
btp1047
Rp1048
(dp1049
bag1
(g2
(I112
tp1050
Rp1051
(dp1052
bg2
(I936
tp1053
Rp1054
(dp1055
btp1056
Rp1057
(dp1058
bag1
(g538
g2
(I732
tp1059
Rp1060
(dp1061
btp1062
Rp1063
(dp1064
bag1
(g2
(I460
tp1065
Rp1066
(dp1067
bg2
(I574
tp1068
Rp1069
(dp1070
btp1071
Rp1072
(dp1073
bag1
(g2
(I395
tp1074
Rp1075
(dp1076
bg2
(I414
tp1077
Rp1078
(dp1079
btp1080
Rp1081
(dp1082
bag1
(g2
(I757
tp1083
Rp1084
(dp1085
bg2
(I852
tp1086
Rp1087
(dp1088
btp1089
Rp1090
(dp1091
bag1
(g442
g781
tp1092
Rp1093
(dp1094
bag1
(g2
(I901
tp1095
Rp1096
(dp1097
bg2
(I345
tp1098
Rp1099
(dp1100
btp1101
Rp1102
(dp1103
bag1
(g2
(I249
tp1104
Rp1105
(dp1106
bg2
(I472
tp1107
Rp1108
(dp1109
btp1110
Rp1111
(dp1112
bag1
(g2
(I29
tp1113
Rp1114
(dp1115
bg2
(I914
tp1116
Rp1117
(dp1118
btp1119
Rp1120
(dp1121
bag1
(g292
g2
(I101
tp1122
Rp1123
(dp1124
btp1125
Rp1126
(dp1127
bag1
(g2
(I415
tp1128
Rp1129
(dp1130
bg2
(I104
tp1131
Rp1132
(dp1133
btp1134
Rp1135
(dp1136
bag1
(g2
(I932
tp1137
Rp1138
(dp1139
bg2
(I666
tp1140
Rp1141
(dp1142
btp1143
Rp1144
(dp1145
bag1
(g2
(I856
tp1146
Rp1147
(dp1148
bg2
(I368
tp1149
Rp1150
(dp1151
btp1152
Rp1153
(dp1154
bag1
(g895
g2
(I628
tp1155
Rp1156
(dp1157
btp1158
Rp1159
(dp1160
bag1
(g2
(I78
tp1161
Rp1162
(dp1163
bg2
(I548
tp1164
Rp1165
(dp1166
btp1167
Rp1168
(dp1169
bag1
(g43
g2
(I960
tp1170
Rp1171
(dp1172
btp1173
Rp1174
(dp1175
bag1
(g2
(I544
tp1176
Rp1177
(dp1178
bg2
(I535
tp1179
Rp1180
(dp1181
btp1182
Rp1183
(dp1184
bag1
(g2
(I976
tp1185
Rp1186
(dp1187
bg2
(I71
tp1188
Rp1189
(dp1190
btp1191
Rp1192
(dp1193
bag1
(g2
(I494
tp1194
Rp1195
(dp1196
bg2
(I255
tp1197
Rp1198
(dp1199
btp1200
Rp1201
(dp1202
bag1
(g2
(I590
tp1203
Rp1204
(dp1205
bg2
(I181
tp1206
Rp1207
(dp1208
btp1209
Rp1210
(dp1211
bag1
(g2
(I669
tp1212
Rp1213
(dp1214
bg2
(I855
tp1215
Rp1216
(dp1217
btp1218
Rp1219
(dp1220
bag1
(g2
(I654
tp1221
Rp1222
(dp1223
bg2
(I418
tp1224
Rp1225
(dp1226
btp1227
Rp1228
(dp1229
bag1
(g676
g2
(I738
tp1230
Rp1231
(dp1232
btp1233
Rp1234
(dp1235
bag1
(g1078
g2
(I746
tp1236
Rp1237
(dp1238
btp1239
Rp1240
(dp1241
bag1
(g2
(I848
tp1242
Rp1243
(dp1244
bg2
(I240
tp1245
Rp1246
(dp1247
btp1248
Rp1249
(dp1250
bag1
(g2
(I817
tp1251
Rp1252
(dp1253
bg2
(I492
tp1254
Rp1255
(dp1256
btp1257
Rp1258
(dp1259
bag1
(g2
(I990
tp1260
Rp1261
(dp1262
bg2
(I963
tp1263
Rp1264
(dp1265
btp1266
Rp1267
(dp1268
bag1
(g2
(I163
tp1269
Rp1270
(dp1271
bg2
(I784
tp1272
Rp1273
(dp1274
btp1275
Rp1276
(dp1277
bag1
(g691
g673
tp1278
Rp1279
(dp1280
bag1
(g2
(I63
tp1281
Rp1282
(dp1283
bg2
(I754
tp1284
Rp1285
(dp1286
btp1287
Rp1288
(dp1289
bag1
(g2
(I887
tp1290
Rp1291
(dp1292
bg2
(I683
tp1293
Rp1294
(dp1295
btp1296
Rp1297
(dp1298
bag1
(g2
(I12
tp1299
Rp1300
(dp1301
bg592
tp1302
Rp1303
(dp1304
bag1
(g2
(I903
tp1305
Rp1306
(dp1307
bg916
tp1308
Rp1309
(dp1310
bag1
(g2
(I394
tp1311
Rp1312
(dp1313
bg2
(I928
tp1314
Rp1315
(dp1316
btp1317
Rp1318
(dp1319
bag1
(g2
(I44
tp1320
Rp1321
(dp1322
bg2
(I262
tp1323
Rp1324
(dp1325
btp1326
Rp1327
(dp1328
bag1
(g2
(I875
tp1329
Rp1330
(dp1331
bg892
tp1332
Rp1333
(dp1334
bag1
(g2
(I878
tp1335
Rp1336
(dp1337
bg1033
tp1338
Rp1339
(dp1340
ba.