(lp0
csympy.geometry.point
Point2D
p1
(csympy.core.numbers
Integer
p2
(I144
tp3
Rp4
(dp5
bg2
(I376
tp6
Rp7
(dp8
btp9
Rp10
(dp11
bag1
(g2
(I973
tp12
Rp13
(dp14
bg2
(I594
tp15
Rp16
(dp17
btp18
Rp19
(dp20
bag1
(g2
(I445
tp21
Rp22
(dp23
bg2
(I928
tp24
Rp25
(dp26
btp27
Rp28
(dp29
bag1
(g2
(I572
tp30
Rp31
(dp32
bg2
(I496
tp33
Rp34
(dp35
btp36
Rp37
(dp38
bag1
(g2
(I101
tp39
Rp40
(dp41
bg2
(I792
tp42
Rp43
(dp44
btp45
Rp46
(dp47
bag1
(g2
(I424
tp48
Rp49
(dp50
bg40
tp51
Rp52
(dp53
bag1
(g2
(I289
tp54
Rp55
(dp56
bg2
(I702
tp57
Rp58
(dp59
btp60
Rp61
(dp62
bag1
(g2
(I315
tp63
Rp64
(dp65
bg2
(I593
tp66
Rp67
(dp68
btp69
Rp70
(dp71
bag1
(g2
(I250
tp72
Rp73
(dp74
bg2
(I172
tp75
Rp76
(dp77
btp78
Rp79
(dp80
bag1
(g2
(I129
tp81
Rp82
(dp83
bg2
(I96
tp84
Rp85
(dp86
btp87
Rp88
(dp89
bag1
(g2
(I585
tp90
Rp91
(dp92
bg2
(I800
tp93
Rp94
(dp95
btp96
Rp97
(dp98
bag1
(g2
(I469
tp99
Rp100
(dp101
bg2
(I268
tp102
Rp103
(dp104
btp105
Rp106
(dp107
bag1
(g2
(I554
tp108
Rp109
(dp110
bg2
(I251
tp111
Rp112
(dp113
btp114
Rp115
(dp116
bag1
(g2
(I131
tp117
Rp118
(dp119
bg2
(I633
tp120
Rp121
(dp122
btp123
Rp124
(dp125
bag1
(g2
(I297
tp126
Rp127
(dp128
bg2
(I142
tp129
Rp130
(dp131
btp132
Rp133
(dp134
bag1
(g2
(I247
tp135
Rp136
(dp137
bg2
(I574
tp138
Rp139
(dp140
btp141
Rp142
(dp143
bag1
(g2
(I288
tp144
Rp145
(dp146
bg2
(I690
tp147
Rp148
(dp149
btp150
Rp151
(dp152
bag1
(g2
(I39
tp153
Rp154
(dp155
bg2
(I453
tp156
Rp157
(dp158
btp159
Rp160
(dp161
bag1
(g2
(I580
tp162
Rp163
(dp164
bg2
(I781
tp165
Rp166
(dp167
btp168
Rp169
(dp170
ba.