(lp0
csympy.geometry.point
Point2D
p1
(csympy.core.numbers
Integer
p2
(I158
tp3
Rp4
(dp5
bg2
(I791
tp6
Rp7
(dp8
btp9
Rp10
(dp11
bag1
(g2
(I809
tp12
Rp13
(dp14
bg2
(I642
tp15
Rp16
(dp17
btp18
Rp19
(dp20
bag1
(g2
(I364
tp21
Rp22
(dp23
bg2
(I926
tp24
Rp25
(dp26
btp27
Rp28
(dp29
bag1
(g2
(I83
tp30
Rp31
(dp32
bg2
(I382
tp33
Rp34
(dp35
btp36
Rp37
(dp38
bag1
(g2
(I760
tp39
Rp40
(dp41
bg22
tp42
Rp43
(dp44
bag1
(g2
(I864
tp45
Rp46
(dp47
bg2
(I61
tp48
Rp49
(dp50
btp51
Rp52
(dp53
bag1
(g2
(I269
tp54
Rp55
(dp56
bg2
(I882
tp57
Rp58
(dp59
btp60
Rp61
(dp62
bag1
(g2
(I199
tp63
Rp64
(dp65
bg2
(I806
tp66
Rp67
(dp68
btp69
Rp70
(dp71
bag1
(g2
(I827
tp72
Rp73
(dp74
bg2
(I670
tp75
Rp76
(dp77
btp78
Rp79
(dp80
bag1
(g2
(I318
tp81
Rp82
(dp83
bg2
(I957
tp84
Rp85
(dp86
btp87
Rp88
(dp89
bag1
(g2
(I534
tp90
Rp91
(dp92
bg2
(I442
tp93
Rp94
(dp95
btp96
Rp97
(dp98
bag1
(g2
(I484
tp99
Rp100
(dp101
bg2
(I189
tp102
Rp103
(dp104
btp105
Rp106
(dp107
bag1
(g2
(I961
tp108
Rp109
(dp110
bg2
(I73
tp111
Rp112
(dp113
btp114
Rp115
(dp116
bag1
(g2
(I591
tp117
Rp118
(dp119
bg2
(I164
tp120
Rp121
(dp122
btp123
Rp124
(dp125
bag1
(g2
(I811
tp126
Rp127
(dp128
bg2
(I783
tp129
Rp130
(dp131
btp132
Rp133
(dp134
bag1
(g2
(I519
tp135
Rp136
(dp137
bg2
(I594
tp138
Rp139
(dp140
btp141
Rp142
(dp143
bag1
(g2
(I429
tp144
Rp145
(dp146
bg2
(I159
tp147
Rp148
(dp149
btp150
Rp151
(dp152
bag1
(g2
(I21
tp153
Rp154
(dp155
bg2
(I935
tp156
Rp157
(dp158
btp159
Rp160
(dp161
bag1
(g2
(I173
tp162
Rp163
(dp164
bg2
(I427
tp165
Rp166
(dp167
btp168
Rp169
(dp170
bag1
(g2
(I187
tp171
Rp172
(dp173
bg109
tp174
Rp175
(dp176
ba.