(lp0
csympy.geometry.point
Point2D
p1
(csympy.core.numbers
Integer
p2
(I366
tp3
Rp4
(dp5
bg2
(I248
tp6
Rp7
(dp8
btp9
Rp10
(dp11
bag1
(g2
(I287
tp12
Rp13
(dp14
bg2
(I48
tp15
Rp16
(dp17
btp18
Rp19
(dp20
bag1
(g7
g2
(I294
tp21
Rp22
(dp23
btp24
Rp25
(dp26
bag1
(g2
(I283
tp27
Rp28
(dp29
bg2
(I118
tp30
Rp31
(dp32
btp33
Rp34
(dp35
bag1
(g2
(I152
tp36
Rp37
(dp38
bg2
(I75
tp39
Rp40
(dp41
btp42
Rp43
(dp44
bag1
(g2
(I195
tp45
Rp46
(dp47
bg2
(I520
tp48
Rp49
(dp50
btp51
Rp52
(dp53
bag1
(g2
(I579
tp54
Rp55
(dp56
bg2
(I571
tp57
Rp58
(dp59
btp60
Rp61
(dp62
bag1
(g2
(I948
tp63
Rp64
(dp65
bg2
(I931
tp66
Rp67
(dp68
btp69
Rp70
(dp71
bag1
(g2
(I270
tp72
Rp73
(dp74
bg2
(I241
tp75
Rp76
(dp77
btp78
Rp79
(dp80
bag1
(g2
(I781
tp81
Rp82
(dp83
bg2
(I237
tp84
Rp85
(dp86
btp87
Rp88
(dp89
bag1
(g2
(I736
tp90
Rp91
(dp92
bg2
(I376
tp93
Rp94
(dp95
btp96
Rp97
(dp98
bag1
(g2
(I271
tp99
Rp100
(dp101
bg2
(I878
tp102
Rp103
(dp104
btp105
Rp106
(dp107
bag1
(g2
(I704
tp108
Rp109
(dp110
bg2
(I119
tp111
Rp112
(dp113
btp114
Rp115
(dp116
bag1
(g2
(I959
tp117
Rp118
(dp119
bg109
tp120
Rp121
(dp122
bag1
(g2
(I111
tp123
Rp124
(dp125
bg2
(I862
tp126
Rp127
(dp128
btp129
Rp130
(dp131
bag1
(g2
(I803
tp132
Rp133
(dp134
bg2
(I921
tp135
Rp136
(dp137
btp138
Rp139
(dp140
bag1
(g2
(I663
tp141
Rp142
(dp143
bg2
(I317
tp144
Rp145
(dp146
btp147
Rp148
(dp149
bag1
(g2
(I453
tp150
Rp151
(dp152
bg2
(I818
tp153
Rp154
(dp155
btp156
Rp157
(dp158
bag1
(g2
(I754
tp159
Rp160
(dp161
bg2
(I85
tp162
Rp163
(dp164
btp165
Rp166
(dp167
bag1
(g2
(I107
tp168
Rp169
(dp170
bg2
(I963
tp171
Rp172
(dp173
btp174
Rp175
(dp176
ba.