(lp0
csympy.geometry.point
Point2D
p1
(csympy.core.numbers
Integer
p2
(I672
tp3
Rp4
(dp5
bg2
(I829
tp6
Rp7
(dp8
btp9
Rp10
(dp11
bag1
(g2
(I664
tp12
Rp13
(dp14
bg2
(I512
tp15
Rp16
(dp17
btp18
Rp19
(dp20
ba.