(lp0
csympy.geometry.point
Point2D
p1
(csympy.core.numbers
Integer
p2
(I902
tp3
Rp4
(dp5
bg2
(I5
tp6
Rp7
(dp8
btp9
Rp10
(dp11
bag1
(g2
(I673
tp12
Rp13
(dp14
bg2
(I928
tp15
Rp16
(dp17
btp18
Rp19
(dp20
bag1
(g2
(I514
tp21
Rp22
(dp23
bg2
(I847
tp24
Rp25
(dp26
btp27
Rp28
(dp29
bag1
(g2
(I40
tp30
Rp31
(dp32
bg2
(I180
tp33
Rp34
(dp35
btp36
Rp37
(dp38
bag1
(g2
(I521
tp39
Rp40
(dp41
bg2
(I441
tp42
Rp43
(dp44
btp45
Rp46
(dp47
bag1
(g2
(I572
tp48
Rp49
(dp50
bg2
(I428
tp51
Rp52
(dp53
btp54
Rp55
(dp56
bag1
(g52
g2
(I386
tp57
Rp58
(dp59
btp60
Rp61
(dp62
bag1
(g2
(I100
tp63
Rp64
(dp65
bg2
(I858
tp66
Rp67
(dp68
btp69
Rp70
(dp71
bag1
(g2
(I721
tp72
Rp73
(dp74
bg2
(I544
tp75
Rp76
(dp77
btp78
Rp79
(dp80
bag1
(g2
(I778
tp81
Rp82
(dp83
bg2
(I661
tp84
Rp85
(dp86
btp87
Rp88
(dp89
bag1
(g2
(I623
tp90
Rp91
(dp92
bg2
(I38
tp93
Rp94
(dp95
btp96
Rp97
(dp98
bag1
(g2
(I758
tp99
Rp100
(dp101
bg2
(I133
tp102
Rp103
(dp104
btp105
Rp106
(dp107
bag1
(g2
(I889
tp108
Rp109
(dp110
bg2
(I984
tp111
Rp112
(dp113
btp114
Rp115
(dp116
bag1
(g2
(I973
tp117
Rp118
(dp119
bg2
(I361
tp120
Rp121
(dp122
btp123
Rp124
(dp125
bag1
(g2
(I160
tp126
Rp127
(dp128
bg2
(I749
tp129
Rp130
(dp131
btp132
Rp133
(dp134
bag1
(g2
(I165
tp135
Rp136
(dp137
bg2
(I239
tp138
Rp139
(dp140
btp141
Rp142
(dp143
bag1
(g2
(I351
tp144
Rp145
(dp146
bg2
(I235
tp147
Rp148
(dp149
btp150
Rp151
(dp152
bag1
(g2
(I127
tp153
Rp154
(dp155
bg2
(I332
tp156
Rp157
(dp158
btp159
Rp160
(dp161
bag1
(g2
(I247
tp162
Rp163
(dp164
bg2
(I676
tp165
Rp166
(dp167
btp168
Rp169
(dp170
bag1
(g2
(I154
tp171
Rp172
(dp173
bg2
(I401
tp174
Rp175
(dp176
btp177
Rp178
(dp179
bag1
(g2
(I533
tp180
Rp181
(dp182
bg2
(I981
tp183
Rp184
(dp185
btp186
Rp187
(dp188
bag1
(g2
(I609
tp189
Rp190
(dp191
bg2
(I898
tp192
Rp193
(dp194
btp195
Rp196
(dp197
bag1
(g2
(I904
tp198
Rp199
(dp200
bg2
(I198
tp201
Rp202
(dp203
btp204
Rp205
(dp206
bag1
(g2
(I228
tp207
Rp208
(dp209
bg2
(I887
tp210
Rp211
(dp212
btp213
Rp214
(dp215
bag1
(g2
(I697
tp216
Rp217
(dp218
bg2
(I480
tp219
Rp220
(dp221
btp222
Rp223
(dp224
bag1
(g2
(I224
tp225
Rp226
(dp227
bg2
(I348
tp228
Rp229
(dp230
btp231
Rp232
(dp233
bag1
(g2
(I409
tp234
Rp235
(dp236
bg2
(I115
tp237
Rp238
(dp239
btp240
Rp241
(dp242
bag1
(g2
(I445
tp243
Rp244
(dp245
bg2
(I309
tp246
Rp247
(dp248
btp249
Rp250
(dp251
bag1
(g2
(I472
tp252
Rp253
(dp254
bg2
(I288
tp255
Rp256
(dp257
btp258
Rp259
(dp260
bag1
(g2
(I733
tp261
Rp262
(dp263
bg2
(I194
tp264
Rp265
(dp266
btp267
Rp268
(dp269
ba.