(lp0
csympy.geometry.point
Point2D
p1
(csympy.core.numbers
Integer
p2
(I464
tp3
Rp4
(dp5
bg2
(I997
tp6
Rp7
(dp8
btp9
Rp10
(dp11
bag1
(g2
(I190
tp12
Rp13
(dp14
bg2
(I50
tp15
Rp16
(dp17
btp18
Rp19
(dp20
bag1
(g2
(I255
tp21
Rp22
(dp23
bg2
(I785
tp24
Rp25
(dp26
btp27
Rp28
(dp29
bag1
(g2
(I782
tp30
Rp31
(dp32
bg2
(I183
tp33
Rp34
(dp35
btp36
Rp37
(dp38
bag1
(g2
(I226
tp39
Rp40
(dp41
bg2
(I289
tp42
Rp43
(dp44
btp45
Rp46
(dp47
bag1
(g2
(I694
tp48
Rp49
(dp50
bg2
(I334
tp51
Rp52
(dp53
btp54
Rp55
(dp56
bag1
(g2
(I648
tp57
Rp58
(dp59
bg2
(I549
tp60
Rp61
(dp62
btp63
Rp64
(dp65
bag1
(g2
(I975
tp66
Rp67
(dp68
bg2
(I905
tp69
Rp70
(dp71
btp72
Rp73
(dp74
bag1
(g2
(I555
tp75
Rp76
(dp77
bg2
(I147
tp78
Rp79
(dp80
btp81
Rp82
(dp83
bag1
(g2
(I48
tp84
Rp85
(dp86
bg2
(I753
tp87
Rp88
(dp89
btp90
Rp91
(dp92
bag1
(g2
(I365
tp93
Rp94
(dp95
bg40
tp96
Rp97
(dp98
bag1
(g2
(I284
tp99
Rp100
(dp101
bg2
(I812
tp102
Rp103
(dp104
btp105
Rp106
(dp107
bag1
(g2
(I858
tp108
Rp109
(dp110
bg2
(I449
tp111
Rp112
(dp113
btp114
Rp115
(dp116
bag1
(g2
(I303
tp117
Rp118
(dp119
bg2
(I823
tp120
Rp121
(dp122
btp123
Rp124
(dp125
bag1
(g2
(I36
tp126
Rp127
(dp128
bg2
(I929
tp129
Rp130
(dp131
btp132
Rp133
(dp134
bag1
(g2
(I443
tp135
Rp136
(dp137
bg2
(I725
tp138
Rp139
(dp140
btp141
Rp142
(dp143
bag1
(g2
(I668
tp144
Rp145
(dp146
bg2
(I841
tp147
Rp148
(dp149
btp150
Rp151
(dp152
bag1
(g2
(I546
tp153
Rp154
(dp155
bg2
(I453
tp156
Rp157
(dp158
btp159
Rp160
(dp161
bag1
(g2
(I829
tp162
Rp163
(dp164
bg2
(I413
tp165
Rp166
(dp167
btp168
Rp169
(dp170
bag1
(g2
(I22
tp171
Rp172
(dp173
bg2
(I65
tp174
Rp175
(dp176
btp177
Rp178
(dp179
bag1
(g130
g2
(I495
tp180
Rp181
(dp182
btp183
Rp184
(dp185
bag1
(g2
(I830
tp186
Rp187
(dp188
bg2
(I170
tp189
Rp190
(dp191
btp192
Rp193
(dp194
bag1
(g2
(I595
tp195
Rp196
(dp197
bg2
(I536
tp198
Rp199
(dp200
btp201
Rp202
(dp203
bag1
(g2
(I643
tp204
Rp205
(dp206
bg2
(I760
tp207
Rp208
(dp209
btp210
Rp211
(dp212
bag1
(g2
(I95
tp213
Rp214
(dp215
bg2
(I338
tp216
Rp217
(dp218
btp219
Rp220
(dp221
bag1
(g2
(I922
tp222
Rp223
(dp224
bg2
(I327
tp225
Rp226
(dp227
btp228
Rp229
(dp230
bag1
(g2
(I912
tp231
Rp232
(dp233
bg4
tp234
Rp235
(dp236
bag1
(g2
(I339
tp237
Rp238
(dp239
bg2
(I488
tp240
Rp241
(dp242
btp243
Rp244
(dp245
bag1
(g2
(I168
tp246
Rp247
(dp248
bg2
(I402
tp249
Rp250
(dp251
btp252
Rp253
(dp254
bag1
(g2
(I771
tp255
Rp256
(dp257
bg2
(I305
tp258
Rp259
(dp260
btp261
Rp262
(dp263
ba.