(lp0
csympy.geometry.point
Point2D
p1
(csympy.core.numbers
Integer
p2
(I686
tp3
Rp4
(dp5
bg2
(I148
tp6
Rp7
(dp8
btp9
Rp10
(dp11
bag1
(g2
(I253
tp12
Rp13
(dp14
bg2
(I392
tp15
Rp16
(dp17
btp18
Rp19
(dp20
bag1
(g2
(I337
tp21
Rp22
(dp23
bg2
(I436
tp24
Rp25
(dp26
btp27
Rp28
(dp29
bag1
(g2
(I427
tp30
Rp31
(dp32
bg2
(I995
tp33
Rp34
(dp35
btp36
Rp37
(dp38
bag1
(g2
(I608
tp39
Rp40
(dp41
bg2
(I506
tp42
Rp43
(dp44
btp45
Rp46
(dp47
bag1
(g2
(I836
tp48
Rp49
(dp50
bg2
(I955
tp51
Rp52
(dp53
btp54
Rp55
(dp56
bag1
(g2
(I322
tp57
Rp58
(dp59
bg2
(I282
tp60
Rp61
(dp62
btp63
Rp64
(dp65
bag1
(g2
(I353
tp66
Rp67
(dp68
bg2
(I407
tp69
Rp70
(dp71
btp72
Rp73
(dp74
bag1
(g2
(I343
tp75
Rp76
(dp77
bg2
(I987
tp78
Rp79
(dp80
btp81
Rp82
(dp83
bag1
(g2
(I474
tp84
Rp85
(dp86
bg2
(I223
tp87
Rp88
(dp89
btp90
Rp91
(dp92
bag1
(g2
(I349
tp93
Rp94
(dp95
bg2
(I808
tp96
Rp97
(dp98
btp99
Rp100
(dp101
bag1
(g2
(I61
tp102
Rp103
(dp104
bg2
(I87
tp105
Rp106
(dp107
btp108
Rp109
(dp110
bag1
(g2
(I483
tp111
Rp112
(dp113
bg2
(I292
tp114
Rp115
(dp116
btp117
Rp118
(dp119
bag1
(g2
(I254
tp120
Rp121
(dp122
bg2
(I701
tp123
Rp124
(dp125
btp126
Rp127
(dp128
bag1
(g2
(I183
tp129
Rp130
(dp131
bg2
(I502
tp132
Rp133
(dp134
btp135
Rp136
(dp137
bag1
(g2
(I508
tp138
Rp139
(dp140
bg2
(I480
tp141
Rp142
(dp143
btp144
Rp145
(dp146
bag1
(g25
g2
(I139
tp147
Rp148
(dp149
btp150
Rp151
(dp152
bag1
(g2
(I961
tp153
Rp154
(dp155
bg2
(I591
tp156
Rp157
(dp158
btp159
Rp160
(dp161
bag1
(g2
(I667
tp162
Rp163
(dp164
bg2
(I915
tp165
Rp166
(dp167
btp168
Rp169
(dp170
bag1
(g2
(I624
tp171
Rp172
(dp173
bg2
(I919
tp174
Rp175
(dp176
btp177
Rp178
(dp179
bag1
(g2
(I540
tp180
Rp181
(dp182
bg2
(I245
tp183
Rp184
(dp185
btp186
Rp187
(dp188
bag1
(g2
(I221
tp189
Rp190
(dp191
bg2
(I205
tp192
Rp193
(dp194
btp195
Rp196
(dp197
bag1
(g2
(I360
tp198
Rp199
(dp200
bg2
(I86
tp201
Rp202
(dp203
btp204
Rp205
(dp206
bag1
(g2
(I300
tp207
Rp208
(dp209
bg2
(I762
tp210
Rp211
(dp212
btp213
Rp214
(dp215
bag1
(g2
(I596
tp216
Rp217
(dp218
bg2
(I317
tp219
Rp220
(dp221
btp222
Rp223
(dp224
bag1
(g2
(I662
tp225
Rp226
(dp227
bg2
(I657
tp228
Rp229
(dp230
btp231
Rp232
(dp233
bag1
(g2
(I150
tp234
Rp235
(dp236
bg2
(I698
tp237
Rp238
(dp239
btp240
Rp241
(dp242
bag1
(g2
(I631
tp243
Rp244
(dp245
bg2
(I832
tp246
Rp247
(dp248
btp249
Rp250
(dp251
bag1
(g2
(I73
tp252
Rp253
(dp254
bg2
(I38
tp255
Rp256
(dp257
btp258
Rp259
(dp260
bag1
(g2
(I355
tp261
Rp262
(dp263
bg2
(I815
tp264
Rp265
(dp266
btp267
Rp268
(dp269
ba.