(lp0
csympy.geometry.point
Point2D
p1
(csympy.core.numbers
Integer
p2
(I966
tp3
Rp4
(dp5
bg2
(I14
tp6
Rp7
(dp8
btp9
Rp10
(dp11
bag1
(g2
(I544
tp12
Rp13
(dp14
bg2
(I227
tp15
Rp16
(dp17
btp18
Rp19
(dp20
bag1
(g2
(I419
tp21
Rp22
(dp23
bg2
(I13
tp24
Rp25
(dp26
btp27
Rp28
(dp29
bag1
(g2
(I99
tp30
Rp31
(dp32
bg2
(I2
tp33
Rp34
(dp35
btp36
Rp37
(dp38
bag1
(g2
(I335
tp39
Rp40
(dp41
bg2
(I71
tp42
Rp43
(dp44
btp45
Rp46
(dp47
bag1
(g2
(I353
tp48
Rp49
(dp50
bg2
(I189
tp51
Rp52
(dp53
btp54
Rp55
(dp56
bag1
(g2
(I539
tp57
Rp58
(dp59
bg2
(I219
tp60
Rp61
(dp62
btp63
Rp64
(dp65
bag1
(g2
(I952
tp66
Rp67
(dp68
bg2
(I562
tp69
Rp70
(dp71
btp72
Rp73
(dp74
bag1
(g2
(I724
tp75
Rp76
(dp77
bg2
(I318
tp78
Rp79
(dp80
btp81
Rp82
(dp83
bag1
(g2
(I460
tp84
Rp85
(dp86
bg2
(I859
tp87
Rp88
(dp89
btp90
Rp91
(dp92
bag1
(g2
(I124
tp93
Rp94
(dp95
bg2
(I960
tp96
Rp97
(dp98
btp99
Rp100
(dp101
bag1
(g2
(I905
tp102
Rp103
(dp104
bg2
(I679
tp105
Rp106
(dp107
btp108
Rp109
(dp110
bag1
(g2
(I149
tp111
Rp112
(dp113
bg2
(I702
tp114
Rp115
(dp116
btp117
Rp118
(dp119
bag1
(g2
(I368
tp120
Rp121
(dp122
bg2
(I887
tp123
Rp124
(dp125
btp126
Rp127
(dp128
bag1
(g2
(I233
tp129
Rp130
(dp131
bg2
(I595
tp132
Rp133
(dp134
btp135
Rp136
(dp137
bag1
(g2
(I812
tp138
Rp139
(dp140
bg2
(I41
tp141
Rp142
(dp143
btp144
Rp145
(dp146
bag1
(g2
(I298
tp147
Rp148
(dp149
bg2
(I549
tp150
Rp151
(dp152
btp153
Rp154
(dp155
bag1
(g2
(I259
tp156
Rp157
(dp158
bg2
(I511
tp159
Rp160
(dp161
btp162
Rp163
(dp164
bag1
(g2
(I642
tp165
Rp166
(dp167
bg2
(I477
tp168
Rp169
(dp170
btp171
Rp172
(dp173
bag1
(g2
(I246
tp174
Rp175
(dp176
bg2
(I754
tp177
Rp178
(dp179
btp180
Rp181
(dp182
bag1
(g2
(I830
tp183
Rp184
(dp185
bg2
(I458
tp186
Rp187
(dp188
btp189
Rp190
(dp191
bag1
(g2
(I86
tp192
Rp193
(dp194
bg2
(I123
tp195
Rp196
(dp197
btp198
Rp199
(dp200
bag1
(g2
(I356
tp201
Rp202
(dp203
bg2
(I211
tp204
Rp205
(dp206
btp207
Rp208
(dp209
bag1
(g2
(I972
tp210
Rp211
(dp212
bg2
(I768
tp213
Rp214
(dp215
btp216
Rp217
(dp218
bag1
(g2
(I823
tp219
Rp220
(dp221
bg2
(I188
tp222
Rp223
(dp224
btp225
Rp226
(dp227
bag1
(g2
(I79
tp228
Rp229
(dp230
bg2
(I213
tp231
Rp232
(dp233
btp234
Rp235
(dp236
bag1
(g2
(I254
tp237
Rp238
(dp239
bg2
(I550
tp240
Rp241
(dp242
btp243
Rp244
(dp245
bag1
(g2
(I125
tp246
Rp247
(dp248
bg2
(I101
tp249
Rp250
(dp251
btp252
Rp253
(dp254
bag1
(g2
(I862
tp255
Rp256
(dp257
bg2
(I939
tp258
Rp259
(dp260
btp261
Rp262
(dp263
bag1
(g2
(I890
tp264
Rp265
(dp266
bg2
(I217
tp267
Rp268
(dp269
btp270
Rp271
(dp272
ba.