(lp0
csympy.geometry.point
Point2D
p1
(csympy.core.numbers
Integer
p2
(I956
tp3
Rp4
(dp5
bg2
(I833
tp6
Rp7
(dp8
btp9
Rp10
(dp11
bag1
(g2
(I330
tp12
Rp13
(dp14
bg2
(I246
tp15
Rp16
(dp17
btp18
Rp19
(dp20
bag1
(g2
(I373
tp21
Rp22
(dp23
bg2
(I148
tp24
Rp25
(dp26
btp27
Rp28
(dp29
bag1
(g2
(I388
tp30
Rp31
(dp32
bg2
(I712
tp33
Rp34
(dp35
btp36
Rp37
(dp38
bag1
(g2
(I810
tp39
Rp40
(dp41
bg2
(I859
tp42
Rp43
(dp44
btp45
Rp46
(dp47
bag1
(g2
(I908
tp48
Rp49
(dp50
bg2
(I316
tp51
Rp52
(dp53
btp54
Rp55
(dp56
bag1
(g2
(I875
tp57
Rp58
(dp59
bg2
(I441
tp60
Rp61
(dp62
btp63
Rp64
(dp65
bag1
(g2
(I608
tp66
Rp67
(dp68
bg2
(I575
tp69
Rp70
(dp71
btp72
Rp73
(dp74
bag1
(g2
(I542
tp75
Rp76
(dp77
bg2
(I358
tp78
Rp79
(dp80
btp81
Rp82
(dp83
bag1
(g2
(I619
tp84
Rp85
(dp86
bg2
(I495
tp87
Rp88
(dp89
btp90
Rp91
(dp92
bag1
(g2
(I357
tp93
Rp94
(dp95
bg2
(I276
tp96
Rp97
(dp98
btp99
Rp100
(dp101
bag1
(g2
(I990
tp102
Rp103
(dp104
bg2
(I231
tp105
Rp106
(dp107
btp108
Rp109
(dp110
bag1
(g2
(I463
tp111
Rp112
(dp113
bg2
(I588
tp114
Rp115
(dp116
btp117
Rp118
(dp119
bag1
(g2
(I511
tp120
Rp121
(dp122
bg2
(I434
tp123
Rp124
(dp125
btp126
Rp127
(dp128
bag1
(g2
(I881
tp129
Rp130
(dp131
bg2
(I762
tp132
Rp133
(dp134
btp135
Rp136
(dp137
bag1
(g2
(I960
tp138
Rp139
(dp140
bg2
(I47
tp141
Rp142
(dp143
btp144
Rp145
(dp146
bag1
(g2
(I923
tp147
Rp148
(dp149
bg2
(I54
tp150
Rp151
(dp152
btp153
Rp154
(dp155
bag1
(g2
(I195
tp156
Rp157
(dp158
bg2
(I697
tp159
Rp160
(dp161
btp162
Rp163
(dp164
bag1
(g2
(I351
tp165
Rp166
(dp167
bg2
(I523
tp168
Rp169
(dp170
btp171
Rp172
(dp173
bag1
(g2
(I402
tp174
Rp175
(dp176
bg2
(I532
tp177
Rp178
(dp179
btp180
Rp181
(dp182
bag1
(g2
(I817
tp183
Rp184
(dp185
bg2
(I205
tp186
Rp187
(dp188
btp189
Rp190
(dp191
bag1
(g2
(I23
tp192
Rp193
(dp194
bg2
(I21
tp195
Rp196
(dp197
btp198
Rp199
(dp200
bag1
(g2
(I128
tp201
Rp202
(dp203
bg2
(I209
tp204
Rp205
(dp206
btp207
Rp208
(dp209
bag1
(g2
(I79
tp210
Rp211
(dp212
bg2
(I592
tp213
Rp214
(dp215
btp216
Rp217
(dp218
bag1
(g2
(I340
tp219
Rp220
(dp221
bg2
(I666
tp222
Rp223
(dp224
btp225
Rp226
(dp227
bag1
(g2
(I366
tp228
Rp229
(dp230
bg2
(I860
tp231
Rp232
(dp233
btp234
Rp235
(dp236
bag1
(g2
(I372
tp237
Rp238
(dp239
bg2
(I984
tp240
Rp241
(dp242
btp243
Rp244
(dp245
bag1
(g2
(I304
tp246
Rp247
(dp248
bg2
(I821
tp249
Rp250
(dp251
btp252
Rp253
(dp254
bag1
(g2
(I194
tp255
Rp256
(dp257
bg2
(I6
tp258
Rp259
(dp260
btp261
Rp262
(dp263
bag1
(g2
(I688
tp264
Rp265
(dp266
bg2
(I268
tp267
Rp268
(dp269
btp270
Rp271
(dp272
bag1
(g2
(I862
tp273
Rp274
(dp275
bg2
(I792
tp276
Rp277
(dp278
btp279
Rp280
(dp281
bag1
(g79
g2
(I714
tp282
Rp283
(dp284
btp285
Rp286
(dp287
bag1
(g2
(I741
tp288
Rp289
(dp290
bg2
(I471
tp291
Rp292
(dp293
btp294
Rp295
(dp296
bag1
(g2
(I311
tp297
Rp298
(dp299
bg2
(I641
tp300
Rp301
(dp302
btp303
Rp304
(dp305
bag1
(g2
(I53
tp306
Rp307
(dp308
bg2
(I658
tp309
Rp310
(dp311
btp312
Rp313
(dp314
bag1
(g2
(I557
tp315
Rp316
(dp317
bg2
(I346
tp318
Rp319
(dp320
btp321
Rp322
(dp323
bag1
(g2
(I257
tp324
Rp325
(dp326
bg2
(I744
tp327
Rp328
(dp329
btp330
Rp331
(dp332
bag1
(g2
(I132
tp333
Rp334
(dp335
bg2
(I39
tp336
Rp337
(dp338
btp339
Rp340
(dp341
bag1
(g2
(I961
tp342
Rp343
(dp344
bg2
(I398
tp345
Rp346
(dp347
btp348
Rp349
(dp350
bag1
(g2
(I159
tp351
Rp352
(dp353
bg2
(I309
tp354
Rp355
(dp356
btp357
Rp358
(dp359
bag1
(g2
(I456
tp360
Rp361
(dp362
bg2
(I623
tp363
Rp364
(dp365
btp366
Rp367
(dp368
bag1
(g2
(I942
tp369
Rp370
(dp371
bg2
(I602
tp372
Rp373
(dp374
btp375
Rp376
(dp377
bag1
(g2
(I376
tp378
Rp379
(dp380
bg2
(I252
tp381
Rp382
(dp383
btp384
Rp385
(dp386
bag1
(g106
g2
(I489
tp387
Rp388
(dp389
btp390
Rp391
(dp392
bag1
(g2
(I657
tp393
Rp394
(dp395
bg2
(I10
tp396
Rp397
(dp398
btp399
Rp400
(dp401
bag1
(g2
(I466
tp402
Rp403
(dp404
bg370
tp405
Rp406
(dp407
bag1
(g2
(I895
tp408
Rp409
(dp410
bg2
(I317
tp411
Rp412
(dp413
btp414
Rp415
(dp416
bag1
(g2
(I685
tp417
Rp418
(dp419
bg2
(I100
tp420
Rp421
(dp422
btp423
Rp424
(dp425
bag1
(g2
(I204
tp426
Rp427
(dp428
bg2
(I104
tp429
Rp430
(dp431
btp432
Rp433
(dp434
bag1
(g2
(I962
tp435
Rp436
(dp437
bg2
(I840
tp438
Rp439
(dp440
btp441
Rp442
(dp443
bag1
(g2
(I334
tp444
Rp445
(dp446
bg2
(I430
tp447
Rp448
(dp449
btp450
Rp451
(dp452
bag1
(g2
(I89
tp453
Rp454
(dp455
bg2
(I487
tp456
Rp457
(dp458
btp459
Rp460
(dp461
bag1
(g2
(I761
tp462
Rp463
(dp464
bg2
(I197
tp465
Rp466
(dp467
btp468
Rp469
(dp470
bag1
(g2
(I464
tp471
Rp472
(dp473
bg2
(I871
tp474
Rp475
(dp476
btp477
Rp478
(dp479
bag1
(g2
(I667
tp480
Rp481
(dp482
bg2
(I65
tp483
Rp484
(dp485
btp486
Rp487
(dp488
bag1
(g2
(I312
tp489
Rp490
(dp491
bg2
(I137
tp492
Rp493
(dp494
btp495
Rp496
(dp497
bag1
(g2
(I410
tp498
Rp499
(dp500
bg85
tp501
Rp502
(dp503
bag1
(g2
(I22
tp504
Rp505
(dp506
bg2
(I70
tp507
Rp508
(dp509
btp510
Rp511
(dp512
bag1
(g2
(I995
tp513
Rp514
(dp515
bg2
(I233
tp516
Rp517
(dp518
btp519
Rp520
(dp521
bag1
(g2
(I684
tp522
Rp523
(dp524
bg2
(I293
tp525
Rp526
(dp527
btp528
Rp529
(dp530
bag1
(g2
(I587
tp531
Rp532
(dp533
bg2
(I967
tp534
Rp535
(dp536
btp537
Rp538
(dp539
bag1
(g2
(I954
tp540
Rp541
(dp542
bg2
(I323
tp543
Rp544
(dp545
btp546
Rp547
(dp548
bag1
(g2
(I55
tp549
Rp550
(dp551
bg2
(I177
tp552
Rp553
(dp554
btp555
Rp556
(dp557
bag1
(g2
(I179
tp558
Rp559
(dp560
bg139
tp561
Rp562
(dp563
bag1
(g2
(I982
tp564
Rp565
(dp566
bg2
(I349
tp567
Rp568
(dp569
btp570
Rp571
(dp572
bag1
(g2
(I325
tp573
Rp574
(dp575
bg2
(I809
tp576
Rp577
(dp578
btp579
Rp580
(dp581
bag1
(g2
(I112
tp582
Rp583
(dp584
bg2
(I163
tp585
Rp586
(dp587
btp588
Rp589
(dp590
bag1
(g2
(I18
tp591
Rp592
(dp593
bg2
(I582
tp594
Rp595
(dp596
btp597
Rp598
(dp599
bag1
(g2
(I950
tp600
Rp601
(dp602
bg2
(I17
tp603
Rp604
(dp605
btp606
Rp607
(dp608
bag1
(g2
(I886
tp609
Rp610
(dp611
bg2
(I551
tp612
Rp613
(dp614
btp615
Rp616
(dp617
bag1
(g2
(I629
tp618
Rp619
(dp620
bg2
(I143
tp621
Rp622
(dp623
btp624
Rp625
(dp626
bag1
(g2
(I77
tp627
Rp628
(dp629
bg2
(I465
tp630
Rp631
(dp632
btp633
Rp634
(dp635
bag1
(g2
(I789
tp636
Rp637
(dp638
bg2
(I347
tp639
Rp640
(dp641
btp642
Rp643
(dp644
bag1
(g2
(I577
tp645
Rp646
(dp647
bg2
(I975
tp648
Rp649
(dp650
btp651
Rp652
(dp653
bag1
(g2
(I379
tp654
Rp655
(dp656
bg2
(I742
tp657
Rp658
(dp659
btp660
Rp661
(dp662
bag1
(g2
(I711
tp663
Rp664
(dp665
bg2
(I518
tp666
Rp667
(dp668
btp669
Rp670
(dp671
bag1
(g2
(I190
tp672
Rp673
(dp674
bg2
(I436
tp675
Rp676
(dp677
btp678
Rp679
(dp680
bag1
(g553
g2
(I86
tp681
Rp682
(dp683
btp684
Rp685
(dp686
bag1
(g2
(I303
tp687
Rp688
(dp689
bg2
(I408
tp690
Rp691
(dp692
btp693
Rp694
(dp695
bag1
(g2
(I937
tp696
Rp697
(dp698
bg2
(I649
tp699
Rp700
(dp701
btp702
Rp703
(dp704
bag1
(g2
(I180
tp705
Rp706
(dp707
bg2
(I725
tp708
Rp709
(dp710
btp711
Rp712
(dp713
bag1
(g2
(I820
tp714
Rp715
(dp716
bg2
(I332
tp717
Rp718
(dp719
btp720
Rp721
(dp722
bag1
(g2
(I237
tp723
Rp724
(dp725
bg2
(I583
tp726
Rp727
(dp728
btp729
Rp730
(dp731
bag1
(g2
(I397
tp732
Rp733
(dp734
bg2
(I686
tp735
Rp736
(dp737
btp738
Rp739
(dp740
bag1
(g2
(I932
tp741
Rp742
(dp743
bg2
(I665
tp744
Rp745
(dp746
btp747
Rp748
(dp749
bag1
(g2
(I550
tp750
Rp751
(dp752
bg2
(I187
tp753
Rp754
(dp755
btp756
Rp757
(dp758
bag1
(g2
(I3
tp759
Rp760
(dp761
bg2
(I721
tp762
Rp763
(dp764
btp765
Rp766
(dp767
bag1
(g709
g2
(I418
tp768
Rp769
(dp770
btp771
Rp772
(dp773
bag1
(g2
(I815
tp774
Rp775
(dp776
bg2
(I411
tp777
Rp778
(dp779
btp780
Rp781
(dp782
bag1
(g2
(I783
tp783
Rp784
(dp785
bg103
tp786
Rp787
(dp788
bag1
(g2
(I626
tp789
Rp790
(dp791
bg2
(I167
tp792
Rp793
(dp794
btp795
Rp796
(dp797
bag1
(g2
(I854
tp798
Rp799
(dp800
bg2
(I488
tp801
Rp802
(dp803
btp804
Rp805
(dp806
bag1
(g115
g2
(I297
tp807
Rp808
(dp809
btp810
Rp811
(dp812
bag1
(g2
(I755
tp813
Rp814
(dp815
bg2
(I704
tp816
Rp817
(dp818
btp819
Rp820
(dp821
bag1
(g2
(I360
tp822
Rp823
(dp824
bg2
(I443
tp825
Rp826
(dp827
btp828
Rp829
(dp830
bag1
(g2
(I217
tp831
Rp832
(dp833
bg2
(I368
tp834
Rp835
(dp836
btp837
Rp838
(dp839
bag1
(g364
g2
(I633
tp840
Rp841
(dp842
btp843
Rp844
(dp845
bag1
(g2
(I395
tp846
Rp847
(dp848
bg2
(I345
tp849
Rp850
(dp851
btp852
Rp853
(dp854
bag1
(g2
(I435
tp855
Rp856
(dp857
bg2
(I558
tp858
Rp859
(dp860
btp861
Rp862
(dp863
bag1
(g2
(I321
tp864
Rp865
(dp866
bg2
(I953
tp867
Rp868
(dp869
btp870
Rp871
(dp872
bag1
(g2
(I354
tp873
Rp874
(dp875
bg2
(I335
tp876
Rp877
(dp878
btp879
Rp880
(dp881
bag1
(g631
g2
(I834
tp882
Rp883
(dp884
btp885
Rp886
(dp887
bag1
(g2
(I526
tp888
Rp889
(dp890
bg2
(I63
tp891
Rp892
(dp893
btp894
Rp895
(dp896
bag1
(g2
(I26
tp897
Rp898
(dp899
bg2
(I788
tp900
Rp901
(dp902
btp903
Rp904
(dp905
bag1
(g745
g2
(I292
tp906
Rp907
(dp908
btp909
Rp910
(dp911
bag1
(g2
(I835
tp912
Rp913
(dp914
bg2
(I573
tp915
Rp916
(dp917
btp918
Rp919
(dp920
bag1
(g2
(I925
tp921
Rp922
(dp923
bg2
(I706
tp924
Rp925
(dp926
btp927
Rp928
(dp929
bag1
(g2
(I866
tp930
Rp931
(dp932
bg2
(I453
tp933
Rp934
(dp935
btp936
Rp937
(dp938
bag1
(g2
(I651
tp939
Rp940
(dp941
bg2
(I365
tp942
Rp943
(dp944
btp945
Rp946
(dp947
bag1
(g2
(I158
tp948
Rp949
(dp950
bg2
(I536
tp951
Rp952
(dp953
btp954
Rp955
(dp956
bag1
(g2
(I356
tp957
Rp958
(dp959
bg2
(I985
tp960
Rp961
(dp962
btp963
Rp964
(dp965
bag1
(g2
(I869
tp966
Rp967
(dp968
bg2
(I97
tp969
Rp970
(dp971
btp972
Rp973
(dp974
bag1
(g2
(I48
tp975
Rp976
(dp977
bg2
(I784
tp978
Rp979
(dp980
btp981
Rp982
(dp983
bag1
(g943
g2
(I25
tp984
Rp985
(dp986
btp987
Rp988
(dp989
bag1
(g2
(I887
tp990
Rp991
(dp992
bg2
(I559
tp993
Rp994
(dp995
btp996
Rp997
(dp998
bag1
(g2
(I69
tp999
Rp1000
(dp1001
bg2
(I109
tp1002
Rp1003
(dp1004
btp1005
Rp1006
(dp1007
bag1
(g2
(I924
tp1008
Rp1009
(dp1010
bg2
(I631
tp1011
Rp1012
(dp1013
btp1014
Rp1015
(dp1016
bag1
(g2
(I176
tp1017
Rp1018
(dp1019
bg2
(I545
tp1020
Rp1021
(dp1022
btp1023
Rp1024
(dp1025
bag1
(g2
(I964
tp1026
Rp1027
(dp1028
bg2
(I997
tp1029
Rp1030
(dp1031
btp1032
Rp1033
(dp1034
bag1
(g2
(I253
tp1035
Rp1036
(dp1037
bg814
tp1038
Rp1039
(dp1040
bag1
(g2
(I818
tp1041
Rp1042
(dp1043
bg2
(I352
tp1044
Rp1045
(dp1046
btp1047
Rp1048
(dp1049
bag1
(g841
g2
(I277
tp1050
Rp1051
(dp1052
btp1053
Rp1054
(dp1055
bag1
(g2
(I620
tp1056
Rp1057
(dp1058
bg2
(I490
tp1059
Rp1060
(dp1061
btp1062
Rp1063
(dp1064
bag1
(g2
(I824
tp1065
Rp1066
(dp1067
bg2
(I431
tp1068
Rp1069
(dp1070
btp1071
Rp1072
(dp1073
bag1
(g2
(I782
tp1074
Rp1075
(dp1076
bg2
(I50
tp1077
Rp1078
(dp1079
btp1080
Rp1081
(dp1082
bag1
(g2
(I612
tp1083
Rp1084
(dp1085
bg2
(I751
tp1086
Rp1087
(dp1088
btp1089
Rp1090
(dp1091
bag1
(g2
(I565
tp1092
Rp1093
(dp1094
bg2
(I155
tp1095
Rp1096
(dp1097
btp1098
Rp1099
(dp1100
bag1
(g2
(I52
tp1101
Rp1102
(dp1103
bg2
(I607
tp1104
Rp1105
(dp1106
btp1107
Rp1108
(dp1109
bag1
(g2
(I533
tp1110
Rp1111
(dp1112
bg2
(I654
tp1113
Rp1114
(dp1115
btp1116
Rp1117
(dp1118
bag1
(g2
(I385
tp1119
Rp1120
(dp1121
bg2
(I768
tp1122
Rp1123
(dp1124
btp1125
Rp1126
(dp1127
bag1
(g2
(I890
tp1128
Rp1129
(dp1130
bg2
(I787
tp1131
Rp1132
(dp1133
btp1134
Rp1135
(dp1136
bag1
(g2
(I892
tp1137
Rp1138
(dp1139
bg2
(I215
tp1140
Rp1141
(dp1142
btp1143
Rp1144
(dp1145
bag1
(g2
(I801
tp1146
Rp1147
(dp1148
bg2
(I499
tp1149
Rp1150
(dp1151
btp1152
Rp1153
(dp1154
bag1
(g2
(I549
tp1155
Rp1156
(dp1157
bg2
(I259
tp1158
Rp1159
(dp1160
btp1161
Rp1162
(dp1163
bag1
(g2
(I451
tp1164
Rp1165
(dp1166
bg2
(I336
tp1167
Rp1168
(dp1169
btp1170
Rp1171
(dp1172
bag1
(g2
(I300
tp1173
Rp1174
(dp1175
bg976
tp1176
Rp1177
(dp1178
bag1
(g2
(I681
tp1179
Rp1180
(dp1181
bg2
(I262
tp1182
Rp1183
(dp1184
btp1185
Rp1186
(dp1187
bag1
(g2
(I832
tp1188
Rp1189
(dp1190
bg2
(I738
tp1191
Rp1192
(dp1193
btp1194
Rp1195
(dp1196
bag1
(g1051
g2
(I182
tp1197
Rp1198
(dp1199
btp1200
Rp1201
(dp1202
bag1
(g2
(I452
tp1203
Rp1204
(dp1205
bg2
(I645
tp1206
Rp1207
(dp1208
btp1209
Rp1210
(dp1211
bag1
(g2
(I978
tp1212
Rp1213
(dp1214
bg2
(I80
tp1215
Rp1216
(dp1217
btp1218
Rp1219
(dp1220
bag1
(g2
(I716
tp1221
Rp1222
(dp1223
bg2
(I433
tp1224
Rp1225
(dp1226
btp1227
Rp1228
(dp1229
bag1
(g2
(I400
tp1230
Rp1231
(dp1232
bg2
(I46
tp1233
Rp1234
(dp1235
btp1236
Rp1237
(dp1238
bag1
(g388
g2
(I935
tp1239
Rp1240
(dp1241
btp1242
Rp1243
(dp1244
bag1
(g2
(I758
tp1245
Rp1246
(dp1247
bg2
(I406
tp1248
Rp1249
(dp1250
btp1251
Rp1252
(dp1253
bag1
(g2
(I460
tp1254
Rp1255
(dp1256
bg2
(I353
tp1257
Rp1258
(dp1259
btp1260
Rp1261
(dp1262
bag1
(g2
(I553
tp1263
Rp1264
(dp1265
bg2
(I966
tp1266
Rp1267
(dp1268
btp1269
Rp1270
(dp1271
bag1
(g2
(I226
tp1272
Rp1273
(dp1274
bg2
(I85
tp1275
Rp1276
(dp1277
btp1278
Rp1279
(dp1280
bag1
(g2
(I327
tp1281
Rp1282
(dp1283
bg2
(I290
tp1284
Rp1285
(dp1286
btp1287
Rp1288
(dp1289
bag1
(g2
(I189
tp1290
Rp1291
(dp1292
bg2
(I364
tp1293
Rp1294
(dp1295
btp1296
Rp1297
(dp1298
bag1
(g2
(I20
tp1299
Rp1300
(dp1301
bg940
tp1302
Rp1303
(dp1304
bag1
(g2
(I772
tp1305
Rp1306
(dp1307
bg2
(I483
tp1308
Rp1309
(dp1310
btp1311
Rp1312
(dp1313
bag1
(g2
(I785
tp1314
Rp1315
(dp1316
bg2
(I62
tp1317
Rp1318
(dp1319
btp1320
Rp1321
(dp1322
bag1
(g2
(I130
tp1323
Rp1324
(dp1325
bg574
tp1326
Rp1327
(dp1328
bag1
(g2
(I567
tp1329
Rp1330
(dp1331
bg2
(I43
tp1332
Rp1333
(dp1334
btp1335
Rp1336
(dp1337
bag1
(g2
(I160
tp1338
Rp1339
(dp1340
bg2
(I868
tp1341
Rp1342
(dp1343
btp1344
Rp1345
(dp1346
bag1
(g2
(I584
tp1347
Rp1348
(dp1349
bg2
(I298
tp1350
Rp1351
(dp1352
btp1353
Rp1354
(dp1355
bag1
(g2
(I910
tp1356
Rp1357
(dp1358
bg2
(I539
tp1359
Rp1360
(dp1361
btp1362
Rp1363
(dp1364
bag1
(g613
g2
(I494
tp1365
Rp1366
(dp1367
btp1368
Rp1369
(dp1370
bag1
(g2
(I605
tp1371
Rp1372
(dp1373
bg2
(I737
tp1374
Rp1375
(dp1376
btp1377
Rp1378
(dp1379
bag1
(g2
(I424
tp1380
Rp1381
(dp1382
bg958
tp1383
Rp1384
(dp1385
bag1
(g2
(I166
tp1386
Rp1387
(dp1388
bg2
(I516
tp1389
Rp1390
(dp1391
btp1392
Rp1393
(dp1394
bag1
(g2
(I391
tp1395
Rp1396
(dp1397
bg2
(I442
tp1398
Rp1399
(dp1400
btp1401
Rp1402
(dp1403
bag1
(g586
g1306
tp1404
Rp1405
(dp1406
bag1
(g2
(I698
tp1407
Rp1408
(dp1409
bg2
(I933
tp1410
Rp1411
(dp1412
btp1413
Rp1414
(dp1415
bag1
(g2
(I186
tp1416
Rp1417
(dp1418
bg2
(I981
tp1419
Rp1420
(dp1421
btp1422
Rp1423
(dp1424
bag1
(g2
(I480
tp1425
Rp1426
(dp1427
bg2
(I192
tp1428
Rp1429
(dp1430
btp1431
Rp1432
(dp1433
bag1
(g2
(I409
tp1434
Rp1435
(dp1436
bg2
(I427
tp1437
Rp1438
(dp1439
btp1440
Rp1441
(dp1442
bag1
(g2
(I221
tp1443
Rp1444
(dp1445
bg2
(I264
tp1446
Rp1447
(dp1448
btp1449
Rp1450
(dp1451
bag1
(g2
(I64
tp1452
Rp1453
(dp1454
bg2
(I585
tp1455
Rp1456
(dp1457
btp1458
Rp1459
(dp1460
bag1
(g2
(I208
tp1461
Rp1462
(dp1463
bg2
(I852
tp1464
Rp1465
(dp1466
btp1467
Rp1468
(dp1469
bag1
(g301
g2
(I145
tp1470
Rp1471
(dp1472
btp1473
Rp1474
(dp1475
bag1
(g2
(I439
tp1476
Rp1477
(dp1478
bg2
(I902
tp1479
Rp1480
(dp1481
btp1482
Rp1483
(dp1484
bag1
(g1390
g2
(I420
tp1485
Rp1486
(dp1487
btp1488
Rp1489
(dp1490
bag1
(g2
(I394
tp1491
Rp1492
(dp1493
bg2
(I850
tp1494
Rp1495
(dp1496
btp1497
Rp1498
(dp1499
bag1
(g2
(I879
tp1500
Rp1501
(dp1502
bg2
(I745
tp1503
Rp1504
(dp1505
btp1506
Rp1507
(dp1508
bag1
(g2
(I540
tp1509
Rp1510
(dp1511
bg2
(I918
tp1512
Rp1513
(dp1514
btp1515
Rp1516
(dp1517
bag1
(g2
(I718
tp1518
Rp1519
(dp1520
bg2
(I320
tp1521
Rp1522
(dp1523
btp1524
Rp1525
(dp1526
bag1
(g2
(I472
tp1527
Rp1528
(dp1529
bg2
(I945
tp1530
Rp1531
(dp1532
btp1533
Rp1534
(dp1535
bag1
(g2
(I752
tp1536
Rp1537
(dp1538
bg2
(I438
tp1539
Rp1540
(dp1541
btp1542
Rp1543
(dp1544
bag1
(g2
(I952
tp1545
Rp1546
(dp1547
bg2
(I599
tp1548
Rp1549
(dp1550
btp1551
Rp1552
(dp1553
bag1
(g2
(I546
tp1554
Rp1555
(dp1556
bg2
(I440
tp1557
Rp1558
(dp1559
btp1560
Rp1561
(dp1562
bag1
(g2
(I943
tp1563
Rp1564
(dp1565
bg2
(I106
tp1566
Rp1567
(dp1568
btp1569
Rp1570
(dp1571
bag1
(g1087
g2
(I564
tp1572
Rp1573
(dp1574
btp1575
Rp1576
(dp1577
bag1
(g2
(I693
tp1578
Rp1579
(dp1580
bg2
(I569
tp1581
Rp1582
(dp1583
btp1584
Rp1585
(dp1586
bag1
(g2
(I126
tp1587
Rp1588
(dp1589
bg2
(I957
tp1590
Rp1591
(dp1592
btp1593
Rp1594
(dp1595
bag1
(g2
(I223
tp1596
Rp1597
(dp1598
bg2
(I538
tp1599
Rp1600
(dp1601
btp1602
Rp1603
(dp1604
bag1
(g2
(I597
tp1605
Rp1606
(dp1607
bg1291
tp1608
Rp1609
(dp1610
bag1
(g2
(I362
tp1611
Rp1612
(dp1613
bg1057
tp1614
Rp1615
(dp1616
bag1
(g2
(I58
tp1617
Rp1618
(dp1619
bg2
(I322
tp1620
Rp1621
(dp1622
btp1623
Rp1624
(dp1625
bag1
(g2
(I572
tp1626
Rp1627
(dp1628
bg2
(I898
tp1629
Rp1630
(dp1631
btp1632
Rp1633
(dp1634
bag1
(g2
(I56
tp1635
Rp1636
(dp1637
bg2
(I968
tp1638
Rp1639
(dp1640
btp1641
Rp1642
(dp1643
bag1
(g2
(I926
tp1644
Rp1645
(dp1646
bg2
(I337
tp1647
Rp1648
(dp1649
btp1650
Rp1651
(dp1652
bag1
(g2
(I461
tp1653
Rp1654
(dp1655
bg2
(I238
tp1656
Rp1657
(dp1658
btp1659
Rp1660
(dp1661
bag1
(g2
(I342
tp1662
Rp1663
(dp1664
bg2
(I883
tp1665
Rp1666
(dp1667
btp1668
Rp1669
(dp1670
bag1
(g2
(I642
tp1671
Rp1672
(dp1673
bg2
(I447
tp1674
Rp1675
(dp1676
btp1677
Rp1678
(dp1679
bag1
(g2
(I885
tp1680
Rp1681
(dp1682
bg847
tp1683
Rp1684
(dp1685
bag1
(g2
(I110
tp1686
Rp1687
(dp1688
bg2
(I315
tp1689
Rp1690
(dp1691
btp1692
Rp1693
(dp1694
bag1
(g1309
g2
(I28
tp1695
Rp1696
(dp1697
btp1698
Rp1699
(dp1700
bag1
(g1030
g2
(I944
tp1701
Rp1702
(dp1703
btp1704
Rp1705
(dp1706
bag1
(g2
(I5
tp1707
Rp1708
(dp1709
bg2
(I839
tp1710
Rp1711
(dp1712
btp1713
Rp1714
(dp1715
bag1
(g439
g2
(I282
tp1716
Rp1717
(dp1718
btp1719
Rp1720
(dp1721
bag1
(g2
(I845
tp1722
Rp1723
(dp1724
bg2
(I566
tp1725
Rp1726
(dp1727
btp1728
Rp1729
(dp1730
bag1
(g2
(I67
tp1731
Rp1732
(dp1733
bg403
tp1734
Rp1735
(dp1736
bag1
(g2
(I719
tp1737
Rp1738
(dp1739
bg472
tp1740
Rp1741
(dp1742
bag1
(g2
(I326
tp1743
Rp1744
(dp1745
bg2
(I40
tp1746
Rp1747
(dp1748
btp1749
Rp1750
(dp1751
bag1
(g2
(I579
tp1752
Rp1753
(dp1754
bg2
(I392
tp1755
Rp1756
(dp1757
btp1758
Rp1759
(dp1760
bag1
(g2
(I726
tp1761
Rp1762
(dp1763
bg1372
tp1764
Rp1765
(dp1766
bag1
(g2
(I174
tp1767
Rp1768
(dp1769
bg541
tp1770
Rp1771
(dp1772
bag1
(g2
(I119
tp1773
Rp1774
(dp1775
bg2
(I127
tp1776
Rp1777
(dp1778
btp1779
Rp1780
(dp1781
bag1
(g2
(I93
tp1782
Rp1783
(dp1784
bg2
(I370
tp1785
Rp1786
(dp1787
btp1788
Rp1789
(dp1790
bag1
(g2
(I644
tp1791
Rp1792
(dp1793
bg2
(I616
tp1794
Rp1795
(dp1796
btp1797
Rp1798
(dp1799
bag1
(g877
g1768
tp1800
Rp1801
(dp1802
bag1
(g2
(I628
tp1803
Rp1804
(dp1805
bg2
(I780
tp1806
Rp1807
(dp1808
btp1809
Rp1810
(dp1811
bag1
(g346
g2
(I9
tp1812
Rp1813
(dp1814
btp1815
Rp1816
(dp1817
bag1
(g2
(I35
tp1818
Rp1819
(dp1820
bg637
tp1821
Rp1822
(dp1823
bag1
(g1600
g1681
tp1824
Rp1825
(dp1826
bag1
(g916
g2
(I76
tp1827
Rp1828
(dp1829
btp1830
Rp1831
(dp1832
bag1
(g2
(I767
tp1833
Rp1834
(dp1835
bg2
(I972
tp1836
Rp1837
(dp1838
btp1839
Rp1840
(dp1841
bag1
(g2
(I900
tp1842
Rp1843
(dp1844
bg2
(I836
tp1845
Rp1846
(dp1847
btp1848
Rp1849
(dp1850
bag1
(g2
(I670
tp1851
Rp1852
(dp1853
bg2
(I825
tp1854
Rp1855
(dp1856
btp1857
Rp1858
(dp1859
bag1
(g2
(I88
tp1860
Rp1861
(dp1862
bg2
(I951
tp1863
Rp1864
(dp1865
btp1866
Rp1867
(dp1868
bag1
(g2
(I529
tp1869
Rp1870
(dp1871
bg2
(I534
tp1872
Rp1873
(dp1874
btp1875
Rp1876
(dp1877
bag1
(g1639
g2
(I838
tp1878
Rp1879
(dp1880
btp1881
Rp1882
(dp1883
bag1
(g2
(I655
tp1884
Rp1885
(dp1886
bg2
(I561
tp1887
Rp1888
(dp1889
btp1890
Rp1891
(dp1892
bag1
(g2
(I412
tp1893
Rp1894
(dp1895
bg2
(I108
tp1896
Rp1897
(dp1898
btp1899
Rp1900
(dp1901
bag1
(g2
(I505
tp1902
Rp1903
(dp1904
bg2
(I454
tp1905
Rp1906
(dp1907
btp1908
Rp1909
(dp1910
bag1
(g2
(I261
tp1911
Rp1912
(dp1913
bg2
(I708
tp1914
Rp1915
(dp1916
btp1917
Rp1918
(dp1919
bag1
(g2
(I30
tp1920
Rp1921
(dp1922
bg2
(I794
tp1923
Rp1924
(dp1925
btp1926
Rp1927
(dp1928
bag1
(g484
g2
(I120
tp1929
Rp1930
(dp1931
btp1932
Rp1933
(dp1934
bag1
(g2
(I589
tp1935
Rp1936
(dp1937
bg2
(I224
tp1938
Rp1939
(dp1940
btp1941
Rp1942
(dp1943
bag1
(g2
(I181
tp1944
Rp1945
(dp1946
bg1612
tp1947
Rp1948
(dp1949
bag1
(g1096
g2
(I920
tp1950
Rp1951
(dp1952
btp1953
Rp1954
(dp1955
bag1
(g2
(I856
tp1956
Rp1957
(dp1958
bg2
(I827
tp1959
Rp1960
(dp1961
btp1962
Rp1963
(dp1964
bag1
(g2
(I690
tp1965
Rp1966
(dp1967
bg2
(I774
tp1968
Rp1969
(dp1970
btp1971
Rp1972
(dp1973
bag1
(g2
(I198
tp1974
Rp1975
(dp1976
bg2
(I101
tp1977
Rp1978
(dp1979
btp1980
Rp1981
(dp1982
bag1
(g1105
g2
(I889
tp1983
Rp1984
(dp1985
btp1986
Rp1987
(dp1988
bag1
(g2
(I847
tp1989
Rp1990
(dp1991
bg1990
tp1992
Rp1993
(dp1994
bag1
(g2
(I971
tp1995
Rp1996
(dp1997
bg2
(I138
tp1998
Rp1999
(dp2000
btp2001
Rp2002
(dp2003
bag1
(g2
(I816
tp2004
Rp2005
(dp2006
bg688
tp2007
Rp2008
(dp2009
bag1
(g2
(I84
tp2010
Rp2011
(dp2012
bg742
tp2013
Rp2014
(dp2015
bag1
(g2
(I520
tp2016
Rp2017
(dp2018
bg2
(I987
tp2019
Rp2020
(dp2021
btp2022
Rp2023
(dp2024
bag1
(g2
(I930
tp2025
Rp2026
(dp2027
bg2
(I380
tp2028
Rp2029
(dp2030
btp2031
Rp2032
(dp2033
bag1
(g2
(I812
tp2034
Rp2035
(dp2036
bg2
(I407
tp2037
Rp2038
(dp2039
btp2040
Rp2041
(dp2042
bag1
(g2
(I348
tp2043
Rp2044
(dp2045
bg2
(I72
tp2046
Rp2047
(dp2048
btp2049
Rp2050
(dp2051
bag1
(g328
g2
(I880
tp2052
Rp2053
(dp2054
btp2055
Rp2056
(dp2057
bag1
(g2
(I243
tp2058
Rp2059
(dp2060
bg325
tp2061
Rp2062
(dp2063
bag1
(g1360
g2
(I776
tp2064
Rp2065
(dp2066
btp2067
Rp2068
(dp2069
bag1
(g2
(I826
tp2070
Rp2071
(dp2072
bg2
(I140
tp2073
Rp2074
(dp2075
btp2076
Rp2077
(dp2078
bag1
(g2
(I251
tp2079
Rp2080
(dp2081
bg2
(I903
tp2082
Rp2083
(dp2084
btp2085
Rp2086
(dp2087
bag1
(g283
g2
(I184
tp2088
Rp2089
(dp2090
btp2091
Rp2092
(dp2093
bag1
(g2
(I865
tp2094
Rp2095
(dp2096
bg2
(I676
tp2097
Rp2098
(dp2099
btp2100
Rp2101
(dp2102
bag1
(g2
(I965
tp2103
Rp2104
(dp2105
bg2
(I823
tp2106
Rp2107
(dp2108
btp2109
Rp2110
(dp2111
bag1
(g2
(I515
tp2112
Rp2113
(dp2114
bg2
(I764
tp2115
Rp2116
(dp2117
btp2118
Rp2119
(dp2120
bag1
(g2
(I99
tp2121
Rp2122
(dp2123
bg2
(I624
tp2124
Rp2125
(dp2126
btp2127
Rp2128
(dp2129
bag1
(g2
(I732
tp2130
Rp2131
(dp2132
bg2
(I361
tp2133
Rp2134
(dp2135
btp2136
Rp2137
(dp2138
bag1
(g1021
g2
(I403
tp2139
Rp2140
(dp2141
btp2142
Rp2143
(dp2144
bag1
(g595
g1462
tp2145
Rp2146
(dp2147
bag1
(g2
(I906
tp2148
Rp2149
(dp2150
bg2
(I51
tp2151
Rp2152
(dp2153
btp2154
Rp2155
(dp2156
bag1
(g2
(I164
tp2157
Rp2158
(dp2159
bg121
tp2160
Rp2161
(dp2162
bag1
(g2
(I977
tp2163
Rp2164
(dp2165
bg1738
tp2166
Rp2167
(dp2168
bag1
(g826
g2
(I305
tp2169
Rp2170
(dp2171
btp2172
Rp2173
(dp2174
bag1
(g1012
g2
(I609
tp2175
Rp2176
(dp2177
btp2178
Rp2179
(dp2180
bag1
(g2
(I171
tp2181
Rp2182
(dp2183
bg2
(I798
tp2184
Rp2185
(dp2186
btp2187
Rp2188
(dp2189
bag1
(g2
(I682
tp2190
Rp2191
(dp2192
bg2
(I149
tp2193
Rp2194
(dp2195
btp2196
Rp2197
(dp2198
bag1
(g2
(I457
tp2199
Rp2200
(dp2201
bg2
(I278
tp2202
Rp2203
(dp2204
btp2205
Rp2206
(dp2207
bag1
(g640
g775
tp2208
Rp2209
(dp2210
bag1
(g2
(I543
tp2211
Rp2212
(dp2213
bg2
(I139
tp2214
Rp2215
(dp2216
btp2217
Rp2218
(dp2219
bag1
(g16
g2
(I618
tp2220
Rp2221
(dp2222
btp2223
Rp2224
(dp2225
bag1
(g1666
g2
(I57
tp2226
Rp2227
(dp2228
btp2229
Rp2230
(dp2231
bag1
(g1267
g2
(I668
tp2232
Rp2233
(dp2234
btp2235
Rp2236
(dp2237
bag1
(g2
(I134
tp2238
Rp2239
(dp2240
bg2149
tp2241
Rp2242
(dp2243
bag1
(g2
(I851
tp2244
Rp2245
(dp2246
bg2
(I285
tp2247
Rp2248
(dp2249
btp2250
Rp2251
(dp2252
bag1
(g1828
g2
(I344
tp2253
Rp2254
(dp2255
btp2256
Rp2257
(dp2258
bag1
(g2194
g2
(I640
tp2259
Rp2260
(dp2261
btp2262
Rp2263
(dp2264
bag1
(g2
(I310
tp2265
Rp2266
(dp2267
bg2
(I791
tp2268
Rp2269
(dp2270
btp2271
Rp2272
(dp2273
bag1
(g2
(I574
tp2274
Rp2275
(dp2276
bg2
(I201
tp2277
Rp2278
(dp2279
btp2280
Rp2281
(dp2282
bag1
(g1159
g1903
tp2283
Rp2284
(dp2285
bag1
(g2
(I154
tp2286
Rp2287
(dp2288
bg1510
tp2289
Rp2290
(dp2291
bag1
(g2
(I387
tp2292
Rp2293
(dp2294
bg2
(I675
tp2295
Rp2296
(dp2297
btp2298
Rp2299
(dp2300
bag1
(g2
(I331
tp2301
Rp2302
(dp2303
bg2
(I591
tp2304
Rp2305
(dp2306
btp2307
Rp2308
(dp2309
bag1
(g2
(I496
tp2310
Rp2311
(dp2312
bg2
(I481
tp2313
Rp2314
(dp2315
btp2316
Rp2317
(dp2318
bag1
(g778
g865
tp2319
Rp2320
(dp2321
bag1
(g2
(I389
tp2322
Rp2323
(dp2324
bg2
(I216
tp2325
Rp2326
(dp2327
btp2328
Rp2329
(dp2330
bag1
(g2
(I525
tp2331
Rp2332
(dp2333
bg2
(I193
tp2334
Rp2335
(dp2336
btp2337
Rp2338
(dp2339
bag1
(g337
g2275
tp2340
Rp2341
(dp2342
bag1
(g2
(I15
tp2343
Rp2344
(dp2345
bg2
(I59
tp2346
Rp2347
(dp2348
btp2349
Rp2350
(dp2351
bag1
(g2
(I601
tp2352
Rp2353
(dp2354
bg2
(I147
tp2355
Rp2356
(dp2357
btp2358
Rp2359
(dp2360
bag1
(g1756
g2
(I324
tp2361
Rp2362
(dp2363
btp2364
Rp2365
(dp2366
bag1
(g169
g2
(I350
tp2367
Rp2368
(dp2369
btp2370
Rp2371
(dp2372
bag1
(g2
(I8
tp2373
Rp2374
(dp2375
bg2
(I491
tp2376
Rp2377
(dp2378
btp2379
Rp2380
(dp2381
bag1
(g2233
g751
tp2382
Rp2383
(dp2384
bag1
(g2
(I611
tp2385
Rp2386
(dp2387
bg2
(I512
tp2388
Rp2389
(dp2390
btp2391
Rp2392
(dp2393
bag1
(g1999
g2
(I207
tp2394
Rp2395
(dp2396
btp2397
Rp2398
(dp2399
bag1
(g2107
g2
(I873
tp2400
Rp2401
(dp2402
btp2403
Rp2404
(dp2405
bag1
(g2
(I265
tp2406
Rp2407
(dp2408
bg2
(I239
tp2409
Rp2410
(dp2411
btp2412
Rp2413
(dp2414
bag1
(g1786
g2
(I724
tp2415
Rp2416
(dp2417
btp2418
Rp2419
(dp2420
bag1
(g2
(I917
tp2421
Rp2422
(dp2423
bg2
(I401
tp2424
Rp2425
(dp2426
btp2427
Rp2428
(dp2429
bag1
(g850
g2
(I172
tp2430
Rp2431
(dp2432
btp2433
Rp2434
(dp2435
bag1
(g2
(I807
tp2436
Rp2437
(dp2438
bg823
tp2439
Rp2440
(dp2441
bag1
(g1471
g2
(I604
tp2442
Rp2443
(dp2444
btp2445
Rp2446
(dp2447
bag1
(g2
(I750
tp2448
Rp2449
(dp2450
bg1042
tp2451
Rp2452
(dp2453
bag1
(g355
g2386
tp2454
Rp2455
(dp2456
bag1
(g2
(I386
tp2457
Rp2458
(dp2459
bg2
(I274
tp2460
Rp2461
(dp2462
btp2463
Rp2464
(dp2465
bag1
(g2
(I455
tp2466
Rp2467
(dp2468
bg2
(I696
tp2469
Rp2470
(dp2471
btp2472
Rp2473
(dp2474
bag1
(g2
(I877
tp2475
Rp2476
(dp2477
bg2
(I87
tp2478
Rp2479
(dp2480
btp2481
Rp2482
(dp2483
bag1
(g1207
g2
(I470
tp2484
Rp2485
(dp2486
btp2487
Rp2488
(dp2489
bag1
(g2
(I717
tp2490
Rp2491
(dp2492
bg1213
tp2493
Rp2494
(dp2495
bag1
(g2
(I333
tp2496
Rp2497
(dp2498
bg2
(I521
tp2499
Rp2500
(dp2501
btp2502
Rp2503
(dp2504
bag1
(g2
(I537
tp2505
Rp2506
(dp2507
bg2122
tp2508
Rp2509
(dp2510
bag1
(g2
(I600
tp2511
Rp2512
(dp2513
bg2
(I517
tp2514
Rp2515
(dp2516
btp2517
Rp2518
(dp2519
bag1
(g2
(I671
tp2520
Rp2521
(dp2522
bg2
(I598
tp2523
Rp2524
(dp2525
btp2526
Rp2527
(dp2528
bag1
(g2
(I570
tp2529
Rp2530
(dp2531
bg2
(I450
tp2532
Rp2533
(dp2534
btp2535
Rp2536
(dp2537
bag1
(g292
g1009
tp2538
Rp2539
(dp2540
bag1
(g2
(I250
tp2541
Rp2542
(dp2543
bg2
(I843
tp2544
Rp2545
(dp2546
btp2547
Rp2548
(dp2549
bag1
(g2
(I899
tp2550
Rp2551
(dp2552
bg2
(I786
tp2553
Rp2554
(dp2555
btp2556
Rp2557
(dp2558
bag1
(g2
(I855
tp2559
Rp2560
(dp2561
bg2266
tp2562
Rp2563
(dp2564
bag1
(g2185
g2
(I806
tp2565
Rp2566
(dp2567
btp2568
Rp2569
(dp2570
bag1
(g2
(I571
tp2571
Rp2572
(dp2573
bg481
tp2574
Rp2575
(dp2576
bag1
(g2
(I19
tp2577
Rp2578
(dp2579
bg1936
tp2580
Rp2581
(dp2582
ba.