(lp0
csympy.geometry.point
Point2D
p1
(csympy.core.numbers
Integer
p2
(I743
tp3
Rp4
(dp5
bg2
(I429
tp6
Rp7
(dp8
btp9
Rp10
(dp11
bag1
(g2
(I39
tp12
Rp13
(dp14
bg2
(I455
tp15
Rp16
(dp17
btp18
Rp19
(dp20
bag1
(g2
(I98
tp21
Rp22
(dp23
bg2
(I819
tp24
Rp25
(dp26
btp27
Rp28
(dp29
bag1
(g2
(I45
tp30
Rp31
(dp32
bg2
(I49
tp33
Rp34
(dp35
btp36
Rp37
(dp38
bag1
(g2
(I214
tp39
Rp40
(dp41
bg2
(I680
tp42
Rp43
(dp44
btp45
Rp46
(dp47
bag1
(g2
(I469
tp48
Rp49
(dp50
bg2
(I250
tp51
Rp52
(dp53
btp54
Rp55
(dp56
bag1
(g2
(I646
tp57
Rp58
(dp59
bg2
(I307
tp60
Rp61
(dp62
btp63
Rp64
(dp65
bag1
(g2
(I731
tp66
Rp67
(dp68
bg2
(I497
tp69
Rp70
(dp71
btp72
Rp73
(dp74
bag1
(g2
(I537
tp75
Rp76
(dp77
bg2
(I891
tp78
Rp79
(dp80
btp81
Rp82
(dp83
bag1
(g2
(I55
tp84
Rp85
(dp86
bg2
(I421
tp87
Rp88
(dp89
btp90
Rp91
(dp92
bag1
(g2
(I167
tp93
Rp94
(dp95
bg2
(I423
tp96
Rp97
(dp98
btp99
Rp100
(dp101
bag1
(g2
(I914
tp102
Rp103
(dp104
bg2
(I543
tp105
Rp106
(dp107
btp108
Rp109
(dp110
bag1
(g2
(I60
tp111
Rp112
(dp113
bg2
(I597
tp114
Rp115
(dp116
btp117
Rp118
(dp119
bag1
(g2
(I76
tp120
Rp121
(dp122
bg2
(I896
tp123
Rp124
(dp125
btp126
Rp127
(dp128
bag1
(g2
(I776
tp129
Rp130
(dp131
bg2
(I474
tp132
Rp133
(dp134
btp135
Rp136
(dp137
bag1
(g2
(I304
tp138
Rp139
(dp140
bg2
(I972
tp141
Rp142
(dp143
btp144
Rp145
(dp146
bag1
(g2
(I924
tp147
Rp148
(dp149
bg2
(I107
tp150
Rp151
(dp152
btp153
Rp154
(dp155
bag1
(g2
(I805
tp156
Rp157
(dp158
bg2
(I217
tp159
Rp160
(dp161
btp162
Rp163
(dp164
bag1
(g2
(I297
tp165
Rp166
(dp167
bg2
(I266
tp168
Rp169
(dp170
btp171
Rp172
(dp173
bag1
(g2
(I263
tp174
Rp175
(dp176
bg2
(I908
tp177
Rp178
(dp179
btp180
Rp181
(dp182
bag1
(g2
(I875
tp183
Rp184
(dp185
bg2
(I663
tp186
Rp187
(dp188
btp189
Rp190
(dp191
bag1
(g2
(I318
tp192
Rp193
(dp194
bg2
(I749
tp195
Rp196
(dp197
btp198
Rp199
(dp200
bag1
(g2
(I688
tp201
Rp202
(dp203
bg2
(I169
tp204
Rp205
(dp206
btp207
Rp208
(dp209
bag1
(g2
(I937
tp210
Rp211
(dp212
bg2
(I959
tp213
Rp214
(dp215
btp216
Rp217
(dp218
bag1
(g2
(I571
tp219
Rp220
(dp221
bg2
(I451
tp222
Rp223
(dp224
btp225
Rp226
(dp227
bag1
(g2
(I202
tp228
Rp229
(dp230
bg2
(I766
tp231
Rp232
(dp233
btp234
Rp235
(dp236
bag1
(g2
(I548
tp237
Rp238
(dp239
bg2
(I644
tp240
Rp241
(dp242
btp243
Rp244
(dp245
bag1
(g2
(I354
tp246
Rp247
(dp248
bg2
(I149
tp249
Rp250
(dp251
btp252
Rp253
(dp254
bag1
(g2
(I231
tp255
Rp256
(dp257
bg2
(I922
tp258
Rp259
(dp260
btp261
Rp262
(dp263
bag1
(g2
(I183
tp264
Rp265
(dp266
bg2
(I585
tp267
Rp268
(dp269
btp270
Rp271
(dp272
bag1
(g2
(I395
tp273
Rp274
(dp275
bg2
(I784
tp276
Rp277
(dp278
btp279
Rp280
(dp281
bag1
(g2
(I15
tp282
Rp283
(dp284
bg2
(I746
tp285
Rp286
(dp287
btp288
Rp289
(dp290
bag1
(g2
(I23
tp291
Rp292
(dp293
bg2
(I991
tp294
Rp295
(dp296
btp297
Rp298
(dp299
bag1
(g2
(I636
tp300
Rp301
(dp302
bg2
(I634
tp303
Rp304
(dp305
btp306
Rp307
(dp308
bag1
(g2
(I839
tp309
Rp310
(dp311
bg2
(I153
tp312
Rp313
(dp314
btp315
Rp316
(dp317
bag1
(g2
(I779
tp318
Rp319
(dp320
bg2
(I184
tp321
Rp322
(dp323
btp324
Rp325
(dp326
bag1
(g2
(I650
tp327
Rp328
(dp329
bg2
(I748
tp330
Rp331
(dp332
btp333
Rp334
(dp335
bag1
(g2
(I631
tp336
Rp337
(dp338
bg2
(I873
tp339
Rp340
(dp341
btp342
Rp343
(dp344
bag1
(g2
(I306
tp345
Rp346
(dp347
bg2
(I804
tp348
Rp349
(dp350
btp351
Rp352
(dp353
bag1
(g2
(I861
tp354
Rp355
(dp356
bg2
(I782
tp357
Rp358
(dp359
btp360
Rp361
(dp362
bag1
(g2
(I834
tp363
Rp364
(dp365
bg337
tp366
Rp367
(dp368
bag1
(g2
(I382
tp369
Rp370
(dp371
bg2
(I707
tp372
Rp373
(dp374
btp375
Rp376
(dp377
bag1
(g2
(I797
tp378
Rp379
(dp380
bg2
(I138
tp381
Rp382
(dp383
btp384
Rp385
(dp386
bag1
(g2
(I430
tp387
Rp388
(dp389
bg2
(I942
tp390
Rp391
(dp392
btp393
Rp394
(dp395
bag1
(g2
(I884
tp396
Rp397
(dp398
bg2
(I42
tp399
Rp400
(dp401
btp402
Rp403
(dp404
bag1
(g2
(I195
tp405
Rp406
(dp407
bg2
(I397
tp408
Rp409
(dp410
btp411
Rp412
(dp413
bag1
(g2
(I832
tp414
Rp415
(dp416
bg2
(I232
tp417
Rp418
(dp419
btp420
Rp421
(dp422
bag1
(g2
(I34
tp423
Rp424
(dp425
bg2
(I371
tp426
Rp427
(dp428
btp429
Rp430
(dp431
bag1
(g2
(I637
tp432
Rp433
(dp434
bg2
(I965
tp435
Rp436
(dp437
btp438
Rp439
(dp440
bag1
(g2
(I136
tp441
Rp442
(dp443
bg2
(I604
tp444
Rp445
(dp446
btp447
Rp448
(dp449
bag1
(g2
(I587
tp450
Rp451
(dp452
bg2
(I119
tp453
Rp454
(dp455
btp456
Rp457
(dp458
bag1
(g2
(I21
tp459
Rp460
(dp461
bg2
(I831
tp462
Rp463
(dp464
btp465
Rp466
(dp467
bag1
(g2
(I794
tp468
Rp469
(dp470
bg2
(I228
tp471
Rp472
(dp473
btp474
Rp475
(dp476
bag1
(g2
(I111
tp477
Rp478
(dp479
bg2
(I166
tp480
Rp481
(dp482
btp483
Rp484
(dp485
bag1
(g2
(I808
tp486
Rp487
(dp488
bg2
(I756
tp489
Rp490
(dp491
btp492
Rp493
(dp494
bag1
(g2
(I450
tp495
Rp496
(dp497
bg2
(I327
tp498
Rp499
(dp500
btp501
Rp502
(dp503
bag1
(g2
(I683
tp504
Rp505
(dp506
bg2
(I177
tp507
Rp508
(dp509
btp510
Rp511
(dp512
bag1
(g124
g2
(I296
tp513
Rp514
(dp515
btp516
Rp517
(dp518
bag1
(g2
(I645
tp519
Rp520
(dp521
bg2
(I825
tp522
Rp523
(dp524
btp525
Rp526
(dp527
bag1
(g2
(I69
tp528
Rp529
(dp530
bg328
tp531
Rp532
(dp533
bag1
(g2
(I813
tp534
Rp535
(dp536
bg2
(I193
tp537
Rp538
(dp539
btp540
Rp541
(dp542
bag1
(g2
(I229
tp543
Rp544
(dp545
bg2
(I358
tp546
Rp547
(dp548
btp549
Rp550
(dp551
bag1
(g2
(I205
tp552
Rp553
(dp554
bg2
(I461
tp555
Rp556
(dp557
btp558
Rp559
(dp560
bag1
(g2
(I393
tp561
Rp562
(dp563
bg2
(I933
tp564
Rp565
(dp566
btp567
Rp568
(dp569
bag1
(g2
(I867
tp570
Rp571
(dp572
bg2
(I334
tp573
Rp574
(dp575
btp576
Rp577
(dp578
bag1
(g2
(I664
tp579
Rp580
(dp581
bg2
(I528
tp582
Rp583
(dp584
btp585
Rp586
(dp587
bag1
(g2
(I955
tp588
Rp589
(dp590
bg2
(I691
tp591
Rp592
(dp593
btp594
Rp595
(dp596
bag1
(g88
g2
(I80
tp597
Rp598
(dp599
btp600
Rp601
(dp602
bag1
(g2
(I698
tp603
Rp604
(dp605
bg2
(I472
tp606
Rp607
(dp608
btp609
Rp610
(dp611
bag1
(g2
(I741
tp612
Rp613
(dp614
bg2
(I527
tp615
Rp616
(dp617
btp618
Rp619
(dp620
bag1
(g2
(I606
tp621
Rp622
(dp623
bg2
(I643
tp624
Rp625
(dp626
btp627
Rp628
(dp629
bag1
(g2
(I347
tp630
Rp631
(dp632
bg2
(I956
tp633
Rp634
(dp635
btp636
Rp637
(dp638
bag1
(g2
(I439
tp639
Rp640
(dp641
bg2
(I284
tp642
Rp643
(dp644
btp645
Rp646
(dp647
bag1
(g2
(I710
tp648
Rp649
(dp650
bg2
(I108
tp651
Rp652
(dp653
btp654
Rp655
(dp656
bag1
(g2
(I787
tp657
Rp658
(dp659
bg2
(I545
tp660
Rp661
(dp662
btp663
Rp664
(dp665
bag1
(g616
g2
(I789
tp666
Rp667
(dp668
btp669
Rp670
(dp671
bag1
(g514
g2
(I593
tp672
Rp673
(dp674
btp675
Rp676
(dp677
bag1
(g2
(I953
tp678
Rp679
(dp680
bg2
(I654
tp681
Rp682
(dp683
btp684
Rp685
(dp686
bag1
(g2
(I492
tp687
Rp688
(dp689
bg265
tp690
Rp691
(dp692
bag1
(g2
(I725
tp693
Rp694
(dp695
bg2
(I123
tp696
Rp697
(dp698
btp699
Rp700
(dp701
bag1
(g2
(I91
tp702
Rp703
(dp704
bg2
(I845
tp705
Rp706
(dp707
btp708
Rp709
(dp710
bag1
(g2
(I708
tp711
Rp712
(dp713
bg2
(I405
tp714
Rp715
(dp716
btp717
Rp718
(dp719
bag1
(g2
(I74
tp720
Rp721
(dp722
bg2
(I705
tp723
Rp724
(dp725
btp726
Rp727
(dp728
bag1
(g2
(I614
tp729
Rp730
(dp731
bg2
(I517
tp732
Rp733
(dp734
btp735
Rp736
(dp737
bag1
(g2
(I607
tp738
Rp739
(dp740
bg2
(I586
tp741
Rp742
(dp743
btp744
Rp745
(dp746
bag1
(g2
(I995
tp747
Rp748
(dp749
bg2
(I575
tp750
Rp751
(dp752
btp753
Rp754
(dp755
bag1
(g2
(I803
tp756
Rp757
(dp758
bg2
(I793
tp759
Rp760
(dp761
btp762
Rp763
(dp764
bag1
(g151
g2
(I529
tp765
Rp766
(dp767
btp768
Rp769
(dp770
bag1
(g2
(I665
tp771
Rp772
(dp773
bg2
(I457
tp774
Rp775
(dp776
btp777
Rp778
(dp779
bag1
(g2
(I693
tp780
Rp781
(dp782
bg2
(I422
tp783
Rp784
(dp785
btp786
Rp787
(dp788
bag1
(g2
(I104
tp789
Rp790
(dp791
bg2
(I361
tp792
Rp793
(dp794
btp795
Rp796
(dp797
bag1
(g556
g2
(I792
tp798
Rp799
(dp800
btp801
Rp802
(dp803
bag1
(g2
(I359
tp804
Rp805
(dp806
bg2
(I466
tp807
Rp808
(dp809
btp810
Rp811
(dp812
bag1
(g2
(I562
tp813
Rp814
(dp815
bg2
(I590
tp816
Rp817
(dp818
btp819
Rp820
(dp821
bag1
(g2
(I416
tp822
Rp823
(dp824
bg2
(I477
tp825
Rp826
(dp827
btp828
Rp829
(dp830
bag1
(g2
(I240
tp831
Rp832
(dp833
bg2
(I633
tp834
Rp835
(dp836
btp837
Rp838
(dp839
bag1
(g2
(I288
tp840
Rp841
(dp842
bg2
(I105
tp843
Rp844
(dp845
btp846
Rp847
(dp848
bag1
(g2
(I118
tp849
Rp850
(dp851
bg2
(I365
tp852
Rp853
(dp854
btp855
Rp856
(dp857
bag1
(g2
(I385
tp858
Rp859
(dp860
bg2
(I261
tp861
Rp862
(dp863
btp864
Rp865
(dp866
bag1
(g2
(I581
tp867
Rp868
(dp869
bg76
tp870
Rp871
(dp872
bag1
(g2
(I982
tp873
Rp874
(dp875
bg2
(I990
tp876
Rp877
(dp878
btp879
Rp880
(dp881
bag1
(g2
(I342
tp882
Rp883
(dp884
bg2
(I476
tp885
Rp886
(dp887
btp888
Rp889
(dp890
bag1
(g2
(I656
tp891
Rp892
(dp893
bg2
(I109
tp894
Rp895
(dp896
btp897
Rp898
(dp899
bag1
(g2
(I384
tp900
Rp901
(dp902
bg2
(I82
tp903
Rp904
(dp905
btp906
Rp907
(dp908
bag1
(g2
(I224
tp909
Rp910
(dp911
bg2
(I931
tp912
Rp913
(dp914
btp915
Rp916
(dp917
bag1
(g2
(I83
tp918
Rp919
(dp920
bg2
(I855
tp921
Rp922
(dp923
btp924
Rp925
(dp926
bag1
(g607
g2
(I70
tp927
Rp928
(dp929
btp930
Rp931
(dp932
bag1
(g2
(I328
tp933
Rp934
(dp935
bg2
(I187
tp936
Rp937
(dp938
btp939
Rp940
(dp941
bag1
(g2
(I86
tp942
Rp943
(dp944
bg2
(I539
tp945
Rp946
(dp947
btp948
Rp949
(dp950
bag1
(g2
(I155
tp951
Rp952
(dp953
bg2
(I434
tp954
Rp955
(dp956
btp957
Rp958
(dp959
bag1
(g2
(I905
tp960
Rp961
(dp962
bg2
(I428
tp963
Rp964
(dp965
btp966
Rp967
(dp968
bag1
(g2
(I223
tp969
Rp970
(dp971
bg2
(I978
tp972
Rp973
(dp974
btp975
Rp976
(dp977
bag1
(g2
(I969
tp978
Rp979
(dp980
bg2
(I185
tp981
Rp982
(dp983
btp984
Rp985
(dp986
bag1
(g2
(I530
tp987
Rp988
(dp989
bg2
(I809
tp990
Rp991
(dp992
btp993
Rp994
(dp995
bag1
(g2
(I753
tp996
Rp997
(dp998
bg2
(I290
tp999
Rp1000
(dp1001
btp1002
Rp1003
(dp1004
bag1
(g2
(I850
tp1005
Rp1006
(dp1007
bg2
(I16
tp1008
Rp1009
(dp1010
btp1011
Rp1012
(dp1013
bag1
(g2
(I377
tp1014
Rp1015
(dp1016
bg2
(I93
tp1017
Rp1018
(dp1019
btp1020
Rp1021
(dp1022
bag1
(g481
g2
(I491
tp1023
Rp1024
(dp1025
btp1026
Rp1027
(dp1028
bag1
(g2
(I444
tp1029
Rp1030
(dp1031
bg2
(I314
tp1032
Rp1033
(dp1034
btp1035
Rp1036
(dp1037
bag1
(g2
(I254
tp1038
Rp1039
(dp1040
bg2
(I503
tp1041
Rp1042
(dp1043
btp1044
Rp1045
(dp1046
bag1
(g2
(I192
tp1047
Rp1048
(dp1049
bg2
(I399
tp1050
Rp1051
(dp1052
btp1053
Rp1054
(dp1055
bag1
(g2
(I572
tp1056
Rp1057
(dp1058
bg2
(I522
tp1059
Rp1060
(dp1061
btp1062
Rp1063
(dp1064
bag1
(g2
(I303
tp1065
Rp1066
(dp1067
bg2
(I350
tp1068
Rp1069
(dp1070
btp1071
Rp1072
(dp1073
bag1
(g508
g2
(I106
tp1074
Rp1075
(dp1076
btp1077
Rp1078
(dp1079
bag1
(g2
(I63
tp1080
Rp1081
(dp1082
bg2
(I921
tp1083
Rp1084
(dp1085
btp1086
Rp1087
(dp1088
bag1
(g2
(I544
tp1089
Rp1090
(dp1091
bg2
(I724
tp1092
Rp1093
(dp1094
btp1095
Rp1096
(dp1097
bag1
(g2
(I895
tp1098
Rp1099
(dp1100
bg451
tp1101
Rp1102
(dp1103
bag1
(g2
(I938
tp1104
Rp1105
(dp1106
bg2
(I667
tp1107
Rp1108
(dp1109
btp1110
Rp1111
(dp1112
bag1
(g1093
g2
(I602
tp1113
Rp1114
(dp1115
btp1116
Rp1117
(dp1118
bag1
(g2
(I452
tp1119
Rp1120
(dp1121
bg2
(I668
tp1122
Rp1123
(dp1124
btp1125
Rp1126
(dp1127
bag1
(g2
(I844
tp1128
Rp1129
(dp1130
bg2
(I713
tp1131
Rp1132
(dp1133
btp1134
Rp1135
(dp1136
bag1
(g2
(I733
tp1137
Rp1138
(dp1139
bg2
(I689
tp1140
Rp1141
(dp1142
btp1143
Rp1144
(dp1145
bag1
(g2
(I508
tp1146
Rp1147
(dp1148
bg2
(I171
tp1149
Rp1150
(dp1151
btp1152
Rp1153
(dp1154
bag1
(g2
(I276
tp1155
Rp1156
(dp1157
bg2
(I554
tp1158
Rp1159
(dp1160
btp1161
Rp1162
(dp1163
bag1
(g2
(I225
tp1164
Rp1165
(dp1166
bg2
(I628
tp1167
Rp1168
(dp1169
btp1170
Rp1171
(dp1172
bag1
(g2
(I736
tp1173
Rp1174
(dp1175
bg2
(I997
tp1176
Rp1177
(dp1178
btp1179
Rp1180
(dp1181
bag1
(g2
(I237
tp1182
Rp1183
(dp1184
bg553
tp1185
Rp1186
(dp1187
bag1
(g2
(I253
tp1188
Rp1189
(dp1190
bg2
(I468
tp1191
Rp1192
(dp1193
btp1194
Rp1195
(dp1196
bag1
(g2
(I453
tp1197
Rp1198
(dp1199
bg2
(I222
tp1200
Rp1201
(dp1202
btp1203
Rp1204
(dp1205
bag1
(g2
(I482
tp1206
Rp1207
(dp1208
bg2
(I568
tp1209
Rp1210
(dp1211
btp1212
Rp1213
(dp1214
bag1
(g1201
g442
tp1215
Rp1216
(dp1217
bag1
(g2
(I862
tp1218
Rp1219
(dp1220
bg703
tp1221
Rp1222
(dp1223
bag1
(g2
(I406
tp1224
Rp1225
(dp1226
bg2
(I952
tp1227
Rp1228
(dp1229
btp1230
Rp1231
(dp1232
bag1
(g2
(I293
tp1233
Rp1234
(dp1235
bg2
(I611
tp1236
Rp1237
(dp1238
btp1239
Rp1240
(dp1241
bag1
(g2
(I412
tp1242
Rp1243
(dp1244
bg2
(I871
tp1245
Rp1246
(dp1247
btp1248
Rp1249
(dp1250
bag1
(g2
(I580
tp1251
Rp1252
(dp1253
bg2
(I459
tp1254
Rp1255
(dp1256
btp1257
Rp1258
(dp1259
bag1
(g2
(I504
tp1260
Rp1261
(dp1262
bg2
(I892
tp1263
Rp1264
(dp1265
btp1266
Rp1267
(dp1268
bag1
(g2
(I11
tp1269
Rp1270
(dp1271
bg2
(I386
tp1272
Rp1273
(dp1274
btp1275
Rp1276
(dp1277
bag1
(g2
(I245
tp1278
Rp1279
(dp1280
bg2
(I40
tp1281
Rp1282
(dp1283
btp1284
Rp1285
(dp1286
bag1
(g2
(I563
tp1287
Rp1288
(dp1289
bg2
(I425
tp1290
Rp1291
(dp1292
btp1293
Rp1294
(dp1295
bag1
(g583
g1030
tp1296
Rp1297
(dp1298
bag1
(g2
(I299
tp1299
Rp1300
(dp1301
bg2
(I868
tp1302
Rp1303
(dp1304
btp1305
Rp1306
(dp1307
bag1
(g1051
g2
(I256
tp1308
Rp1309
(dp1310
btp1311
Rp1312
(dp1313
bag1
(g2
(I115
tp1314
Rp1315
(dp1316
bg2
(I671
tp1317
Rp1318
(dp1319
btp1320
Rp1321
(dp1322
bag1
(g2
(I583
tp1323
Rp1324
(dp1325
bg2
(I977
tp1326
Rp1327
(dp1328
btp1329
Rp1330
(dp1331
bag1
(g2
(I534
tp1332
Rp1333
(dp1334
bg1261
tp1335
Rp1336
(dp1337
bag1
(g2
(I500
tp1338
Rp1339
(dp1340
bg934
tp1341
Rp1342
(dp1343
bag1
(g2
(I685
tp1344
Rp1345
(dp1346
bg2
(I494
tp1347
Rp1348
(dp1349
btp1350
Rp1351
(dp1352
bag1
(g2
(I865
tp1353
Rp1354
(dp1355
bg2
(I156
tp1356
Rp1357
(dp1358
btp1359
Rp1360
(dp1361
bag1
(g2
(I594
tp1362
Rp1363
(dp1364
bg2
(I210
tp1365
Rp1366
(dp1367
btp1368
Rp1369
(dp1370
bag1
(g2
(I419
tp1371
Rp1372
(dp1373
bg2
(I122
tp1374
Rp1375
(dp1376
btp1377
Rp1378
(dp1379
bag1
(g2
(I255
tp1380
Rp1381
(dp1382
bg2
(I702
tp1383
Rp1384
(dp1385
btp1386
Rp1387
(dp1388
bag1
(g2
(I820
tp1389
Rp1390
(dp1391
bg2
(I286
tp1392
Rp1393
(dp1394
btp1395
Rp1396
(dp1397
bag1
(g2
(I333
tp1398
Rp1399
(dp1400
bg2
(I291
tp1401
Rp1402
(dp1403
btp1404
Rp1405
(dp1406
bag1
(g775
g2
(I264
tp1407
Rp1408
(dp1409
btp1410
Rp1411
(dp1412
bag1
(g1060
g2
(I159
tp1413
Rp1414
(dp1415
btp1416
Rp1417
(dp1418
bag1
(g2
(I729
tp1419
Rp1420
(dp1421
bg2
(I446
tp1422
Rp1423
(dp1424
btp1425
Rp1426
(dp1427
bag1
(g862
g2
(I301
tp1428
Rp1429
(dp1430
btp1431
Rp1432
(dp1433
bag1
(g2
(I196
tp1434
Rp1435
(dp1436
bg2
(I160
tp1437
Rp1438
(dp1439
btp1440
Rp1441
(dp1442
bag1
(g2
(I78
tp1443
Rp1444
(dp1445
bg2
(I612
tp1446
Rp1447
(dp1448
btp1449
Rp1450
(dp1451
bag1
(g2
(I843
tp1452
Rp1453
(dp1454
bg2
(I275
tp1455
Rp1456
(dp1457
btp1458
Rp1459
(dp1460
bag1
(g2
(I588
tp1461
Rp1462
(dp1463
bg2
(I941
tp1464
Rp1465
(dp1466
btp1467
Rp1468
(dp1469
bag1
(g2
(I158
tp1470
Rp1471
(dp1472
bg2
(I687
tp1473
Rp1474
(dp1475
btp1476
Rp1477
(dp1478
bag1
(g2
(I294
tp1479
Rp1480
(dp1481
bg2
(I945
tp1482
Rp1483
(dp1484
btp1485
Rp1486
(dp1487
bag1
(g2
(I849
tp1488
Rp1489
(dp1490
bg2
(I152
tp1491
Rp1492
(dp1493
btp1494
Rp1495
(dp1496
bag1
(g418
g2
(I621
tp1497
Rp1498
(dp1499
btp1500
Rp1501
(dp1502
bag1
(g2
(I72
tp1503
Rp1504
(dp1505
bg2
(I440
tp1506
Rp1507
(dp1508
btp1509
Rp1510
(dp1511
bag1
(g2
(I976
tp1512
Rp1513
(dp1514
bg2
(I939
tp1515
Rp1516
(dp1517
btp1518
Rp1519
(dp1520
bag1
(g2
(I212
tp1521
Rp1522
(dp1523
bg2
(I851
tp1524
Rp1525
(dp1526
btp1527
Rp1528
(dp1529
bag1
(g43
g2
(I190
tp1530
Rp1531
(dp1532
btp1533
Rp1534
(dp1535
bag1
(g2
(I807
tp1536
Rp1537
(dp1538
bg2
(I835
tp1539
Rp1540
(dp1541
btp1542
Rp1543
(dp1544
bag1
(g2
(I985
tp1545
Rp1546
(dp1547
bg2
(I13
tp1548
Rp1549
(dp1550
btp1551
Rp1552
(dp1553
bag1
(g991
g319
tp1554
Rp1555
(dp1556
bag1
(g2
(I974
tp1557
Rp1558
(dp1559
bg2
(I943
tp1560
Rp1561
(dp1562
btp1563
Rp1564
(dp1565
bag1
(g1084
g2
(I986
tp1566
Rp1567
(dp1568
btp1569
Rp1570
(dp1571
bag1
(g2
(I744
tp1572
Rp1573
(dp1574
bg2
(I930
tp1575
Rp1576
(dp1577
btp1578
Rp1579
(dp1580
bag1
(g2
(I302
tp1581
Rp1582
(dp1583
bg2
(I649
tp1584
Rp1585
(dp1586
btp1587
Rp1588
(dp1589
bag1
(g2
(I613
tp1590
Rp1591
(dp1592
bg2
(I684
tp1593
Rp1594
(dp1595
btp1596
Rp1597
(dp1598
bag1
(g2
(I737
tp1599
Rp1600
(dp1601
bg2
(I658
tp1602
Rp1603
(dp1604
btp1605
Rp1606
(dp1607
bag1
(g2
(I558
tp1608
Rp1609
(dp1610
bg772
tp1611
Rp1612
(dp1613
bag1
(g682
g2
(I829
tp1614
Rp1615
(dp1616
btp1617
Rp1618
(dp1619
bag1
(g2
(I10
tp1620
Rp1621
(dp1622
bg2
(I408
tp1623
Rp1624
(dp1625
btp1626
Rp1627
(dp1628
bag1
(g2
(I64
tp1629
Rp1630
(dp1631
bg2
(I411
tp1632
Rp1633
(dp1634
btp1635
Rp1636
(dp1637
bag1
(g2
(I996
tp1638
Rp1639
(dp1640
bg2
(I239
tp1641
Rp1642
(dp1643
btp1644
Rp1645
(dp1646
bag1
(g2
(I89
tp1647
Rp1648
(dp1649
bg2
(I686
tp1650
Rp1651
(dp1652
btp1653
Rp1654
(dp1655
bag1
(g2
(I823
tp1656
Rp1657
(dp1658
bg2
(I518
tp1659
Rp1660
(dp1661
btp1662
Rp1663
(dp1664
bag1
(g2
(I542
tp1665
Rp1666
(dp1667
bg2
(I283
tp1668
Rp1669
(dp1670
btp1671
Rp1672
(dp1673
bag1
(g1000
g2
(I547
tp1674
Rp1675
(dp1676
btp1677
Rp1678
(dp1679
bag1
(g2
(I209
tp1680
Rp1681
(dp1682
bg2
(I735
tp1683
Rp1684
(dp1685
btp1686
Rp1687
(dp1688
bag1
(g2
(I271
tp1689
Rp1690
(dp1691
bg2
(I383
tp1692
Rp1693
(dp1694
btp1695
Rp1696
(dp1697
bag1
(g2
(I738
tp1698
Rp1699
(dp1700
bg721
tp1701
Rp1702
(dp1703
bag1
(g2
(I837
tp1704
Rp1705
(dp1706
bg2
(I336
tp1707
Rp1708
(dp1709
btp1710
Rp1711
(dp1712
bag1
(g2
(I984
tp1713
Rp1714
(dp1715
bg2
(I46
tp1716
Rp1717
(dp1718
btp1719
Rp1720
(dp1721
bag1
(g2
(I909
tp1722
Rp1723
(dp1724
bg2
(I460
tp1725
Rp1726
(dp1727
btp1728
Rp1729
(dp1730
bag1
(g2
(I213
tp1731
Rp1732
(dp1733
bg2
(I925
tp1734
Rp1735
(dp1736
btp1737
Rp1738
(dp1739
bag1
(g2
(I752
tp1740
Rp1741
(dp1742
bg1174
tp1743
Rp1744
(dp1745
bag1
(g2
(I706
tp1746
Rp1747
(dp1748
bg2
(I677
tp1749
Rp1750
(dp1751
btp1752
Rp1753
(dp1754
bag1
(g2
(I635
tp1755
Rp1756
(dp1757
bg2
(I960
tp1758
Rp1759
(dp1760
btp1761
Rp1762
(dp1763
bag1
(g472
g1600
tp1764
Rp1765
(dp1766
bag1
(g2
(I979
tp1767
Rp1768
(dp1769
bg2
(I854
tp1770
Rp1771
(dp1772
btp1773
Rp1774
(dp1775
bag1
(g2
(I6
tp1776
Rp1777
(dp1778
bg2
(I719
tp1779
Rp1780
(dp1781
btp1782
Rp1783
(dp1784
bag1
(g2
(I473
tp1785
Rp1786
(dp1787
bg238
tp1788
Rp1789
(dp1790
bag1
(g2
(I325
tp1791
Rp1792
(dp1793
bg2
(I54
tp1794
Rp1795
(dp1796
btp1797
Rp1798
(dp1799
bag1
(g2
(I47
tp1800
Rp1801
(dp1802
bg2
(I88
tp1803
Rp1804
(dp1805
btp1806
Rp1807
(dp1808
bag1
(g2
(I124
tp1809
Rp1810
(dp1811
bg2
(I878
tp1812
Rp1813
(dp1814
btp1815
Rp1816
(dp1817
bag1
(g2
(I389
tp1818
Rp1819
(dp1820
bg2
(I157
tp1821
Rp1822
(dp1823
btp1824
Rp1825
(dp1826
bag1
(g733
g2
(I18
tp1827
Rp1828
(dp1829
btp1830
Rp1831
(dp1832
bag1
(g2
(I881
tp1833
Rp1834
(dp1835
bg2
(I640
tp1836
Rp1837
(dp1838
btp1839
Rp1840
(dp1841
bag1
(g2
(I605
tp1842
Rp1843
(dp1844
bg1279
tp1845
Rp1846
(dp1847
bag1
(g2
(I620
tp1848
Rp1849
(dp1850
bg2
(I102
tp1851
Rp1852
(dp1853
btp1854
Rp1855
(dp1856
bag1
(g1042
g121
tp1857
Rp1858
(dp1859
bag1
(g2
(I751
tp1860
Rp1861
(dp1862
bg589
tp1863
Rp1864
(dp1865
bag1
(g2
(I97
tp1866
Rp1867
(dp1868
bg67
tp1869
Rp1870
(dp1871
bag1
(g2
(I181
tp1872
Rp1873
(dp1874
bg2
(I322
tp1875
Rp1876
(dp1877
btp1878
Rp1879
(dp1880
bag1
(g2
(I489
tp1881
Rp1882
(dp1883
bg2
(I538
tp1884
Rp1885
(dp1886
btp1887
Rp1888
(dp1889
bag1
(g2
(I898
tp1890
Rp1891
(dp1892
bg1234
tp1893
Rp1894
(dp1895
bag1
(g2
(I769
tp1896
Rp1897
(dp1898
bg2
(I8
tp1899
Rp1900
(dp1901
btp1902
Rp1903
(dp1904
bag1
(g2
(I396
tp1905
Rp1906
(dp1907
bg2
(I989
tp1908
Rp1909
(dp1910
btp1911
Rp1912
(dp1913
bag1
(g445
g2
(I247
tp1914
Rp1915
(dp1916
btp1917
Rp1918
(dp1919
bag1
(g2
(I525
tp1920
Rp1921
(dp1922
bg910
tp1923
Rp1924
(dp1925
bag1
(g2
(I526
tp1926
Rp1927
(dp1928
bg2
(I595
tp1929
Rp1930
(dp1931
btp1932
Rp1933
(dp1934
bag1
(g667
g2
(I363
tp1935
Rp1936
(dp1937
btp1938
Rp1939
(dp1940
bag1
(g2
(I670
tp1941
Rp1942
(dp1943
bg2
(I852
tp1944
Rp1945
(dp1946
btp1947
Rp1948
(dp1949
bag1
(g2
(I329
tp1950
Rp1951
(dp1952
bg1513
tp1953
Rp1954
(dp1955
bag1
(g2
(I608
tp1956
Rp1957
(dp1958
bg2
(I692
tp1959
Rp1960
(dp1961
btp1962
Rp1963
(dp1964
bag1
(g223
g2
(I92
tp1965
Rp1966
(dp1967
btp1968
Rp1969
(dp1970
bag1
(g2
(I9
tp1971
Rp1972
(dp1973
bg859
tp1974
Rp1975
(dp1976
bag1
(g2
(I197
tp1977
Rp1978
(dp1979
bg1957
tp1980
Rp1981
(dp1982
bag1
(g1024
g2
(I510
tp1983
Rp1984
(dp1985
btp1986
Rp1987
(dp1988
bag1
(g697
g2
(I767
tp1989
Rp1990
(dp1991
btp1992
Rp1993
(dp1994
bag1
(g1759
g424
tp1995
Rp1996
(dp1997
bag1
(g2
(I364
tp1998
Rp1999
(dp2000
bg2
(I340
tp2001
Rp2002
(dp2003
btp2004
Rp2005
(dp2006
bag1
(g2
(I339
tp2007
Rp2008
(dp2009
bg2
(I603
tp2010
Rp2011
(dp2012
btp2013
Rp2014
(dp2015
bag1
(g1402
g2
(I403
tp2016
Rp2017
(dp2018
btp2019
Rp2020
(dp2021
bag1
(g1837
g2
(I62
tp2022
Rp2023
(dp2024
btp2025
Rp2026
(dp2027
bag1
(g2
(I79
tp2028
Rp2029
(dp2030
bg2
(I564
tp2031
Rp2032
(dp2033
btp2034
Rp2035
(dp2036
bag1
(g2
(I168
tp2037
Rp2038
(dp2039
bg2
(I888
tp2040
Rp2041
(dp2042
btp2043
Rp2044
(dp2045
bag1
(g2
(I988
tp2046
Rp2047
(dp2048
bg2
(I623
tp2049
Rp2050
(dp2051
btp2052
Rp2053
(dp2054
bag1
(g2
(I690
tp2055
Rp2056
(dp2057
bg2
(I178
tp2058
Rp2059
(dp2060
btp2061
Rp2062
(dp2063
bag1
(g2
(I113
tp2064
Rp2065
(dp2066
bg2
(I287
tp2067
Rp2068
(dp2069
btp2070
Rp2071
(dp2072
bag1
(g2
(I592
tp2073
Rp2074
(dp2075
bg1390
tp2076
Rp2077
(dp2078
bag1
(g1264
g2
(I894
tp2079
Rp2080
(dp2081
btp2082
Rp2083
(dp2084
bag1
(g97
g2
(I815
tp2085
Rp2086
(dp2087
btp2088
Rp2089
(dp2090
bag1
(g2
(I27
tp2091
Rp2092
(dp2093
bg2
(I923
tp2094
Rp2095
(dp2096
btp2097
Rp2098
(dp2099
bag1
(g2
(I546
tp2100
Rp2101
(dp2102
bg31
tp2103
Rp2104
(dp2105
bag1
(g2
(I906
tp2106
Rp2107
(dp2108
bg166
tp2109
Rp2110
(dp2111
bag1
(g34
g2
(I885
tp2112
Rp2113
(dp2114
btp2115
Rp2116
(dp2117
bag1
(g2
(I652
tp2118
Rp2119
(dp2120
bg2
(I773
tp2121
Rp2122
(dp2123
btp2124
Rp2125
(dp2126
bag1
(g2
(I227
tp2127
Rp2128
(dp2129
bg2
(I902
tp2130
Rp2131
(dp2132
btp2133
Rp2134
(dp2135
bag1
(g2
(I964
tp2136
Rp2137
(dp2138
bg2
(I269
tp2139
Rp2140
(dp2141
btp2142
Rp2143
(dp2144
bag1
(g2
(I5
tp2145
Rp2146
(dp2147
bg2
(I484
tp2148
Rp2149
(dp2150
btp2151
Rp2152
(dp2153
bag1
(g142
g2
(I432
tp2154
Rp2155
(dp2156
btp2157
Rp2158
(dp2159
bag1
(g2
(I886
tp2160
Rp2161
(dp2162
bg1462
tp2163
Rp2164
(dp2165
bag1
(g2
(I114
tp2166
Rp2167
(dp2168
bg2
(I584
tp2169
Rp2170
(dp2171
btp2172
Rp2173
(dp2174
bag1
(g2
(I630
tp2175
Rp2176
(dp2177
bg2
(I479
tp2178
Rp2179
(dp2180
btp2181
Rp2182
(dp2183
bag1
(g2
(I697
tp2184
Rp2185
(dp2186
bg2
(I967
tp2187
Rp2188
(dp2189
btp2190
Rp2191
(dp2192
bag1
(g2
(I582
tp2193
Rp2194
(dp2195
bg2
(I574
tp2196
Rp2197
(dp2198
btp2199
Rp2200
(dp2201
bag1
(g2
(I963
tp2202
Rp2203
(dp2204
bg2
(I869
tp2205
Rp2206
(dp2207
btp2208
Rp2209
(dp2210
bag1
(g2
(I420
tp2211
Rp2212
(dp2213
bg2
(I944
tp2214
Rp2215
(dp2216
btp2217
Rp2218
(dp2219
bag1
(g2
(I531
tp2220
Rp2221
(dp2222
bg2
(I362
tp2223
Rp2224
(dp2225
btp2226
Rp2227
(dp2228
bag1
(g2
(I348
tp2229
Rp2230
(dp2231
bg2
(I879
tp2232
Rp2233
(dp2234
btp2235
Rp2236
(dp2237
bag1
(g2
(I53
tp2238
Rp2239
(dp2240
bg2
(I493
tp2241
Rp2242
(dp2243
btp2244
Rp2245
(dp2246
bag1
(g2
(I678
tp2247
Rp2248
(dp2249
bg406
tp2250
Rp2251
(dp2252
bag1
(g2
(I431
tp2253
Rp2254
(dp2255
bg1354
tp2256
Rp2257
(dp2258
bag1
(g2
(I218
tp2259
Rp2260
(dp2261
bg1648
tp2262
Rp2263
(dp2264
bag1
(g7
g2
(I199
tp2265
Rp2266
(dp2267
btp2268
Rp2269
(dp2270
bag1
(g2
(I714
tp2271
Rp2272
(dp2273
bg2
(I163
tp2274
Rp2275
(dp2276
btp2277
Rp2278
(dp2279
bag1
(g2
(I4
tp2280
Rp2281
(dp2282
bg2161
tp2283
Rp2284
(dp2285
bag1
(g2
(I280
tp2286
Rp2287
(dp2288
bg2
(I971
tp2289
Rp2290
(dp2291
btp2292
Rp2293
(dp2294
bag1
(g2
(I550
tp2295
Rp2296
(dp2297
bg2
(I400
tp2298
Rp2299
(dp2300
btp2301
Rp2302
(dp2303
bag1
(g1567
g2
(I949
tp2304
Rp2305
(dp2306
btp2307
Rp2308
(dp2309
bag1
(g2
(I360
tp2310
Rp2311
(dp2312
bg1252
tp2313
Rp2314
(dp2315
bag1
(g1483
g2
(I319
tp2316
Rp2317
(dp2318
btp2319
Rp2320
(dp2321
bag1
(g2
(I409
tp2322
Rp2323
(dp2324
bg22
tp2325
Rp2326
(dp2327
bag1
(g2
(I182
tp2328
Rp2329
(dp2330
bg2
(I772
tp2331
Rp2332
(dp2333
btp2334
Rp2335
(dp2336
bag1
(g2
(I285
tp2337
Rp2338
(dp2339
bg2
(I911
tp2340
Rp2341
(dp2342
btp2343
Rp2344
(dp2345
bag1
(g2
(I578
tp2346
Rp2347
(dp2348
bg2
(I565
tp2349
Rp2350
(dp2351
btp2352
Rp2353
(dp2354
bag1
(g2
(I436
tp2355
Rp2356
(dp2357
bg2
(I267
tp2358
Rp2359
(dp2360
btp2361
Rp2362
(dp2363
bag1
(g2
(I243
tp2364
Rp2365
(dp2366
bg2
(I975
tp2367
Rp2368
(dp2369
btp2370
Rp2371
(dp2372
bag1
(g2
(I557
tp2373
Rp2374
(dp2375
bg2
(I657
tp2376
Rp2377
(dp2378
btp2379
Rp2380
(dp2381
bag1
(g2
(I618
tp2382
Rp2383
(dp2384
bg2
(I932
tp2385
Rp2386
(dp2387
btp2388
Rp2389
(dp2390
bag1
(g2
(I33
tp2391
Rp2392
(dp2393
bg1630
tp2394
Rp2395
(dp2396
bag1
(g2206
g2
(I172
tp2397
Rp2398
(dp2399
btp2400
Rp2401
(dp2402
bag1
(g1507
g2
(I433
tp2403
Rp2404
(dp2405
btp2406
Rp2407
(dp2408
bag1
(g2
(I144
tp2409
Rp2410
(dp2411
bg2
(I648
tp2412
Rp2413
(dp2414
btp2415
Rp2416
(dp2417
bag1
(g2
(I191
tp2418
Rp2419
(dp2420
bg496
tp2421
Rp2422
(dp2423
bag1
(g2
(I404
tp2424
Rp2425
(dp2426
bg2
(I889
tp2427
Rp2428
(dp2429
btp2430
Rp2431
(dp2432
bag1
(g2
(I842
tp2433
Rp2434
(dp2435
bg2
(I488
tp2436
Rp2437
(dp2438
btp2439
Rp2440
(dp2441
bag1
(g2
(I251
tp2442
Rp2443
(dp2444
bg2
(I392
tp2445
Rp2446
(dp2447
btp2448
Rp2449
(dp2450
bag1
(g2
(I520
tp2451
Rp2452
(dp2453
bg868
tp2454
Rp2455
(dp2456
bag1
(g937
g2
(I768
tp2457
Rp2458
(dp2459
btp2460
Rp2461
(dp2462
bag1
(g2
(I824
tp2463
Rp2464
(dp2465
bg2137
tp2466
Rp2467
(dp2468
bag1
(g2
(I659
tp2469
Rp2470
(dp2471
bg2464
tp2472
Rp2473
(dp2474
bag1
(g2
(I2
tp2475
Rp2476
(dp2477
bg478
tp2478
Rp2479
(dp2480
bag1
(g2
(I58
tp2481
Rp2482
(dp2483
bg2
(I673
tp2484
Rp2485
(dp2486
btp2487
Rp2488
(dp2489
bag1
(g2
(I560
tp2490
Rp2491
(dp2492
bg2
(I38
tp2493
Rp2494
(dp2495
btp2496
Rp2497
(dp2498
bag1
(g1465
g2
(I95
tp2499
Rp2500
(dp2501
btp2502
Rp2503
(dp2504
bag1
(g1876
g2
(I536
tp2505
Rp2506
(dp2507
btp2508
Rp2509
(dp2510
bag1
(g706
g301
tp2511
Rp2512
(dp2513
bag1
(g2155
g2
(I561
tp2514
Rp2515
(dp2516
btp2517
Rp2518
(dp2519
bag1
(g2
(I600
tp2520
Rp2521
(dp2522
bg2
(I30
tp2523
Rp2524
(dp2525
btp2526
Rp2527
(dp2528
bag1
(g2
(I272
tp2529
Rp2530
(dp2531
bg2
(I372
tp2532
Rp2533
(dp2534
btp2535
Rp2536
(dp2537
bag1
(g2
(I841
tp2538
Rp2539
(dp2540
bg2470
tp2541
Rp2542
(dp2543
bag1
(g817
g2
(I740
tp2544
Rp2545
(dp2546
btp2547
Rp2548
(dp2549
bag1
(g2
(I573
tp2550
Rp2551
(dp2552
bg1786
tp2553
Rp2554
(dp2555
bag1
(g2
(I458
tp2556
Rp2557
(dp2558
bg2347
tp2559
Rp2560
(dp2561
bag1
(g2
(I987
tp2562
Rp2563
(dp2564
bg2056
tp2565
Rp2566
(dp2567
bag1
(g2
(I110
tp2568
Rp2569
(dp2570
bg1819
tp2571
Rp2572
(dp2573
bag1
(g169
g2
(I410
tp2574
Rp2575
(dp2576
btp2577
Rp2578
(dp2579
bag1
(g2
(I970
tp2580
Rp2581
(dp2582
bg13
tp2583
Rp2584
(dp2585
ba.