(lp0
csympy.geometry.point
Point2D
p1
(csympy.core.numbers
Integer
p2
(I435
tp3
Rp4
(dp5
bg2
(I907
tp6
Rp7
(dp8
btp9
Rp10
(dp11
bag1
(g2
(I893
tp12
Rp13
(dp14
bg2
(I2
tp15
Rp16
(dp17
btp18
Rp19
(dp20
bag1
(g2
(I127
tp21
Rp22
(dp23
bg2
(I180
tp24
Rp25
(dp26
btp27
Rp28
(dp29
bag1
(g2
(I82
tp30
Rp31
(dp32
bg2
(I609
tp33
Rp34
(dp35
btp36
Rp37
(dp38
bag1
(g2
(I973
tp39
Rp40
(dp41
bg2
(I274
tp42
Rp43
(dp44
btp45
Rp46
(dp47
bag1
(g2
(I751
tp48
Rp49
(dp50
bg2
(I514
tp51
Rp52
(dp53
btp54
Rp55
(dp56
bag1
(g2
(I487
tp57
Rp58
(dp59
bg2
(I903
tp60
Rp61
(dp62
btp63
Rp64
(dp65
bag1
(g2
(I871
tp66
Rp67
(dp68
bg2
(I217
tp69
Rp70
(dp71
btp72
Rp73
(dp74
bag1
(g2
(I181
tp75
Rp76
(dp77
bg2
(I741
tp78
Rp79
(dp80
btp81
Rp82
(dp83
bag1
(g2
(I224
tp84
Rp85
(dp86
bg67
tp87
Rp88
(dp89
bag1
(g2
(I894
tp90
Rp91
(dp92
bg2
(I344
tp93
Rp94
(dp95
btp96
Rp97
(dp98
bag1
(g2
(I5
tp99
Rp100
(dp101
bg2
(I786
tp102
Rp103
(dp104
btp105
Rp106
(dp107
bag1
(g2
(I557
tp108
Rp109
(dp110
bg2
(I76
tp111
Rp112
(dp113
btp114
Rp115
(dp116
bag1
(g2
(I497
tp117
Rp118
(dp119
bg2
(I605
tp120
Rp121
(dp122
btp123
Rp124
(dp125
bag1
(g2
(I95
tp126
Rp127
(dp128
bg2
(I799
tp129
Rp130
(dp131
btp132
Rp133
(dp134
bag1
(g2
(I296
tp135
Rp136
(dp137
bg2
(I219
tp138
Rp139
(dp140
btp141
Rp142
(dp143
bag1
(g2
(I480
tp144
Rp145
(dp146
bg2
(I297
tp147
Rp148
(dp149
btp150
Rp151
(dp152
bag1
(g2
(I518
tp153
Rp154
(dp155
bg2
(I425
tp156
Rp157
(dp158
btp159
Rp160
(dp161
bag1
(g2
(I946
tp162
Rp163
(dp164
bg2
(I889
tp165
Rp166
(dp167
btp168
Rp169
(dp170
bag1
(g2
(I193
tp171
Rp172
(dp173
bg2
(I468
tp174
Rp175
(dp176
btp177
Rp178
(dp179
bag1
(g2
(I873
tp180
Rp181
(dp182
bg2
(I668
tp183
Rp184
(dp185
btp186
Rp187
(dp188
bag1
(g2
(I685
tp189
Rp190
(dp191
bg2
(I932
tp192
Rp193
(dp194
btp195
Rp196
(dp197
bag1
(g2
(I178
tp198
Rp199
(dp200
bg2
(I177
tp201
Rp202
(dp203
btp204
Rp205
(dp206
bag1
(g2
(I544
tp207
Rp208
(dp209
bg2
(I883
tp210
Rp211
(dp212
btp213
Rp214
(dp215
bag1
(g2
(I339
tp216
Rp217
(dp218
bg2
(I769
tp219
Rp220
(dp221
btp222
Rp223
(dp224
bag1
(g2
(I133
tp225
Rp226
(dp227
bg2
(I153
tp228
Rp229
(dp230
btp231
Rp232
(dp233
bag1
(g2
(I647
tp234
Rp235
(dp236
bg2
(I993
tp237
Rp238
(dp239
btp240
Rp241
(dp242
bag1
(g2
(I876
tp243
Rp244
(dp245
bg2
(I742
tp246
Rp247
(dp248
btp249
Rp250
(dp251
bag1
(g2
(I21
tp252
Rp253
(dp254
bg2
(I500
tp255
Rp256
(dp257
btp258
Rp259
(dp260
bag1
(g2
(I248
tp261
Rp262
(dp263
bg2
(I708
tp264
Rp265
(dp266
btp267
Rp268
(dp269
bag1
(g265
g4
tp270
Rp271
(dp272
bag1
(g2
(I643
tp273
Rp274
(dp275
bg2
(I530
tp276
Rp277
(dp278
btp279
Rp280
(dp281
bag1
(g2
(I717
tp282
Rp283
(dp284
bg2
(I912
tp285
Rp286
(dp287
btp288
Rp289
(dp290
bag1
(g2
(I739
tp291
Rp292
(dp293
bg2
(I475
tp294
Rp295
(dp296
btp297
Rp298
(dp299
bag1
(g2
(I715
tp300
Rp301
(dp302
bg2
(I143
tp303
Rp304
(dp305
btp306
Rp307
(dp308
bag1
(g2
(I66
tp309
Rp310
(dp311
bg2
(I561
tp312
Rp313
(dp314
btp315
Rp316
(dp317
bag1
(g2
(I521
tp318
Rp319
(dp320
bg2
(I697
tp321
Rp322
(dp323
btp324
Rp325
(dp326
bag1
(g2
(I434
tp327
Rp328
(dp329
bg2
(I992
tp330
Rp331
(dp332
btp333
Rp334
(dp335
bag1
(g2
(I8
tp336
Rp337
(dp338
bg2
(I654
tp339
Rp340
(dp341
btp342
Rp343
(dp344
bag1
(g2
(I498
tp345
Rp346
(dp347
bg2
(I676
tp348
Rp349
(dp350
btp351
Rp352
(dp353
bag1
(g2
(I452
tp354
Rp355
(dp356
bg2
(I818
tp357
Rp358
(dp359
btp360
Rp361
(dp362
bag1
(g2
(I109
tp363
Rp364
(dp365
bg2
(I108
tp366
Rp367
(dp368
btp369
Rp370
(dp371
bag1
(g2
(I210
tp372
Rp373
(dp374
bg2
(I836
tp375
Rp376
(dp377
btp378
Rp379
(dp380
bag1
(g2
(I174
tp381
Rp382
(dp383
bg2
(I755
tp384
Rp385
(dp386
btp387
Rp388
(dp389
bag1
(g2
(I386
tp390
Rp391
(dp392
bg337
tp393
Rp394
(dp395
bag1
(g2
(I526
tp396
Rp397
(dp398
bg2
(I150
tp399
Rp400
(dp401
btp402
Rp403
(dp404
bag1
(g2
(I446
tp405
Rp406
(dp407
bg2
(I523
tp408
Rp409
(dp410
btp411
Rp412
(dp413
bag1
(g2
(I512
tp414
Rp415
(dp416
bg2
(I934
tp417
Rp418
(dp419
btp420
Rp421
(dp422
bag1
(g2
(I228
tp423
Rp424
(dp425
bg2
(I707
tp426
Rp427
(dp428
btp429
Rp430
(dp431
bag1
(g2
(I273
tp432
Rp433
(dp434
bg2
(I306
tp435
Rp436
(dp437
btp438
Rp439
(dp440
bag1
(g2
(I524
tp441
Rp442
(dp443
bg2
(I948
tp444
Rp445
(dp446
btp447
Rp448
(dp449
bag1
(g2
(I427
tp450
Rp451
(dp452
bg2
(I486
tp453
Rp454
(dp455
btp456
Rp457
(dp458
bag1
(g2
(I490
tp459
Rp460
(dp461
bg2
(I815
tp462
Rp463
(dp464
btp465
Rp466
(dp467
bag1
(g2
(I350
tp468
Rp469
(dp470
bg2
(I753
tp471
Rp472
(dp473
btp474
Rp475
(dp476
bag1
(g2
(I254
tp477
Rp478
(dp479
bg2
(I291
tp480
Rp481
(dp482
btp483
Rp484
(dp485
bag1
(g2
(I758
tp486
Rp487
(dp488
bg2
(I731
tp489
Rp490
(dp491
btp492
Rp493
(dp494
bag1
(g2
(I547
tp495
Rp496
(dp497
bg2
(I22
tp498
Rp499
(dp500
btp501
Rp502
(dp503
bag1
(g2
(I666
tp504
Rp505
(dp506
bg2
(I882
tp507
Rp508
(dp509
btp510
Rp511
(dp512
bag1
(g2
(I249
tp513
Rp514
(dp515
bg2
(I620
tp516
Rp517
(dp518
btp519
Rp520
(dp521
bag1
(g2
(I298
tp522
Rp523
(dp524
bg2
(I898
tp525
Rp526
(dp527
btp528
Rp529
(dp530
bag1
(g2
(I724
tp531
Rp532
(dp533
bg2
(I277
tp534
Rp535
(dp536
btp537
Rp538
(dp539
bag1
(g2
(I499
tp540
Rp541
(dp542
bg2
(I282
tp543
Rp544
(dp545
btp546
Rp547
(dp548
bag1
(g2
(I415
tp549
Rp550
(dp551
bg2
(I485
tp552
Rp553
(dp554
btp555
Rp556
(dp557
bag1
(g2
(I234
tp558
Rp559
(dp560
bg2
(I774
tp561
Rp562
(dp563
btp564
Rp565
(dp566
bag1
(g499
g235
tp567
Rp568
(dp569
bag1
(g2
(I870
tp570
Rp571
(dp572
bg2
(I411
tp573
Rp574
(dp575
btp576
Rp577
(dp578
bag1
(g2
(I928
tp579
Rp580
(dp581
bg2
(I115
tp582
Rp583
(dp584
btp585
Rp586
(dp587
bag1
(g2
(I214
tp588
Rp589
(dp590
bg2
(I44
tp591
Rp592
(dp593
btp594
Rp595
(dp596
bag1
(g2
(I729
tp597
Rp598
(dp599
bg2
(I85
tp600
Rp601
(dp602
btp603
Rp604
(dp605
bag1
(g2
(I450
tp606
Rp607
(dp608
bg2
(I533
tp609
Rp610
(dp611
btp612
Rp613
(dp614
bag1
(g2
(I921
tp615
Rp616
(dp617
bg2
(I926
tp618
Rp619
(dp620
btp621
Rp622
(dp623
bag1
(g2
(I58
tp624
Rp625
(dp626
bg2
(I222
tp627
Rp628
(dp629
btp630
Rp631
(dp632
bag1
(g121
g2
(I595
tp633
Rp634
(dp635
btp636
Rp637
(dp638
bag1
(g2
(I32
tp639
Rp640
(dp641
bg451
tp642
Rp643
(dp644
bag1
(g2
(I453
tp645
Rp646
(dp647
bg2
(I682
tp648
Rp649
(dp650
btp651
Rp652
(dp653
bag1
(g2
(I601
tp654
Rp655
(dp656
bg2
(I31
tp657
Rp658
(dp659
btp660
Rp661
(dp662
bag1
(g2
(I787
tp663
Rp664
(dp665
bg2
(I637
tp666
Rp667
(dp668
btp669
Rp670
(dp671
bag1
(g2
(I940
tp672
Rp673
(dp674
bg2
(I270
tp675
Rp676
(dp677
btp678
Rp679
(dp680
bag1
(g2
(I461
tp681
Rp682
(dp683
bg2
(I933
tp684
Rp685
(dp686
btp687
Rp688
(dp689
bag1
(g2
(I807
tp690
Rp691
(dp692
bg2
(I937
tp693
Rp694
(dp695
btp696
Rp697
(dp698
bag1
(g2
(I699
tp699
Rp700
(dp701
bg2
(I915
tp702
Rp703
(dp704
btp705
Rp706
(dp707
bag1
(g139
g2
(I727
tp708
Rp709
(dp710
btp711
Rp712
(dp713
bag1
(g2
(I371
tp714
Rp715
(dp716
bg2
(I390
tp717
Rp718
(dp719
btp720
Rp721
(dp722
bag1
(g2
(I101
tp723
Rp724
(dp725
bg532
tp726
Rp727
(dp728
bag1
(g2
(I611
tp729
Rp730
(dp731
bg2
(I830
tp732
Rp733
(dp734
btp735
Rp736
(dp737
bag1
(g2
(I36
tp738
Rp739
(dp740
bg2
(I431
tp741
Rp742
(dp743
btp744
Rp745
(dp746
bag1
(g2
(I670
tp747
Rp748
(dp749
bg2
(I628
tp750
Rp751
(dp752
btp753
Rp754
(dp755
bag1
(g2
(I688
tp756
Rp757
(dp758
bg2
(I875
tp759
Rp760
(dp761
btp762
Rp763
(dp764
bag1
(g2
(I851
tp765
Rp766
(dp767
bg739
tp768
Rp769
(dp770
bag1
(g2
(I917
tp771
Rp772
(dp773
bg2
(I206
tp774
Rp775
(dp776
btp777
Rp778
(dp779
bag1
(g2
(I345
tp780
Rp781
(dp782
bg2
(I577
tp783
Rp784
(dp785
btp786
Rp787
(dp788
bag1
(g2
(I607
tp789
Rp790
(dp791
bg2
(I822
tp792
Rp793
(dp794
btp795
Rp796
(dp797
bag1
(g2
(I534
tp798
Rp799
(dp800
bg2
(I53
tp801
Rp802
(dp803
btp804
Rp805
(dp806
bag1
(g2
(I506
tp807
Rp808
(dp809
bg2
(I597
tp810
Rp811
(dp812
btp813
Rp814
(dp815
bag1
(g2
(I942
tp816
Rp817
(dp818
bg2
(I14
tp819
Rp820
(dp821
btp822
Rp823
(dp824
bag1
(g2
(I627
tp825
Rp826
(dp827
bg2
(I955
tp828
Rp829
(dp830
btp831
Rp832
(dp833
bag1
(g2
(I59
tp834
Rp835
(dp836
bg2
(I260
tp837
Rp838
(dp839
btp840
Rp841
(dp842
bag1
(g2
(I730
tp843
Rp844
(dp845
bg2
(I600
tp846
Rp847
(dp848
btp849
Rp850
(dp851
bag1
(g2
(I329
tp852
Rp853
(dp854
bg2
(I779
tp855
Rp856
(dp857
btp858
Rp859
(dp860
bag1
(g103
g2
(I183
tp861
Rp862
(dp863
btp864
Rp865
(dp866
bag1
(g2
(I123
tp867
Rp868
(dp869
bg2
(I759
tp870
Rp871
(dp872
btp873
Rp874
(dp875
bag1
(g2
(I970
tp876
Rp877
(dp878
bg2
(I165
tp879
Rp880
(dp881
btp882
Rp883
(dp884
bag1
(g2
(I971
tp885
Rp886
(dp887
bg2
(I622
tp888
Rp889
(dp890
btp891
Rp892
(dp893
bag1
(g2
(I43
tp894
Rp895
(dp896
bg2
(I336
tp897
Rp898
(dp899
btp900
Rp901
(dp902
bag1
(g2
(I472
tp903
Rp904
(dp905
bg2
(I166
tp906
Rp907
(dp908
btp909
Rp910
(dp911
bag1
(g2
(I104
tp912
Rp913
(dp914
bg2
(I752
tp915
Rp916
(dp917
btp918
Rp919
(dp920
bag1
(g2
(I102
tp921
Rp922
(dp923
bg2
(I330
tp924
Rp925
(dp926
btp927
Rp928
(dp929
bag1
(g2
(I950
tp930
Rp931
(dp932
bg2
(I842
tp933
Rp934
(dp935
btp936
Rp937
(dp938
bag1
(g2
(I569
tp939
Rp940
(dp941
bg2
(I872
tp942
Rp943
(dp944
btp945
Rp946
(dp947
bag1
(g2
(I865
tp948
Rp949
(dp950
bg2
(I186
tp951
Rp952
(dp953
btp954
Rp955
(dp956
bag1
(g2
(I258
tp957
Rp958
(dp959
bg2
(I380
tp960
Rp961
(dp962
btp963
Rp964
(dp965
bag1
(g2
(I459
tp966
Rp967
(dp968
bg2
(I323
tp969
Rp970
(dp971
btp972
Rp973
(dp974
bag1
(g2
(I405
tp975
Rp976
(dp977
bg2
(I713
tp978
Rp979
(dp980
btp981
Rp982
(dp983
bag1
(g2
(I728
tp984
Rp985
(dp986
bg2
(I226
tp987
Rp988
(dp989
btp990
Rp991
(dp992
bag1
(g2
(I191
tp993
Rp994
(dp995
bg2
(I995
tp996
Rp997
(dp998
btp999
Rp1000
(dp1001
bag1
(g742
g2
(I243
tp1002
Rp1003
(dp1004
btp1005
Rp1006
(dp1007
bag1
(g2
(I578
tp1008
Rp1009
(dp1010
bg2
(I333
tp1011
Rp1012
(dp1013
btp1014
Rp1015
(dp1016
bag1
(g2
(I354
tp1017
Rp1018
(dp1019
bg2
(I87
tp1020
Rp1021
(dp1022
btp1023
Rp1024
(dp1025
bag1
(g2
(I878
tp1026
Rp1027
(dp1028
bg2
(I349
tp1029
Rp1030
(dp1031
btp1032
Rp1033
(dp1034
bag1
(g2
(I738
tp1035
Rp1036
(dp1037
bg2
(I985
tp1038
Rp1039
(dp1040
btp1041
Rp1042
(dp1043
bag1
(g2
(I868
tp1044
Rp1045
(dp1046
bg2
(I529
tp1047
Rp1048
(dp1049
btp1050
Rp1051
(dp1052
bag1
(g2
(I113
tp1053
Rp1054
(dp1055
bg2
(I701
tp1056
Rp1057
(dp1058
btp1059
Rp1060
(dp1061
bag1
(g2
(I835
tp1062
Rp1063
(dp1064
bg700
tp1065
Rp1066
(dp1067
bag1
(g2
(I745
tp1068
Rp1069
(dp1070
bg2
(I792
tp1071
Rp1072
(dp1073
btp1074
Rp1075
(dp1076
bag1
(g2
(I39
tp1077
Rp1078
(dp1079
bg2
(I679
tp1080
Rp1081
(dp1082
btp1083
Rp1084
(dp1085
bag1
(g2
(I902
tp1086
Rp1087
(dp1088
bg2
(I536
tp1089
Rp1090
(dp1091
btp1092
Rp1093
(dp1094
bag1
(g331
g2
(I550
tp1095
Rp1096
(dp1097
btp1098
Rp1099
(dp1100
bag1
(g2
(I509
tp1101
Rp1102
(dp1103
bg2
(I363
tp1104
Rp1105
(dp1106
btp1107
Rp1108
(dp1109
bag1
(g2
(I265
tp1110
Rp1111
(dp1112
bg118
tp1113
Rp1114
(dp1115
bag1
(g2
(I887
tp1116
Rp1117
(dp1118
bg2
(I980
tp1119
Rp1120
(dp1121
btp1122
Rp1123
(dp1124
bag1
(g685
g2
(I566
tp1125
Rp1126
(dp1127
btp1128
Rp1129
(dp1130
bag1
(g2
(I302
tp1131
Rp1132
(dp1133
bg2
(I543
tp1134
Rp1135
(dp1136
btp1137
Rp1138
(dp1139
bag1
(g2
(I969
tp1140
Rp1141
(dp1142
bg2
(I195
tp1143
Rp1144
(dp1145
btp1146
Rp1147
(dp1148
bag1
(g2
(I410
tp1149
Rp1150
(dp1151
bg319
tp1152
Rp1153
(dp1154
bag1
(g2
(I293
tp1155
Rp1156
(dp1157
bg2
(I239
tp1158
Rp1159
(dp1160
btp1161
Rp1162
(dp1163
bag1
(g2
(I471
tp1164
Rp1165
(dp1166
bg2
(I38
tp1167
Rp1168
(dp1169
btp1170
Rp1171
(dp1172
bag1
(g1090
g2
(I15
tp1173
Rp1174
(dp1175
btp1176
Rp1177
(dp1178
bag1
(g2
(I170
tp1179
Rp1180
(dp1181
bg2
(I467
tp1182
Rp1183
(dp1184
btp1185
Rp1186
(dp1187
bag1
(g2
(I341
tp1188
Rp1189
(dp1190
bg2
(I171
tp1191
Rp1192
(dp1193
btp1194
Rp1195
(dp1196
bag1
(g2
(I305
tp1197
Rp1198
(dp1199
bg2
(I114
tp1200
Rp1201
(dp1202
btp1203
Rp1204
(dp1205
bag1
(g2
(I392
tp1206
Rp1207
(dp1208
bg2
(I401
tp1209
Rp1210
(dp1211
btp1212
Rp1213
(dp1214
bag1
(g2
(I593
tp1215
Rp1216
(dp1217
bg2
(I295
tp1218
Rp1219
(dp1220
btp1221
Rp1222
(dp1223
bag1
(g2
(I311
tp1224
Rp1225
(dp1226
bg559
tp1227
Rp1228
(dp1229
bag1
(g2
(I819
tp1230
Rp1231
(dp1232
bg2
(I465
tp1233
Rp1234
(dp1235
btp1236
Rp1237
(dp1238
bag1
(g2
(I187
tp1239
Rp1240
(dp1241
bg2
(I584
tp1242
Rp1243
(dp1244
btp1245
Rp1246
(dp1247
bag1
(g2
(I395
tp1248
Rp1249
(dp1250
bg2
(I790
tp1251
Rp1252
(dp1253
btp1254
Rp1255
(dp1256
bag1
(g2
(I562
tp1257
Rp1258
(dp1259
bg2
(I244
tp1260
Rp1261
(dp1262
btp1263
Rp1264
(dp1265
bag1
(g2
(I18
tp1266
Rp1267
(dp1268
bg2
(I712
tp1269
Rp1270
(dp1271
btp1272
Rp1273
(dp1274
bag1
(g2
(I185
tp1275
Rp1276
(dp1277
bg2
(I67
tp1278
Rp1279
(dp1280
btp1281
Rp1282
(dp1283
bag1
(g2
(I263
tp1284
Rp1285
(dp1286
bg2
(I962
tp1287
Rp1288
(dp1289
btp1290
Rp1291
(dp1292
bag1
(g2
(I746
tp1293
Rp1294
(dp1295
bg2
(I152
tp1296
Rp1297
(dp1298
btp1299
Rp1300
(dp1301
bag1
(g871
g292
tp1302
Rp1303
(dp1304
bag1
(g2
(I154
tp1305
Rp1306
(dp1307
bg2
(I121
tp1308
Rp1309
(dp1310
btp1311
Rp1312
(dp1313
bag1
(g2
(I817
tp1314
Rp1315
(dp1316
bg2
(I463
tp1317
Rp1318
(dp1319
btp1320
Rp1321
(dp1322
bag1
(g553
g2
(I837
tp1323
Rp1324
(dp1325
btp1326
Rp1327
(dp1328
bag1
(g2
(I956
tp1329
Rp1330
(dp1331
bg2
(I148
tp1332
Rp1333
(dp1334
btp1335
Rp1336
(dp1337
bag1
(g907
g2
(I97
tp1338
Rp1339
(dp1340
btp1341
Rp1342
(dp1343
bag1
(g2
(I930
tp1344
Rp1345
(dp1346
bg2
(I233
tp1347
Rp1348
(dp1349
btp1350
Rp1351
(dp1352
bag1
(g2
(I264
tp1353
Rp1354
(dp1355
bg2
(I504
tp1356
Rp1357
(dp1358
btp1359
Rp1360
(dp1361
bag1
(g2
(I919
tp1362
Rp1363
(dp1364
bg2
(I576
tp1365
Rp1366
(dp1367
btp1368
Rp1369
(dp1370
bag1
(g1339
g2
(I229
tp1371
Rp1372
(dp1373
btp1374
Rp1375
(dp1376
bag1
(g2
(I182
tp1377
Rp1378
(dp1379
bg2
(I735
tp1380
Rp1381
(dp1382
btp1383
Rp1384
(dp1385
bag1
(g2
(I906
tp1386
Rp1387
(dp1388
bg2
(I802
tp1389
Rp1390
(dp1391
btp1392
Rp1393
(dp1394
bag1
(g313
g2
(I800
tp1395
Rp1396
(dp1397
btp1398
Rp1399
(dp1400
bag1
(g2
(I384
tp1401
Rp1402
(dp1403
bg2
(I848
tp1404
Rp1405
(dp1406
btp1407
Rp1408
(dp1409
bag1
(g2
(I397
tp1410
Rp1411
(dp1412
bg2
(I481
tp1413
Rp1414
(dp1415
btp1416
Rp1417
(dp1418
bag1
(g2
(I966
tp1419
Rp1420
(dp1421
bg2
(I648
tp1422
Rp1423
(dp1424
btp1425
Rp1426
(dp1427
bag1
(g2
(I860
tp1428
Rp1429
(dp1430
bg2
(I582
tp1431
Rp1432
(dp1433
btp1434
Rp1435
(dp1436
bag1
(g2
(I615
tp1437
Rp1438
(dp1439
bg2
(I631
tp1440
Rp1441
(dp1442
btp1443
Rp1444
(dp1445
bag1
(g2
(I155
tp1446
Rp1447
(dp1448
bg2
(I927
tp1449
Rp1450
(dp1451
btp1452
Rp1453
(dp1454
bag1
(g2
(I633
tp1455
Rp1456
(dp1457
bg2
(I309
tp1458
Rp1459
(dp1460
btp1461
Rp1462
(dp1463
bag1
(g2
(I377
tp1464
Rp1465
(dp1466
bg2
(I511
tp1467
Rp1468
(dp1469
btp1470
Rp1471
(dp1472
bag1
(g2
(I279
tp1473
Rp1474
(dp1475
bg31
tp1476
Rp1477
(dp1478
bag1
(g2
(I765
tp1479
Rp1480
(dp1481
bg2
(I23
tp1482
Rp1483
(dp1484
btp1485
Rp1486
(dp1487
bag1
(g2
(I257
tp1488
Rp1489
(dp1490
bg2
(I572
tp1491
Rp1492
(dp1493
btp1494
Rp1495
(dp1496
bag1
(g2
(I203
tp1497
Rp1498
(dp1499
bg2
(I81
tp1500
Rp1501
(dp1502
btp1503
Rp1504
(dp1505
bag1
(g2
(I34
tp1506
Rp1507
(dp1508
bg217
tp1509
Rp1510
(dp1511
bag1
(g2
(I294
tp1512
Rp1513
(dp1514
bg2
(I495
tp1515
Rp1516
(dp1517
btp1518
Rp1519
(dp1520
bag1
(g2
(I660
tp1521
Rp1522
(dp1523
bg2
(I340
tp1524
Rp1525
(dp1526
btp1527
Rp1528
(dp1529
bag1
(g2
(I429
tp1530
Rp1531
(dp1532
bg22
tp1533
Rp1534
(dp1535
bag1
(g2
(I986
tp1536
Rp1537
(dp1538
bg2
(I370
tp1539
Rp1540
(dp1541
btp1542
Rp1543
(dp1544
bag1
(g2
(I517
tp1545
Rp1546
(dp1547
bg2
(I780
tp1548
Rp1549
(dp1550
btp1551
Rp1552
(dp1553
bag1
(g2
(I373
tp1554
Rp1555
(dp1556
bg2
(I957
tp1557
Rp1558
(dp1559
btp1560
Rp1561
(dp1562
bag1
(g454
g2
(I672
tp1563
Rp1564
(dp1565
btp1566
Rp1567
(dp1568
bag1
(g2
(I94
tp1569
Rp1570
(dp1571
bg2
(I93
tp1572
Rp1573
(dp1574
btp1575
Rp1576
(dp1577
bag1
(g2
(I843
tp1578
Rp1579
(dp1580
bg2
(I360
tp1581
Rp1582
(dp1583
btp1584
Rp1585
(dp1586
bag1
(g2
(I952
tp1587
Rp1588
(dp1589
bg85
tp1590
Rp1591
(dp1592
bag1
(g2
(I877
tp1593
Rp1594
(dp1595
bg2
(I137
tp1596
Rp1597
(dp1598
btp1599
Rp1600
(dp1601
bag1
(g2
(I539
tp1602
Rp1603
(dp1604
bg2
(I403
tp1605
Rp1606
(dp1607
btp1608
Rp1609
(dp1610
bag1
(g2
(I814
tp1611
Rp1612
(dp1613
bg2
(I343
tp1614
Rp1615
(dp1616
btp1617
Rp1618
(dp1619
bag1
(g2
(I50
tp1620
Rp1621
(dp1622
bg2
(I542
tp1623
Rp1624
(dp1625
btp1626
Rp1627
(dp1628
bag1
(g2
(I867
tp1629
Rp1630
(dp1631
bg2
(I559
tp1632
Rp1633
(dp1634
btp1635
Rp1636
(dp1637
bag1
(g2
(I662
tp1638
Rp1639
(dp1640
bg1354
tp1641
Rp1642
(dp1643
bag1
(g2
(I890
tp1644
Rp1645
(dp1646
bg2
(I720
tp1647
Rp1648
(dp1649
btp1650
Rp1651
(dp1652
bag1
(g1606
g2
(I583
tp1653
Rp1654
(dp1655
btp1656
Rp1657
(dp1658
bag1
(g2
(I650
tp1659
Rp1660
(dp1661
bg2
(I51
tp1662
Rp1663
(dp1664
btp1665
Rp1666
(dp1667
bag1
(g2
(I337
tp1668
Rp1669
(dp1670
bg2
(I173
tp1671
Rp1672
(dp1673
btp1674
Rp1675
(dp1676
bag1
(g2
(I733
tp1677
Rp1678
(dp1679
bg2
(I988
tp1680
Rp1681
(dp1682
btp1683
Rp1684
(dp1685
bag1
(g2
(I532
tp1686
Rp1687
(dp1688
bg2
(I175
tp1689
Rp1690
(dp1691
btp1692
Rp1693
(dp1694
bag1
(g2
(I719
tp1695
Rp1696
(dp1697
bg328
tp1698
Rp1699
(dp1700
bag1
(g2
(I75
tp1701
Rp1702
(dp1703
bg2
(I827
tp1704
Rp1705
(dp1706
btp1707
Rp1708
(dp1709
bag1
(g409
g2
(I811
tp1710
Rp1711
(dp1712
btp1713
Rp1714
(dp1715
bag1
(g2
(I725
tp1716
Rp1717
(dp1718
bg2
(I798
tp1719
Rp1720
(dp1721
btp1722
Rp1723
(dp1724
bag1
(g2
(I27
tp1725
Rp1726
(dp1727
bg1045
tp1728
Rp1729
(dp1730
bag1
(g79
g2
(I983
tp1731
Rp1732
(dp1733
btp1734
Rp1735
(dp1736
bag1
(g2
(I200
tp1737
Rp1738
(dp1739
bg2
(I797
tp1740
Rp1741
(dp1742
btp1743
Rp1744
(dp1745
bag1
(g2
(I365
tp1746
Rp1747
(dp1748
bg2
(I385
tp1749
Rp1750
(dp1751
btp1752
Rp1753
(dp1754
bag1
(g2
(I768
tp1755
Rp1756
(dp1757
bg2
(I847
tp1758
Rp1759
(dp1760
btp1761
Rp1762
(dp1763
bag1
(g2
(I394
tp1764
Rp1765
(dp1766
bg2
(I806
tp1767
Rp1768
(dp1769
btp1770
Rp1771
(dp1772
bag1
(g2
(I968
tp1773
Rp1774
(dp1775
bg1765
tp1776
Rp1777
(dp1778
bag1
(g2
(I824
tp1779
Rp1780
(dp1781
bg136
tp1782
Rp1783
(dp1784
bag1
(g2
(I275
tp1785
Rp1786
(dp1787
bg2
(I632
tp1788
Rp1789
(dp1790
btp1791
Rp1792
(dp1793
bag1
(g2
(I655
tp1794
Rp1795
(dp1796
bg2
(I321
tp1797
Rp1798
(dp1799
btp1800
Rp1801
(dp1802
bag1
(g583
g2
(I692
tp1803
Rp1804
(dp1805
btp1806
Rp1807
(dp1808
bag1
(g2
(I283
tp1809
Rp1810
(dp1811
bg2
(I853
tp1812
Rp1813
(dp1814
btp1815
Rp1816
(dp1817
bag1
(g2
(I700
tp1818
Rp1819
(dp1820
bg2
(I382
tp1821
Rp1822
(dp1823
btp1824
Rp1825
(dp1826
bag1
(g2
(I68
tp1827
Rp1828
(dp1829
bg2
(I388
tp1830
Rp1831
(dp1832
btp1833
Rp1834
(dp1835
bag1
(g2
(I176
tp1836
Rp1837
(dp1838
bg2
(I207
tp1839
Rp1840
(dp1841
btp1842
Rp1843
(dp1844
bag1
(g2
(I897
tp1845
Rp1846
(dp1847
bg2
(I623
tp1848
Rp1849
(dp1850
btp1851
Rp1852
(dp1853
bag1
(g2
(I573
tp1854
Rp1855
(dp1856
bg904
tp1857
Rp1858
(dp1859
bag1
(g2
(I923
tp1860
Rp1861
(dp1862
bg2
(I86
tp1863
Rp1864
(dp1865
btp1866
Rp1867
(dp1868
bag1
(g2
(I689
tp1869
Rp1870
(dp1871
bg2
(I619
tp1872
Rp1873
(dp1874
btp1875
Rp1876
(dp1877
bag1
(g2
(I895
tp1878
Rp1879
(dp1880
bg2
(I750
tp1881
Rp1882
(dp1883
btp1884
Rp1885
(dp1886
bag1
(g1672
g2
(I404
tp1887
Rp1888
(dp1889
btp1890
Rp1891
(dp1892
bag1
(g2
(I861
tp1893
Rp1894
(dp1895
bg1141
tp1896
Rp1897
(dp1898
bag1
(g2
(I220
tp1899
Rp1900
(dp1901
bg2
(I56
tp1902
Rp1903
(dp1904
btp1905
Rp1906
(dp1907
bag1
(g2
(I238
tp1908
Rp1909
(dp1910
bg2
(I638
tp1911
Rp1912
(dp1913
btp1914
Rp1915
(dp1916
bag1
(g2
(I16
tp1917
Rp1918
(dp1919
bg2
(I972
tp1920
Rp1921
(dp1922
btp1923
Rp1924
(dp1925
bag1
(g2
(I73
tp1926
Rp1927
(dp1928
bg2
(I245
tp1929
Rp1930
(dp1931
btp1932
Rp1933
(dp1934
bag1
(g2
(I850
tp1935
Rp1936
(dp1937
bg2
(I703
tp1938
Rp1939
(dp1940
btp1941
Rp1942
(dp1943
bag1
(g2
(I40
tp1944
Rp1945
(dp1946
bg2
(I235
tp1947
Rp1948
(dp1949
btp1950
Rp1951
(dp1952
bag1
(g2
(I964
tp1953
Rp1954
(dp1955
bg2
(I393
tp1956
Rp1957
(dp1958
btp1959
Rp1960
(dp1961
bag1
(g970
g2
(I251
tp1962
Rp1963
(dp1964
btp1965
Rp1966
(dp1967
bag1
(g2
(I967
tp1968
Rp1969
(dp1970
bg2
(I564
tp1971
Rp1972
(dp1973
btp1974
Rp1975
(dp1976
bag1
(g2
(I372
tp1977
Rp1978
(dp1979
bg2
(I754
tp1980
Rp1981
(dp1982
btp1983
Rp1984
(dp1985
bag1
(g2
(I13
tp1986
Rp1987
(dp1988
bg2
(I399
tp1989
Rp1990
(dp1991
btp1992
Rp1993
(dp1994
bag1
(g2
(I160
tp1995
Rp1996
(dp1997
bg2
(I49
tp1998
Rp1999
(dp2000
btp2001
Rp2002
(dp2003
bag1
(g2
(I259
tp2004
Rp2005
(dp2006
bg163
tp2007
Rp2008
(dp2009
bag1
(g2
(I304
tp2010
Rp2011
(dp2012
bg1954
tp2013
Rp2014
(dp2015
bag1
(g2
(I938
tp2016
Rp2017
(dp2018
bg2
(I421
tp2019
Rp2020
(dp2021
btp2022
Rp2023
(dp2024
bag1
(g367
g2
(I449
tp2025
Rp2026
(dp2027
btp2028
Rp2029
(dp2030
bag1
(g2
(I89
tp2031
Rp2032
(dp2033
bg2
(I721
tp2034
Rp2035
(dp2036
btp2037
Rp2038
(dp2039
bag1
(g2
(I918
tp2040
Rp2041
(dp2042
bg640
tp2043
Rp2044
(dp2045
bag1
(g2
(I773
tp2046
Rp2047
(dp2048
bg2
(I594
tp2049
Rp2050
(dp2051
btp2052
Rp2053
(dp2054
bag1
(g2
(I420
tp2055
Rp2056
(dp2057
bg2
(I216
tp2058
Rp2059
(dp2060
btp2061
Rp2062
(dp2063
bag1
(g1720
g2
(I743
tp2064
Rp2065
(dp2066
btp2067
Rp2068
(dp2069
bag1
(g2
(I920
tp2070
Rp2071
(dp2072
bg2
(I618
tp2073
Rp2074
(dp2075
btp2076
Rp2077
(dp2078
bag1
(g2
(I231
tp2079
Rp2080
(dp2081
bg2
(I789
tp2082
Rp2083
(dp2084
btp2085
Rp2086
(dp2087
bag1
(g760
g2
(I949
tp2088
Rp2089
(dp2090
btp2091
Rp2092
(dp2093
bag1
(g2
(I387
tp2094
Rp2095
(dp2096
bg1165
tp2097
Rp2098
(dp2099
bag1
(g2
(I448
tp2100
Rp2101
(dp2102
bg2
(I356
tp2103
Rp2104
(dp2105
btp2106
Rp2107
(dp2108
bag1
(g2
(I366
tp2109
Rp2110
(dp2111
bg2
(I414
tp2112
Rp2113
(dp2114
btp2115
Rp2116
(dp2117
bag1
(g2
(I705
tp2118
Rp2119
(dp2120
bg2
(I406
tp2121
Rp2122
(dp2123
btp2124
Rp2125
(dp2126
bag1
(g2
(I303
tp2127
Rp2128
(dp2129
bg1198
tp2130
Rp2131
(dp2132
bag1
(g2
(I761
tp2133
Rp2134
(dp2135
bg1387
tp2136
Rp2137
(dp2138
bag1
(g2
(I430
tp2139
Rp2140
(dp2141
bg2
(I149
tp2142
Rp2143
(dp2144
btp2145
Rp2146
(dp2147
bag1
(g1948
g1294
tp2148
Rp2149
(dp2150
bag1
(g2
(I96
tp2151
Rp2152
(dp2153
bg2
(I159
tp2154
Rp2155
(dp2156
btp2157
Rp2158
(dp2159
bag1
(g2
(I515
tp2160
Rp2161
(dp2162
bg2
(I99
tp2163
Rp2164
(dp2165
btp2166
Rp2167
(dp2168
bag1
(g61
g2
(I840
tp2169
Rp2170
(dp2171
btp2172
Rp2173
(dp2174
bag1
(g2
(I391
tp2175
Rp2176
(dp2177
bg2110
tp2178
Rp2179
(dp2180
bag1
(g2
(I246
tp2181
Rp2182
(dp2183
bg625
tp2184
Rp2185
(dp2186
bag1
(g2
(I374
tp2187
Rp2188
(dp2189
bg2
(I736
tp2190
Rp2191
(dp2192
btp2193
Rp2194
(dp2195
bag1
(g2
(I502
tp2196
Rp2197
(dp2198
bg2
(I590
tp2199
Rp2200
(dp2201
btp2202
Rp2203
(dp2204
bag1
(g601
g2
(I862
tp2205
Rp2206
(dp2207
btp2208
Rp2209
(dp2210
bag1
(g2
(I796
tp2211
Rp2212
(dp2213
bg2
(I716
tp2214
Rp2215
(dp2216
btp2217
Rp2218
(dp2219
bag1
(g2
(I645
tp2220
Rp2221
(dp2222
bg2119
tp2223
Rp2224
(dp2225
bag1
(g2
(I65
tp2226
Rp2227
(dp2228
bg2
(I852
tp2229
Rp2230
(dp2231
btp2232
Rp2233
(dp2234
bag1
(g112
g2
(I416
tp2235
Rp2236
(dp2237
btp2238
Rp2239
(dp2240
bag1
(g2
(I629
tp2241
Rp2242
(dp2243
bg2
(I413
tp2244
Rp2245
(dp2246
btp2247
Rp2248
(dp2249
bag1
(g2
(I3
tp2250
Rp2251
(dp2252
bg2
(I90
tp2253
Rp2254
(dp2255
btp2256
Rp2257
(dp2258
bag1
(g934
g2
(I346
tp2259
Rp2260
(dp2261
btp2262
Rp2263
(dp2264
bag1
(g2
(I325
tp2265
Rp2266
(dp2267
bg208
tp2268
Rp2269
(dp2270
bag1
(g2
(I863
tp2271
Rp2272
(dp2273
bg2251
tp2274
Rp2275
(dp2276
bag1
(g2
(I687
tp2277
Rp2278
(dp2279
bg2161
tp2280
Rp2281
(dp2282
bag1
(g2
(I28
tp2283
Rp2284
(dp2285
bg1489
tp2286
Rp2287
(dp2288
bag1
(g2
(I880
tp2289
Rp2290
(dp2291
bg2
(I268
tp2292
Rp2293
(dp2294
btp2295
Rp2296
(dp2297
bag1
(g2
(I673
tp2298
Rp2299
(dp2300
bg2
(I125
tp2301
Rp2302
(dp2303
btp2304
Rp2305
(dp2306
bag1
(g1921
g2
(I657
tp2307
Rp2308
(dp2309
btp2310
Rp2311
(dp2312
bag1
(g2
(I55
tp2313
Rp2314
(dp2315
bg772
tp2316
Rp2317
(dp2318
bag1
(g2
(I551
tp2319
Rp2320
(dp2321
bg523
tp2322
Rp2323
(dp2324
bag1
(g2
(I722
tp2325
Rp2326
(dp2327
bg2
(I579
tp2328
Rp2329
(dp2330
btp2331
Rp2332
(dp2333
bag1
(g2
(I440
tp2334
Rp2335
(dp2336
bg2
(I823
tp2337
Rp2338
(dp2339
btp2340
Rp2341
(dp2342
bag1
(g2
(I230
tp2343
Rp2344
(dp2345
bg2
(I312
tp2346
Rp2347
(dp2348
btp2349
Rp2350
(dp2351
bag1
(g2035
g2
(I211
tp2352
Rp2353
(dp2354
btp2355
Rp2356
(dp2357
bag1
(g2
(I310
tp2358
Rp2359
(dp2360
bg2
(I740
tp2361
Rp2362
(dp2363
btp2364
Rp2365
(dp2366
bag1
(g418
g1306
tp2367
Rp2368
(dp2369
bag1
(g667
g1036
tp2370
Rp2371
(dp2372
bag1
(g2
(I734
tp2373
Rp2374
(dp2375
bg2
(I256
tp2376
Rp2377
(dp2378
btp2379
Rp2380
(dp2381
bag1
(g1261
g364
tp2382
Rp2383
(dp2384
bag1
(g517
g2197
tp2385
Rp2386
(dp2387
bag1
(g322
g2
(I7
tp2388
Rp2389
(dp2390
btp2391
Rp2392
(dp2393
bag1
(g2
(I80
tp2394
Rp2395
(dp2396
bg2
(I464
tp2397
Rp2398
(dp2399
btp2400
Rp2401
(dp2402
bag1
(g2
(I599
tp2403
Rp2404
(dp2405
bg2
(I791
tp2406
Rp2407
(dp2408
btp2409
Rp2410
(dp2411
bag1
(g2
(I62
tp2412
Rp2413
(dp2414
bg2299
tp2415
Rp2416
(dp2417
bag1
(g1333
g1894
tp2418
Rp2419
(dp2420
bag1
(g2
(I433
tp2421
Rp2422
(dp2423
bg2
(I856
tp2424
Rp2425
(dp2426
btp2427
Rp2428
(dp2429
bag1
(g2206
g2
(I492
tp2430
Rp2431
(dp2432
btp2433
Rp2434
(dp2435
bag1
(g2
(I929
tp2436
Rp2437
(dp2438
bg2
(I342
tp2439
Rp2440
(dp2441
btp2442
Rp2443
(dp2444
bag1
(g2
(I225
tp2445
Rp2446
(dp2447
bg2
(I795
tp2448
Rp2449
(dp2450
btp2451
Rp2452
(dp2453
bag1
(g2
(I189
tp2454
Rp2455
(dp2456
bg2
(I794
tp2457
Rp2458
(dp2459
btp2460
Rp2461
(dp2462
bag1
(g1501
g2
(I756
tp2463
Rp2464
(dp2465
btp2466
Rp2467
(dp2468
bag1
(g2
(I646
tp2469
Rp2470
(dp2471
bg2
(I904
tp2472
Rp2473
(dp2474
btp2475
Rp2476
(dp2477
bag1
(g2191
g2
(I168
tp2478
Rp2479
(dp2480
btp2481
Rp2482
(dp2483
bag1
(g43
g2
(I281
tp2484
Rp2485
(dp2486
btp2487
Rp2488
(dp2489
bag1
(g2
(I120
tp2490
Rp2491
(dp2492
bg2
(I437
tp2493
Rp2494
(dp2495
btp2496
Rp2497
(dp2498
bag1
(g2
(I714
tp2499
Rp2500
(dp2501
bg2
(I560
tp2502
Rp2503
(dp2504
btp2505
Rp2506
(dp2507
bag1
(g1183
g2
(I117
tp2508
Rp2509
(dp2510
btp2511
Rp2512
(dp2513
bag1
(g2
(I640
tp2514
Rp2515
(dp2516
bg2
(I438
tp2517
Rp2518
(dp2519
btp2520
Rp2521
(dp2522
bag1
(g862
g2
(I977
tp2523
Rp2524
(dp2525
btp2526
Rp2527
(dp2528
bag1
(g2
(I809
tp2529
Rp2530
(dp2531
bg913
tp2532
Rp2533
(dp2534
bag1
(g2
(I122
tp2535
Rp2536
(dp2537
bg2188
tp2538
Rp2539
(dp2540
bag1
(g2
(I737
tp2541
Rp2542
(dp2543
bg1630
tp2544
Rp2545
(dp2546
bag1
(g2
(I747
tp2547
Rp2548
(dp2549
bg2
(I192
tp2550
Rp2551
(dp2552
btp2553
Rp2554
(dp2555
bag1
(g2
(I859
tp2556
Rp2557
(dp2558
bg2
(I812
tp2559
Rp2560
(dp2561
btp2562
Rp2563
(dp2564
bag1
(g2
(I389
tp2565
Rp2566
(dp2567
bg2
(I661
tp2568
Rp2569
(dp2570
btp2571
Rp2572
(dp2573
bag1
(g2
(I57
tp2574
Rp2575
(dp2576
bg2278
tp2577
Rp2578
(dp2579
bag1
(g1939
g415
tp2580
Rp2581
(dp2582
bag1
(g1597
g2
(I558
tp2583
Rp2584
(dp2585
btp2586
Rp2587
(dp2588
bag1
(g1750
g2
(I212
tp2589
Rp2590
(dp2591
btp2592
Rp2593
(dp2594
ba.