(lp0
csympy.geometry.point
Point2D
p1
(csympy.core.numbers
Integer
p2
(I401
tp3
Rp4
(dp5
bg2
(I905
tp6
Rp7
(dp8
btp9
Rp10
(dp11
bag1
(g2
(I616
tp12
Rp13
(dp14
bg2
(I38
tp15
Rp16
(dp17
btp18
Rp19
(dp20
bag1
(g2
(I323
tp21
Rp22
(dp23
bg2
(I174
tp24
Rp25
(dp26
btp27
Rp28
(dp29
bag1
(g2
(I860
tp30
Rp31
(dp32
bg2
(I655
tp33
Rp34
(dp35
btp36
Rp37
(dp38
bag1
(g2
(I469
tp39
Rp40
(dp41
bg2
(I160
tp42
Rp43
(dp44
btp45
Rp46
(dp47
bag1
(g2
(I506
tp48
Rp49
(dp50
bg2
(I14
tp51
Rp52
(dp53
btp54
Rp55
(dp56
bag1
(g2
(I28
tp57
Rp58
(dp59
bg2
(I76
tp60
Rp61
(dp62
btp63
Rp64
(dp65
bag1
(g2
(I992
tp66
Rp67
(dp68
bg2
(I801
tp69
Rp70
(dp71
btp72
Rp73
(dp74
bag1
(g2
(I325
tp75
Rp76
(dp77
bg2
(I627
tp78
Rp79
(dp80
btp81
Rp82
(dp83
bag1
(g2
(I226
tp84
Rp85
(dp86
bg2
(I812
tp87
Rp88
(dp89
btp90
Rp91
(dp92
bag1
(g2
(I385
tp93
Rp94
(dp95
bg2
(I428
tp96
Rp97
(dp98
btp99
Rp100
(dp101
bag1
(g2
(I363
tp102
Rp103
(dp104
bg2
(I436
tp105
Rp106
(dp107
btp108
Rp109
(dp110
bag1
(g2
(I736
tp111
Rp112
(dp113
bg2
(I127
tp114
Rp115
(dp116
btp117
Rp118
(dp119
bag1
(g2
(I83
tp120
Rp121
(dp122
bg2
(I558
tp123
Rp124
(dp125
btp126
Rp127
(dp128
bag1
(g2
(I732
tp129
Rp130
(dp131
bg2
(I706
tp132
Rp133
(dp134
btp135
Rp136
(dp137
bag1
(g2
(I570
tp138
Rp139
(dp140
bg2
(I981
tp141
Rp142
(dp143
btp144
Rp145
(dp146
bag1
(g2
(I501
tp147
Rp148
(dp149
bg2
(I609
tp150
Rp151
(dp152
btp153
Rp154
(dp155
bag1
(g2
(I967
tp156
Rp157
(dp158
bg2
(I663
tp159
Rp160
(dp161
btp162
Rp163
(dp164
bag1
(g2
(I52
tp165
Rp166
(dp167
bg2
(I301
tp168
Rp169
(dp170
btp171
Rp172
(dp173
bag1
(g2
(I901
tp174
Rp175
(dp176
bg2
(I547
tp177
Rp178
(dp179
btp180
Rp181
(dp182
bag1
(g2
(I264
tp183
Rp184
(dp185
bg2
(I235
tp186
Rp187
(dp188
btp189
Rp190
(dp191
bag1
(g2
(I891
tp192
Rp193
(dp194
bg2
(I757
tp195
Rp196
(dp197
btp198
Rp199
(dp200
bag1
(g2
(I233
tp201
Rp202
(dp203
bg2
(I675
tp204
Rp205
(dp206
btp207
Rp208
(dp209
bag1
(g2
(I143
tp210
Rp211
(dp212
bg2
(I488
tp213
Rp214
(dp215
btp216
Rp217
(dp218
bag1
(g2
(I191
tp219
Rp220
(dp221
bg2
(I305
tp222
Rp223
(dp224
btp225
Rp226
(dp227
bag1
(g2
(I674
tp228
Rp229
(dp230
bg2
(I420
tp231
Rp232
(dp233
btp234
Rp235
(dp236
bag1
(g52
g2
(I969
tp237
Rp238
(dp239
btp240
Rp241
(dp242
bag1
(g2
(I164
tp243
Rp244
(dp245
bg2
(I534
tp246
Rp247
(dp248
btp249
Rp250
(dp251
bag1
(g2
(I784
tp252
Rp253
(dp254
bg40
tp255
Rp256
(dp257
bag1
(g2
(I297
tp258
Rp259
(dp260
bg2
(I272
tp261
Rp262
(dp263
btp264
Rp265
(dp266
bag1
(g2
(I833
tp267
Rp268
(dp269
bg2
(I203
tp270
Rp271
(dp272
btp273
Rp274
(dp275
bag1
(g2
(I497
tp276
Rp277
(dp278
bg2
(I347
tp279
Rp280
(dp281
btp282
Rp283
(dp284
bag1
(g2
(I480
tp285
Rp286
(dp287
bg112
tp288
Rp289
(dp290
bag1
(g2
(I22
tp291
Rp292
(dp293
bg2
(I817
tp294
Rp295
(dp296
btp297
Rp298
(dp299
bag1
(g2
(I205
tp300
Rp301
(dp302
bg2
(I867
tp303
Rp304
(dp305
btp306
Rp307
(dp308
bag1
(g2
(I243
tp309
Rp310
(dp311
bg2
(I27
tp312
Rp313
(dp314
btp315
Rp316
(dp317
bag1
(g2
(I673
tp318
Rp319
(dp320
bg2
(I938
tp321
Rp322
(dp323
btp324
Rp325
(dp326
bag1
(g2
(I759
tp327
Rp328
(dp329
bg2
(I978
tp330
Rp331
(dp332
btp333
Rp334
(dp335
bag1
(g2
(I959
tp336
Rp337
(dp338
bg2
(I33
tp339
Rp340
(dp341
btp342
Rp343
(dp344
bag1
(g2
(I791
tp345
Rp346
(dp347
bg2
(I679
tp348
Rp349
(dp350
btp351
Rp352
(dp353
bag1
(g2
(I221
tp354
Rp355
(dp356
bg2
(I770
tp357
Rp358
(dp359
btp360
Rp361
(dp362
bag1
(g340
g2
(I169
tp363
Rp364
(dp365
btp366
Rp367
(dp368
bag1
(g2
(I231
tp369
Rp370
(dp371
bg2
(I384
tp372
Rp373
(dp374
btp375
Rp376
(dp377
bag1
(g2
(I552
tp378
Rp379
(dp380
bg2
(I797
tp381
Rp382
(dp383
btp384
Rp385
(dp386
bag1
(g2
(I13
tp387
Rp388
(dp389
bg2
(I195
tp390
Rp391
(dp392
btp393
Rp394
(dp395
bag1
(g2
(I576
tp396
Rp397
(dp398
bg2
(I75
tp399
Rp400
(dp401
btp402
Rp403
(dp404
bag1
(g2
(I341
tp405
Rp406
(dp407
bg2
(I276
tp408
Rp409
(dp410
btp411
Rp412
(dp413
bag1
(g2
(I633
tp414
Rp415
(dp416
bg2
(I883
tp417
Rp418
(dp419
btp420
Rp421
(dp422
bag1
(g2
(I302
tp423
Rp424
(dp425
bg2
(I4
tp426
Rp427
(dp428
btp429
Rp430
(dp431
bag1
(g2
(I256
tp432
Rp433
(dp434
bg2
(I777
tp435
Rp436
(dp437
btp438
Rp439
(dp440
bag1
(g2
(I365
tp441
Rp442
(dp443
bg2
(I711
tp444
Rp445
(dp446
btp447
Rp448
(dp449
bag1
(g2
(I635
tp450
Rp451
(dp452
bg2
(I275
tp453
Rp454
(dp455
btp456
Rp457
(dp458
bag1
(g2
(I324
tp459
Rp460
(dp461
bg2
(I932
tp462
Rp463
(dp464
btp465
Rp466
(dp467
bag1
(g2
(I81
tp468
Rp469
(dp470
bg253
tp471
Rp472
(dp473
bag1
(g2
(I942
tp474
Rp475
(dp476
bg442
tp477
Rp478
(dp479
bag1
(g2
(I654
tp480
Rp481
(dp482
bg2
(I851
tp483
Rp484
(dp485
btp486
Rp487
(dp488
bag1
(g2
(I509
tp489
Rp490
(dp491
bg2
(I814
tp492
Rp493
(dp494
btp495
Rp496
(dp497
bag1
(g2
(I682
tp498
Rp499
(dp500
bg2
(I121
tp501
Rp502
(dp503
btp504
Rp505
(dp506
bag1
(g2
(I607
tp507
Rp508
(dp509
bg2
(I291
tp510
Rp511
(dp512
btp513
Rp514
(dp515
bag1
(g2
(I795
tp516
Rp517
(dp518
bg2
(I5
tp519
Rp520
(dp521
btp522
Rp523
(dp524
bag1
(g2
(I62
tp525
Rp526
(dp527
bg2
(I581
tp528
Rp529
(dp530
btp531
Rp532
(dp533
bag1
(g2
(I870
tp534
Rp535
(dp536
bg2
(I926
tp537
Rp538
(dp539
btp540
Rp541
(dp542
bag1
(g2
(I986
tp543
Rp544
(dp545
bg2
(I331
tp546
Rp547
(dp548
btp549
Rp550
(dp551
bag1
(g2
(I968
tp552
Rp553
(dp554
bg184
tp555
Rp556
(dp557
bag1
(g79
g2
(I86
tp558
Rp559
(dp560
btp561
Rp562
(dp563
bag1
(g2
(I253
tp564
Rp565
(dp566
bg2
(I271
tp567
Rp568
(dp569
btp570
Rp571
(dp572
bag1
(g2
(I179
tp573
Rp574
(dp575
bg2
(I41
tp576
Rp577
(dp578
btp579
Rp580
(dp581
bag1
(g2
(I560
tp582
Rp583
(dp584
bg2
(I176
tp585
Rp586
(dp587
btp588
Rp589
(dp590
bag1
(g2
(I461
tp591
Rp592
(dp593
bg2
(I444
tp594
Rp595
(dp596
btp597
Rp598
(dp599
bag1
(g2
(I380
tp600
Rp601
(dp602
bg2
(I543
tp603
Rp604
(dp605
btp606
Rp607
(dp608
bag1
(g2
(I126
tp609
Rp610
(dp611
bg2
(I628
tp612
Rp613
(dp614
btp615
Rp616
(dp617
bag1
(g169
g2
(I948
tp618
Rp619
(dp620
btp621
Rp622
(dp623
bag1
(g2
(I281
tp624
Rp625
(dp626
bg2
(I425
tp627
Rp628
(dp629
btp630
Rp631
(dp632
bag1
(g124
g2
(I935
tp633
Rp634
(dp635
btp636
Rp637
(dp638
bag1
(g7
g2
(I260
tp639
Rp640
(dp641
btp642
Rp643
(dp644
bag1
(g2
(I50
tp645
Rp646
(dp647
bg2
(I487
tp648
Rp649
(dp650
btp651
Rp652
(dp653
bag1
(g2
(I322
tp654
Rp655
(dp656
bg2
(I370
tp657
Rp658
(dp659
btp660
Rp661
(dp662
bag1
(g2
(I859
tp663
Rp664
(dp665
bg2
(I474
tp666
Rp667
(dp668
btp669
Rp670
(dp671
bag1
(g2
(I773
tp672
Rp673
(dp674
bg2
(I452
tp675
Rp676
(dp677
btp678
Rp679
(dp680
bag1
(g2
(I714
tp681
Rp682
(dp683
bg2
(I306
tp684
Rp685
(dp686
btp687
Rp688
(dp689
bag1
(g2
(I140
tp690
Rp691
(dp692
bg2
(I826
tp693
Rp694
(dp695
btp696
Rp697
(dp698
bag1
(g2
(I752
tp699
Rp700
(dp701
bg2
(I65
tp702
Rp703
(dp704
btp705
Rp706
(dp707
bag1
(g2
(I989
tp708
Rp709
(dp710
bg2
(I98
tp711
Rp712
(dp713
btp714
Rp715
(dp716
bag1
(g2
(I493
tp717
Rp718
(dp719
bg2
(I677
tp720
Rp721
(dp722
btp723
Rp724
(dp725
bag1
(g2
(I504
tp726
Rp727
(dp728
bg2
(I571
tp729
Rp730
(dp731
btp732
Rp733
(dp734
bag1
(g613
g2
(I295
tp735
Rp736
(dp737
btp738
Rp739
(dp740
bag1
(g2
(I546
tp741
Rp742
(dp743
bg2
(I744
tp744
Rp745
(dp746
btp747
Rp748
(dp749
bag1
(g2
(I403
tp750
Rp751
(dp752
bg2
(I209
tp753
Rp754
(dp755
btp756
Rp757
(dp758
bag1
(g2
(I261
tp759
Rp760
(dp761
bg2
(I928
tp762
Rp763
(dp764
btp765
Rp766
(dp767
bag1
(g2
(I726
tp768
Rp769
(dp770
bg2
(I441
tp771
Rp772
(dp773
btp774
Rp775
(dp776
bag1
(g2
(I537
tp777
Rp778
(dp779
bg2
(I528
tp780
Rp781
(dp782
btp783
Rp784
(dp785
bag1
(g322
g2
(I315
tp786
Rp787
(dp788
btp789
Rp790
(dp791
bag1
(g2
(I533
tp792
Rp793
(dp794
bg2
(I222
tp795
Rp796
(dp797
btp798
Rp799
(dp800
bag1
(g2
(I637
tp801
Rp802
(dp803
bg2
(I612
tp804
Rp805
(dp806
btp807
Rp808
(dp809
bag1
(g2
(I73
tp810
Rp811
(dp812
bg2
(I31
tp813
Rp814
(dp815
btp816
Rp817
(dp818
bag1
(g2
(I774
tp819
Rp820
(dp821
bg130
tp822
Rp823
(dp824
bag1
(g2
(I17
tp825
Rp826
(dp827
bg2
(I358
tp828
Rp829
(dp830
btp831
Rp832
(dp833
bag1
(g2
(I598
tp834
Rp835
(dp836
bg2
(I844
tp837
Rp838
(dp839
btp840
Rp841
(dp842
bag1
(g2
(I108
tp843
Rp844
(dp845
bg2
(I88
tp846
Rp847
(dp848
btp849
Rp850
(dp851
bag1
(g2
(I536
tp852
Rp853
(dp854
bg2
(I737
tp855
Rp856
(dp857
btp858
Rp859
(dp860
bag1
(g2
(I112
tp861
Rp862
(dp863
bg2
(I492
tp864
Rp865
(dp866
btp867
Rp868
(dp869
bag1
(g2
(I388
tp870
Rp871
(dp872
bg2
(I813
tp873
Rp874
(dp875
btp876
Rp877
(dp878
bag1
(g2
(I311
tp879
Rp880
(dp881
bg2
(I719
tp882
Rp883
(dp884
btp885
Rp886
(dp887
bag1
(g2
(I608
tp888
Rp889
(dp890
bg2
(I310
tp891
Rp892
(dp893
btp894
Rp895
(dp896
bag1
(g2
(I443
tp897
Rp898
(dp899
bg2
(I438
tp900
Rp901
(dp902
btp903
Rp904
(dp905
bag1
(g2
(I689
tp906
Rp907
(dp908
bg2
(I975
tp909
Rp910
(dp911
btp912
Rp913
(dp914
bag1
(g295
g2
(I987
tp915
Rp916
(dp917
btp918
Rp919
(dp920
bag1
(g2
(I89
tp921
Rp922
(dp923
bg259
tp924
Rp925
(dp926
bag1
(g2
(I793
tp927
Rp928
(dp929
bg871
tp930
Rp931
(dp932
bag1
(g604
g2
(I282
tp933
Rp934
(dp935
btp936
Rp937
(dp938
bag1
(g2
(I799
tp939
Rp940
(dp941
bg2
(I994
tp942
Rp943
(dp944
btp945
Rp946
(dp947
bag1
(g2
(I768
tp948
Rp949
(dp950
bg2
(I255
tp951
Rp952
(dp953
btp954
Rp955
(dp956
bag1
(g2
(I593
tp957
Rp958
(dp959
bg2
(I462
tp960
Rp961
(dp962
btp963
Rp964
(dp965
bag1
(g502
g2
(I412
tp966
Rp967
(dp968
btp969
Rp970
(dp971
bag1
(g2
(I651
tp972
Rp973
(dp974
bg469
tp975
Rp976
(dp977
bag1
(g2
(I19
tp978
Rp979
(dp980
bg2
(I199
tp981
Rp982
(dp983
btp984
Rp985
(dp986
bag1
(g2
(I293
tp987
Rp988
(dp989
bg2
(I597
tp990
Rp991
(dp992
btp993
Rp994
(dp995
bag1
(g2
(I194
tp996
Rp997
(dp998
bg2
(I111
tp999
Rp1000
(dp1001
btp1002
Rp1003
(dp1004
bag1
(g934
g2
(I915
tp1005
Rp1006
(dp1007
btp1008
Rp1009
(dp1010
bag1
(g223
g2
(I460
tp1011
Rp1012
(dp1013
btp1014
Rp1015
(dp1016
bag1
(g2
(I100
tp1017
Rp1018
(dp1019
bg2
(I417
tp1020
Rp1021
(dp1022
btp1023
Rp1024
(dp1025
bag1
(g2
(I435
tp1026
Rp1027
(dp1028
bg2
(I954
tp1029
Rp1030
(dp1031
btp1032
Rp1033
(dp1034
bag1
(g763
g2
(I720
tp1035
Rp1036
(dp1037
btp1038
Rp1039
(dp1040
bag1
(g2
(I453
tp1041
Rp1042
(dp1043
bg2
(I526
tp1044
Rp1045
(dp1046
btp1047
Rp1048
(dp1049
bag1
(g2
(I279
tp1050
Rp1051
(dp1052
bg2
(I116
tp1053
Rp1054
(dp1055
btp1056
Rp1057
(dp1058
bag1
(g2
(I278
tp1059
Rp1060
(dp1061
bg2
(I561
tp1062
Rp1063
(dp1064
btp1065
Rp1066
(dp1067
bag1
(g2
(I668
tp1068
Rp1069
(dp1070
bg2
(I406
tp1071
Rp1072
(dp1073
btp1074
Rp1075
(dp1076
bag1
(g619
g2
(I415
tp1077
Rp1078
(dp1079
btp1080
Rp1081
(dp1082
bag1
(g658
g2
(I187
tp1083
Rp1084
(dp1085
btp1086
Rp1087
(dp1088
bag1
(g2
(I790
tp1089
Rp1090
(dp1091
bg793
tp1092
Rp1093
(dp1094
bag1
(g2
(I900
tp1095
Rp1096
(dp1097
bg2
(I680
tp1098
Rp1099
(dp1100
btp1101
Rp1102
(dp1103
bag1
(g2
(I845
tp1104
Rp1105
(dp1106
bg2
(I805
tp1107
Rp1108
(dp1109
btp1110
Rp1111
(dp1112
bag1
(g2
(I353
tp1113
Rp1114
(dp1115
bg2
(I268
tp1116
Rp1117
(dp1118
btp1119
Rp1120
(dp1121
bag1
(g2
(I18
tp1122
Rp1123
(dp1124
bg2
(I350
tp1125
Rp1126
(dp1127
btp1128
Rp1129
(dp1130
bag1
(g2
(I916
tp1131
Rp1132
(dp1133
bg499
tp1134
Rp1135
(dp1136
bag1
(g2
(I30
tp1137
Rp1138
(dp1139
bg2
(I811
tp1140
Rp1141
(dp1142
btp1143
Rp1144
(dp1145
bag1
(g1117
g2
(I957
tp1146
Rp1147
(dp1148
btp1149
Rp1150
(dp1151
bag1
(g2
(I890
tp1152
Rp1153
(dp1154
bg2
(I290
tp1155
Rp1156
(dp1157
btp1158
Rp1159
(dp1160
bag1
(g2
(I574
tp1161
Rp1162
(dp1163
bg2
(I254
tp1164
Rp1165
(dp1166
btp1167
Rp1168
(dp1169
bag1
(g1084
g2
(I705
tp1170
Rp1171
(dp1172
btp1173
Rp1174
(dp1175
bag1
(g2
(I390
tp1176
Rp1177
(dp1178
bg2
(I585
tp1179
Rp1180
(dp1181
btp1182
Rp1183
(dp1184
bag1
(g2
(I904
tp1185
Rp1186
(dp1187
bg2
(I590
tp1188
Rp1189
(dp1190
btp1191
Rp1192
(dp1193
bag1
(g2
(I553
tp1194
Rp1195
(dp1196
bg2
(I698
tp1197
Rp1198
(dp1199
btp1200
Rp1201
(dp1202
bag1
(g2
(I931
tp1203
Rp1204
(dp1205
bg2
(I94
tp1206
Rp1207
(dp1208
btp1209
Rp1210
(dp1211
bag1
(g2
(I202
tp1212
Rp1213
(dp1214
bg889
tp1215
Rp1216
(dp1217
bag1
(g2
(I642
tp1218
Rp1219
(dp1220
bg2
(I99
tp1221
Rp1222
(dp1223
btp1224
Rp1225
(dp1226
bag1
(g2
(I620
tp1227
Rp1228
(dp1229
bg742
tp1230
Rp1231
(dp1232
bag1
(g2
(I690
tp1233
Rp1234
(dp1235
bg2
(I952
tp1236
Rp1237
(dp1238
btp1239
Rp1240
(dp1241
bag1
(g2
(I611
tp1242
Rp1243
(dp1244
bg1204
tp1245
Rp1246
(dp1247
bag1
(g2
(I232
tp1248
Rp1249
(dp1250
bg2
(I685
tp1251
Rp1252
(dp1253
btp1254
Rp1255
(dp1256
bag1
(g2
(I503
tp1257
Rp1258
(dp1259
bg2
(I980
tp1260
Rp1261
(dp1262
btp1263
Rp1264
(dp1265
bag1
(g2
(I207
tp1266
Rp1267
(dp1268
bg2
(I688
tp1269
Rp1270
(dp1271
btp1272
Rp1273
(dp1274
bag1
(g712
g2
(I614
tp1275
Rp1276
(dp1277
btp1278
Rp1279
(dp1280
bag1
(g2
(I387
tp1281
Rp1282
(dp1283
bg2
(I37
tp1284
Rp1285
(dp1286
btp1287
Rp1288
(dp1289
bag1
(g2
(I703
tp1290
Rp1291
(dp1292
bg2
(I747
tp1293
Rp1294
(dp1295
btp1296
Rp1297
(dp1298
bag1
(g2
(I340
tp1299
Rp1300
(dp1301
bg2
(I821
tp1302
Rp1303
(dp1304
btp1305
Rp1306
(dp1307
bag1
(g2
(I779
tp1308
Rp1309
(dp1310
bg2
(I197
tp1311
Rp1312
(dp1313
btp1314
Rp1315
(dp1316
bag1
(g2
(I422
tp1317
Rp1318
(dp1319
bg2
(I789
tp1320
Rp1321
(dp1322
btp1323
Rp1324
(dp1325
bag1
(g493
g2
(I828
tp1326
Rp1327
(dp1328
btp1329
Rp1330
(dp1331
bag1
(g2
(I399
tp1332
Rp1333
(dp1334
bg2
(I671
tp1335
Rp1336
(dp1337
btp1338
Rp1339
(dp1340
bag1
(g1261
g1234
tp1341
Rp1342
(dp1343
bag1
(g2
(I644
tp1344
Rp1345
(dp1346
bg2
(I34
tp1347
Rp1348
(dp1349
btp1350
Rp1351
(dp1352
bag1
(g1198
g2
(I760
tp1353
Rp1354
(dp1355
btp1356
Rp1357
(dp1358
bag1
(g2
(I158
tp1359
Rp1360
(dp1361
bg2
(I873
tp1362
Rp1363
(dp1364
btp1365
Rp1366
(dp1367
bag1
(g2
(I902
tp1368
Rp1369
(dp1370
bg2
(I963
tp1371
Rp1372
(dp1373
btp1374
Rp1375
(dp1376
bag1
(g2
(I216
tp1377
Rp1378
(dp1379
bg2
(I568
tp1380
Rp1381
(dp1382
btp1383
Rp1384
(dp1385
bag1
(g2
(I8
tp1386
Rp1387
(dp1388
bg2
(I966
tp1389
Rp1390
(dp1391
btp1392
Rp1393
(dp1394
bag1
(g2
(I339
tp1395
Rp1396
(dp1397
bg2
(I751
tp1398
Rp1399
(dp1400
btp1401
Rp1402
(dp1403
bag1
(g2
(I641
tp1404
Rp1405
(dp1406
bg139
tp1407
Rp1408
(dp1409
bag1
(g2
(I379
tp1410
Rp1411
(dp1412
bg940
tp1413
Rp1414
(dp1415
bag1
(g2
(I440
tp1416
Rp1417
(dp1418
bg2
(I820
tp1419
Rp1420
(dp1421
btp1422
Rp1423
(dp1424
bag1
(g703
g2
(I622
tp1425
Rp1426
(dp1427
btp1428
Rp1429
(dp1430
bag1
(g2
(I521
tp1431
Rp1432
(dp1433
bg2
(I421
tp1434
Rp1435
(dp1436
btp1437
Rp1438
(dp1439
bag1
(g391
g2
(I834
tp1440
Rp1441
(dp1442
btp1443
Rp1444
(dp1445
bag1
(g2
(I708
tp1446
Rp1447
(dp1448
bg1258
tp1449
Rp1450
(dp1451
bag1
(g2
(I10
tp1452
Rp1453
(dp1454
bg1333
tp1455
Rp1456
(dp1457
bag1
(g2
(I765
tp1458
Rp1459
(dp1460
bg2
(I449
tp1461
Rp1462
(dp1463
btp1464
Rp1465
(dp1466
bag1
(g2
(I294
tp1467
Rp1468
(dp1469
bg1018
tp1470
Rp1471
(dp1472
bag1
(g2
(I939
tp1473
Rp1474
(dp1475
bg2
(I172
tp1476
Rp1477
(dp1478
btp1479
Rp1480
(dp1481
bag1
(g2
(I974
tp1482
Rp1483
(dp1484
bg94
tp1485
Rp1486
(dp1487
bag1
(g1156
g2
(I887
tp1488
Rp1489
(dp1490
btp1491
Rp1492
(dp1493
bag1
(g2
(I437
tp1494
Rp1495
(dp1496
bg2
(I658
tp1497
Rp1498
(dp1499
btp1500
Rp1501
(dp1502
bag1
(g649
g2
(I532
tp1503
Rp1504
(dp1505
btp1506
Rp1507
(dp1508
bag1
(g2
(I200
tp1509
Rp1510
(dp1511
bg2
(I303
tp1512
Rp1513
(dp1514
btp1515
Rp1516
(dp1517
bag1
(g2
(I349
tp1518
Rp1519
(dp1520
bg2
(I352
tp1521
Rp1522
(dp1523
btp1524
Rp1525
(dp1526
bag1
(g2
(I393
tp1527
Rp1528
(dp1529
bg2
(I70
tp1530
Rp1531
(dp1532
btp1533
Rp1534
(dp1535
bag1
(g2
(I362
tp1536
Rp1537
(dp1538
bg1417
tp1539
Rp1540
(dp1541
bag1
(g2
(I328
tp1542
Rp1543
(dp1544
bg1060
tp1545
Rp1546
(dp1547
bag1
(g2
(I861
tp1548
Rp1549
(dp1550
bg2
(I175
tp1551
Rp1552
(dp1553
btp1554
Rp1555
(dp1556
bag1
(g2
(I982
tp1557
Rp1558
(dp1559
bg778
tp1560
Rp1561
(dp1562
bag1
(g1072
g2
(I640
tp1563
Rp1564
(dp1565
btp1566
Rp1567
(dp1568
bag1
(g2
(I342
tp1569
Rp1570
(dp1571
bg1432
tp1572
Rp1573
(dp1574
bag1
(g2
(I660
tp1575
Rp1576
(dp1577
bg1318
tp1578
Rp1579
(dp1580
bag1
(g2
(I43
tp1581
Rp1582
(dp1583
bg2
(I717
tp1584
Rp1585
(dp1586
btp1587
Rp1588
(dp1589
bag1
(g2
(I595
tp1590
Rp1591
(dp1592
bg2
(I605
tp1593
Rp1594
(dp1595
btp1596
Rp1597
(dp1598
bag1
(g2
(I47
tp1599
Rp1600
(dp1601
bg2
(I955
tp1602
Rp1603
(dp1604
btp1605
Rp1606
(dp1607
bag1
(g2
(I822
tp1608
Rp1609
(dp1610
bg58
tp1611
Rp1612
(dp1613
bag1
(g2
(I961
tp1614
Rp1615
(dp1616
bg2
(I792
tp1617
Rp1618
(dp1619
btp1620
Rp1621
(dp1622
bag1
(g2
(I841
tp1623
Rp1624
(dp1625
bg2
(I555
tp1626
Rp1627
(dp1628
btp1629
Rp1630
(dp1631
bag1
(g2
(I854
tp1632
Rp1633
(dp1634
bg2
(I661
tp1635
Rp1636
(dp1637
btp1638
Rp1639
(dp1640
bag1
(g2
(I500
tp1641
Rp1642
(dp1643
bg1267
tp1644
Rp1645
(dp1646
bag1
(g2
(I227
tp1647
Rp1648
(dp1649
bg2
(I691
tp1650
Rp1651
(dp1652
btp1653
Rp1654
(dp1655
bag1
(g2
(I802
tp1656
Rp1657
(dp1658
bg31
tp1659
Rp1660
(dp1661
bag1
(g2
(I351
tp1662
Rp1663
(dp1664
bg2
(I829
tp1665
Rp1666
(dp1667
btp1668
Rp1669
(dp1670
bag1
(g2
(I189
tp1671
Rp1672
(dp1673
bg2
(I137
tp1674
Rp1675
(dp1676
btp1677
Rp1678
(dp1679
bag1
(g2
(I775
tp1680
Rp1681
(dp1682
bg328
tp1683
Rp1684
(dp1685
bag1
(g2
(I446
tp1686
Rp1687
(dp1688
bg2
(I988
tp1689
Rp1690
(dp1691
btp1692
Rp1693
(dp1694
bag1
(g2
(I374
tp1695
Rp1696
(dp1697
bg880
tp1698
Rp1699
(dp1700
bag1
(g2
(I274
tp1701
Rp1702
(dp1703
bg2
(I749
tp1704
Rp1705
(dp1706
btp1707
Rp1708
(dp1709
bag1
(g2
(I903
tp1710
Rp1711
(dp1712
bg2
(I346
tp1713
Rp1714
(dp1715
btp1716
Rp1717
(dp1718
bag1
(g2
(I669
tp1719
Rp1720
(dp1721
bg2
(I700
tp1722
Rp1723
(dp1724
btp1725
Rp1726
(dp1727
bag1
(g2
(I141
tp1728
Rp1729
(dp1730
bg2
(I767
tp1731
Rp1732
(dp1733
btp1734
Rp1735
(dp1736
bag1
(g382
g2
(I766
tp1737
Rp1738
(dp1739
btp1740
Rp1741
(dp1742
bag1
(g2
(I527
tp1743
Rp1744
(dp1745
bg727
tp1746
Rp1747
(dp1748
bag1
(g2
(I161
tp1749
Rp1750
(dp1751
bg1453
tp1752
Rp1753
(dp1754
bag1
(g2
(I466
tp1755
Rp1756
(dp1757
bg2
(I498
tp1758
Rp1759
(dp1760
btp1761
Rp1762
(dp1763
bag1
(g2
(I269
tp1764
Rp1765
(dp1766
bg2
(I234
tp1767
Rp1768
(dp1769
btp1770
Rp1771
(dp1772
bag1
(g2
(I372
tp1773
Rp1774
(dp1775
bg2
(I448
tp1776
Rp1777
(dp1778
btp1779
Rp1780
(dp1781
bag1
(g2
(I114
tp1782
Rp1783
(dp1784
bg646
tp1785
Rp1786
(dp1787
bag1
(g2
(I522
tp1788
Rp1789
(dp1790
bg2
(I823
tp1791
Rp1792
(dp1793
btp1794
Rp1795
(dp1796
bag1
(g2
(I314
tp1797
Rp1798
(dp1799
bg2
(I599
tp1800
Rp1801
(dp1802
btp1803
Rp1804
(dp1805
bag1
(g2
(I569
tp1806
Rp1807
(dp1808
bg2
(I69
tp1809
Rp1810
(dp1811
btp1812
Rp1813
(dp1814
bag1
(g2
(I288
tp1815
Rp1816
(dp1817
bg2
(I771
tp1818
Rp1819
(dp1820
btp1821
Rp1822
(dp1823
bag1
(g2
(I131
tp1824
Rp1825
(dp1826
bg2
(I51
tp1827
Rp1828
(dp1829
btp1830
Rp1831
(dp1832
bag1
(g2
(I716
tp1833
Rp1834
(dp1835
bg2
(I693
tp1836
Rp1837
(dp1838
btp1839
Rp1840
(dp1841
bag1
(g2
(I273
tp1842
Rp1843
(dp1844
bg2
(I343
tp1845
Rp1846
(dp1847
btp1848
Rp1849
(dp1850
bag1
(g1363
g2
(I892
tp1851
Rp1852
(dp1853
btp1854
Rp1855
(dp1856
bag1
(g2
(I907
tp1857
Rp1858
(dp1859
bg1687
tp1860
Rp1861
(dp1862
bag1
(g2
(I694
tp1863
Rp1864
(dp1865
bg49
tp1866
Rp1867
(dp1868
bag1
(g2
(I728
tp1869
Rp1870
(dp1871
bg2
(I505
tp1872
Rp1873
(dp1874
btp1875
Rp1876
(dp1877
bag1
(g595
g2
(I803
tp1878
Rp1879
(dp1880
btp1881
Rp1882
(dp1883
bag1
(g2
(I359
tp1884
Rp1885
(dp1886
bg1228
tp1887
Rp1888
(dp1889
bag1
(g2
(I755
tp1890
Rp1891
(dp1892
bg2
(I783
tp1893
Rp1894
(dp1895
btp1896
Rp1897
(dp1898
bag1
(g2
(I895
tp1899
Rp1900
(dp1901
bg2
(I61
tp1902
Rp1903
(dp1904
btp1905
Rp1906
(dp1907
bag1
(g2
(I508
tp1908
Rp1909
(dp1910
bg2
(I16
tp1911
Rp1912
(dp1913
btp1914
Rp1915
(dp1916
bag1
(g1399
g898
tp1917
Rp1918
(dp1919
bag1
(g2
(I77
tp1920
Rp1921
(dp1922
bg2
(I32
tp1923
Rp1924
(dp1925
btp1926
Rp1927
(dp1928
bag1
(g1336
g2
(I725
tp1929
Rp1930
(dp1931
btp1932
Rp1933
(dp1934
bag1
(g1462
g2
(I718
tp1935
Rp1936
(dp1937
btp1938
Rp1939
(dp1940
bag1
(g2
(I483
tp1941
Rp1942
(dp1943
bg2
(I373
tp1944
Rp1945
(dp1946
btp1947
Rp1948
(dp1949
bag1
(g2
(I106
tp1950
Rp1951
(dp1952
bg2
(I454
tp1953
Rp1954
(dp1955
btp1956
Rp1957
(dp1958
bag1
(g2
(I237
tp1959
Rp1960
(dp1961
bg2
(I485
tp1962
Rp1963
(dp1964
btp1965
Rp1966
(dp1967
bag1
(g2
(I153
tp1968
Rp1969
(dp1970
bg2
(I947
tp1971
Rp1972
(dp1973
btp1974
Rp1975
(dp1976
bag1
(g577
g2
(I148
tp1977
Rp1978
(dp1979
btp1980
Rp1981
(dp1982
bag1
(g2
(I586
tp1983
Rp1984
(dp1985
bg2
(I223
tp1986
Rp1987
(dp1988
btp1989
Rp1990
(dp1991
bag1
(g2
(I95
tp1992
Rp1993
(dp1994
bg2
(I842
tp1995
Rp1996
(dp1997
btp1998
Rp1999
(dp2000
bag1
(g2
(I496
tp2001
Rp2002
(dp2003
bg2
(I596
tp2004
Rp2005
(dp2006
btp2007
Rp2008
(dp2009
bag1
(g745
g2
(I709
tp2010
Rp2011
(dp2012
btp2013
Rp2014
(dp2015
bag1
(g2
(I899
tp2016
Rp2017
(dp2018
bg2
(I394
tp2019
Rp2020
(dp2021
btp2022
Rp2023
(dp2024
bag1
(g2
(I251
tp2025
Rp2026
(dp2027
bg574
tp2028
Rp2029
(dp2030
bag1
(g1180
g673
tp2031
Rp2032
(dp2033
bag1
(g2
(I427
tp2034
Rp2035
(dp2036
bg2
(I762
tp2037
Rp2038
(dp2039
btp2040
Rp2041
(dp2042
bag1
(g2
(I545
tp2043
Rp2044
(dp2045
bg2
(I162
tp2046
Rp2047
(dp2048
btp2049
Rp2050
(dp2051
bag1
(g1207
g2
(I910
tp2052
Rp2053
(dp2054
btp2055
Rp2056
(dp2057
bag1
(g967
g973
tp2058
Rp2059
(dp2060
bag1
(g772
g2
(I190
tp2061
Rp2062
(dp2063
btp2064
Rp2065
(dp2066
bag1
(g2
(I730
tp2067
Rp2068
(dp2069
bg22
tp2070
Rp2071
(dp2072
bag1
(g2
(I20
tp2073
Rp2074
(dp2075
bg2
(I738
tp2076
Rp2077
(dp2078
btp2079
Rp2080
(dp2081
bag1
(g1618
g2
(I426
tp2082
Rp2083
(dp2084
btp2085
Rp2086
(dp2087
bag1
(g2
(I600
tp2088
Rp2089
(dp2090
bg2074
tp2091
Rp2092
(dp2093
bag1
(g916
g2
(I964
tp2094
Rp2095
(dp2096
btp2097
Rp2098
(dp2099
bag1
(g2
(I875
tp2100
Rp2101
(dp2102
bg2
(I337
tp2103
Rp2104
(dp2105
btp2106
Rp2107
(dp2108
bag1
(g2
(I135
tp2109
Rp2110
(dp2111
bg2
(I946
tp2112
Rp2113
(dp2114
btp2115
Rp2116
(dp2117
bag1
(g2
(I23
tp2118
Rp2119
(dp2120
bg2
(I479
tp2121
Rp2122
(dp2123
btp2124
Rp2125
(dp2126
bag1
(g133
g2068
tp2127
Rp2128
(dp2129
bag1
(g2
(I354
tp2130
Rp2131
(dp2132
bg2
(I129
tp2133
Rp2134
(dp2135
btp2136
Rp2137
(dp2138
bag1
(g232
g277
tp2139
Rp2140
(dp2141
bag1
(g2
(I404
tp2142
Rp2143
(dp2144
bg2
(I24
tp2145
Rp2146
(dp2147
btp2148
Rp2149
(dp2150
bag1
(g2
(I484
tp2151
Rp2152
(dp2153
bg2
(I912
tp2154
Rp2155
(dp2156
btp2157
Rp2158
(dp2159
bag1
(g547
g2
(I544
tp2160
Rp2161
(dp2162
btp2163
Rp2164
(dp2165
bag1
(g1294
g2
(I265
tp2166
Rp2167
(dp2168
btp2169
Rp2170
(dp2171
bag1
(g2
(I884
tp2172
Rp2173
(dp2174
bg2
(I573
tp2175
Rp2176
(dp2177
btp2178
Rp2179
(dp2180
bag1
(g2
(I819
tp2181
Rp2182
(dp2183
bg2
(I55
tp2184
Rp2185
(dp2186
btp2187
Rp2188
(dp2189
bag1
(g2
(I292
tp2190
Rp2191
(dp2192
bg2
(I91
tp2193
Rp2194
(dp2195
btp2196
Rp2197
(dp2198
bag1
(g2
(I39
tp2199
Rp2200
(dp2201
bg2
(I423
tp2202
Rp2203
(dp2204
btp2205
Rp2206
(dp2207
bag1
(g2
(I64
tp2208
Rp2209
(dp2210
bg2
(I796
tp2211
Rp2212
(dp2213
btp2214
Rp2215
(dp2216
bag1
(g1759
g2
(I263
tp2217
Rp2218
(dp2219
btp2220
Rp2221
(dp2222
bag1
(g1303
g2
(I632
tp2223
Rp2224
(dp2225
btp2226
Rp2227
(dp2228
bag1
(g2
(I625
tp2229
Rp2230
(dp2231
bg2
(I871
tp2232
Rp2233
(dp2234
btp2235
Rp2236
(dp2237
bag1
(g2
(I626
tp2238
Rp2239
(dp2240
bg2
(I639
tp2241
Rp2242
(dp2243
btp2244
Rp2245
(dp2246
bag1
(g2
(I502
tp2247
Rp2248
(dp2249
bg2
(I180
tp2250
Rp2251
(dp2252
btp2253
Rp2254
(dp2255
bag1
(g2
(I79
tp2256
Rp2257
(dp2258
bg1543
tp2259
Rp2260
(dp2261
bag1
(g2
(I613
tp2262
Rp2263
(dp2264
bg2
(I178
tp2265
Rp2266
(dp2267
btp2268
Rp2269
(dp2270
bag1
(g2
(I672
tp2271
Rp2272
(dp2273
bg1702
tp2274
Rp2275
(dp2276
bag1
(g2
(I145
tp2277
Rp2278
(dp2279
bg2
(I287
tp2280
Rp2281
(dp2282
btp2283
Rp2284
(dp2285
bag1
(g1504
g2
(I68
tp2286
Rp2287
(dp2288
btp2289
Rp2290
(dp2291
bag1
(g2
(I617
tp2292
Rp2293
(dp2294
bg2
(I743
tp2295
Rp2296
(dp2297
btp2298
Rp2299
(dp2300
bag1
(g2
(I101
tp2301
Rp2302
(dp2303
bg2
(I515
tp2304
Rp2305
(dp2306
btp2307
Rp2308
(dp2309
bag1
(g2
(I78
tp2310
Rp2311
(dp2312
bg2
(I868
tp2313
Rp2314
(dp2315
btp2316
Rp2317
(dp2318
bag1
(g2251
g202
tp2319
Rp2320
(dp2321
bag1
(g1912
g2
(I510
tp2322
Rp2323
(dp2324
btp2325
Rp2326
(dp2327
bag1
(g2
(I433
tp2328
Rp2329
(dp2330
bg2248
tp2331
Rp2332
(dp2333
bag1
(g2
(I424
tp2334
Rp2335
(dp2336
bg2
(I471
tp2337
Rp2338
(dp2339
btp2340
Rp2341
(dp2342
bag1
(g2
(I933
tp2343
Rp2344
(dp2345
bg2
(I104
tp2346
Rp2347
(dp2348
btp2349
Rp2350
(dp2351
bag1
(g2
(I712
tp2352
Rp2353
(dp2354
bg2
(I56
tp2355
Rp2356
(dp2357
btp2358
Rp2359
(dp2360
bag1
(g2
(I63
tp2361
Rp2362
(dp2363
bg2
(I414
tp2364
Rp2365
(dp2366
btp2367
Rp2368
(dp2369
bag1
(g2
(I482
tp2370
Rp2371
(dp2372
bg2
(I389
tp2373
Rp2374
(dp2375
btp2376
Rp2377
(dp2378
bag1
(g409
g2257
tp2379
Rp2380
(dp2381
bag1
(g2
(I196
tp2382
Rp2383
(dp2384
bg769
tp2385
Rp2386
(dp2387
bag1
(g2
(I619
tp2388
Rp2389
(dp2390
bg2
(I188
tp2391
Rp2392
(dp2393
btp2394
Rp2395
(dp2396
bag1
(g2
(I629
tp2397
Rp2398
(dp2399
bg2
(I240
tp2400
Rp2401
(dp2402
btp2403
Rp2404
(dp2405
bag1
(g1000
g988
tp2406
Rp2407
(dp2408
bag1
(g2
(I308
tp2409
Rp2410
(dp2411
bg301
tp2412
Rp2413
(dp2414
bag1
(g2
(I741
tp2415
Rp2416
(dp2417
bg1900
tp2418
Rp2419
(dp2420
bag1
(g2
(I564
tp2421
Rp2422
(dp2423
bg1834
tp2424
Rp2425
(dp2426
bag1
(g2
(I645
tp2427
Rp2428
(dp2429
bg811
tp2430
Rp2431
(dp2432
bag1
(g2
(I29
tp2433
Rp2434
(dp2435
bg1969
tp2436
Rp2437
(dp2438
bag1
(g1564
g2
(I6
tp2439
Rp2440
(dp2441
btp2442
Rp2443
(dp2444
bag1
(g2
(I124
tp2445
Rp2446
(dp2447
bg2
(I220
tp2448
Rp2449
(dp2450
btp2451
Rp2452
(dp2453
bag1
(g2
(I667
tp2454
Rp2455
(dp2456
bg2
(I495
tp2457
Rp2458
(dp2459
btp2460
Rp2461
(dp2462
bag1
(g436
g2230
tp2463
Rp2464
(dp2465
bag1
(g2
(I531
tp2466
Rp2467
(dp2468
bg2044
tp2469
Rp2470
(dp2471
bag1
(g61
g1378
tp2472
Rp2473
(dp2474
bag1
(g2
(I217
tp2475
Rp2476
(dp2477
bg2
(I740
tp2478
Rp2479
(dp2480
btp2481
Rp2482
(dp2483
bag1
(g2
(I734
tp2484
Rp2485
(dp2486
bg1825
tp2487
Rp2488
(dp2489
bag1
(g2
(I173
tp2490
Rp2491
(dp2492
bg2
(I491
tp2493
Rp2494
(dp2495
btp2496
Rp2497
(dp2498
bag1
(g1810
g2
(I213
tp2499
Rp2500
(dp2501
btp2502
Rp2503
(dp2504
bag1
(g1819
g1291
tp2505
Rp2506
(dp2507
bag1
(g2
(I742
tp2508
Rp2509
(dp2510
bg2
(I539
tp2511
Rp2512
(dp2513
btp2514
Rp2515
(dp2516
bag1
(g2
(I653
tp2517
Rp2518
(dp2519
bg2
(I889
tp2520
Rp2521
(dp2522
btp2523
Rp2524
(dp2525
ba.