(lp0
csympy.geometry.point
Point2D
p1
(csympy.core.numbers
Integer
p2
(I645
tp3
Rp4
(dp5
bg2
(I879
tp6
Rp7
(dp8
btp9
Rp10
(dp11
bag1
(g2
(I988
tp12
Rp13
(dp14
bg2
(I189
tp15
Rp16
(dp17
btp18
Rp19
(dp20
bag1
(g2
(I134
tp21
Rp22
(dp23
bg2
(I85
tp24
Rp25
(dp26
btp27
Rp28
(dp29
bag1
(g2
(I283
tp30
Rp31
(dp32
bg2
(I341
tp33
Rp34
(dp35
btp36
Rp37
(dp38
bag1
(g2
(I671
tp39
Rp40
(dp41
bg2
(I23
tp42
Rp43
(dp44
btp45
Rp46
(dp47
bag1
(g2
(I182
tp48
Rp49
(dp50
bg2
(I377
tp51
Rp52
(dp53
btp54
Rp55
(dp56
bag1
(g2
(I978
tp57
Rp58
(dp59
bg2
(I810
tp60
Rp61
(dp62
btp63
Rp64
(dp65
bag1
(g2
(I208
tp66
Rp67
(dp68
bg2
(I54
tp69
Rp70
(dp71
btp72
Rp73
(dp74
bag1
(g2
(I668
tp75
Rp76
(dp77
bg2
(I339
tp78
Rp79
(dp80
btp81
Rp82
(dp83
bag1
(g2
(I292
tp84
Rp85
(dp86
bg2
(I528
tp87
Rp88
(dp89
btp90
Rp91
(dp92
bag1
(g2
(I336
tp93
Rp94
(dp95
bg2
(I576
tp96
Rp97
(dp98
btp99
Rp100
(dp101
bag1
(g2
(I776
tp102
Rp103
(dp104
bg2
(I763
tp105
Rp106
(dp107
btp108
Rp109
(dp110
bag1
(g2
(I930
tp111
Rp112
(dp113
bg2
(I571
tp114
Rp115
(dp116
btp117
Rp118
(dp119
bag1
(g2
(I641
tp120
Rp121
(dp122
bg2
(I622
tp123
Rp124
(dp125
btp126
Rp127
(dp128
bag1
(g2
(I172
tp129
Rp130
(dp131
bg2
(I972
tp132
Rp133
(dp134
btp135
Rp136
(dp137
bag1
(g2
(I706
tp138
Rp139
(dp140
bg2
(I708
tp141
Rp142
(dp143
btp144
Rp145
(dp146
bag1
(g2
(I952
tp147
Rp148
(dp149
bg2
(I581
tp150
Rp151
(dp152
btp153
Rp154
(dp155
bag1
(g2
(I18
tp156
Rp157
(dp158
bg2
(I675
tp159
Rp160
(dp161
btp162
Rp163
(dp164
bag1
(g2
(I907
tp165
Rp166
(dp167
bg2
(I728
tp168
Rp169
(dp170
btp171
Rp172
(dp173
bag1
(g2
(I573
tp174
Rp175
(dp176
bg2
(I570
tp177
Rp178
(dp179
btp180
Rp181
(dp182
bag1
(g2
(I353
tp183
Rp184
(dp185
bg2
(I321
tp186
Rp187
(dp188
btp189
Rp190
(dp191
bag1
(g2
(I829
tp192
Rp193
(dp194
bg2
(I713
tp195
Rp196
(dp197
btp198
Rp199
(dp200
bag1
(g2
(I332
tp201
Rp202
(dp203
bg2
(I273
tp204
Rp205
(dp206
btp207
Rp208
(dp209
bag1
(g2
(I601
tp210
Rp211
(dp212
bg2
(I400
tp213
Rp214
(dp215
btp216
Rp217
(dp218
bag1
(g2
(I545
tp219
Rp220
(dp221
bg2
(I270
tp222
Rp223
(dp224
btp225
Rp226
(dp227
bag1
(g2
(I775
tp228
Rp229
(dp230
bg2
(I464
tp231
Rp232
(dp233
btp234
Rp235
(dp236
bag1
(g2
(I547
tp237
Rp238
(dp239
bg2
(I42
tp240
Rp241
(dp242
btp243
Rp244
(dp245
bag1
(g2
(I621
tp246
Rp247
(dp248
bg2
(I253
tp249
Rp250
(dp251
btp252
Rp253
(dp254
bag1
(g2
(I173
tp255
Rp256
(dp257
bg2
(I526
tp258
Rp259
(dp260
btp261
Rp262
(dp263
bag1
(g2
(I563
tp264
Rp265
(dp266
bg2
(I392
tp267
Rp268
(dp269
btp270
Rp271
(dp272
bag1
(g2
(I477
tp273
Rp274
(dp275
bg2
(I411
tp276
Rp277
(dp278
btp279
Rp280
(dp281
bag1
(g2
(I190
tp282
Rp283
(dp284
bg2
(I430
tp285
Rp286
(dp287
btp288
Rp289
(dp290
bag1
(g2
(I449
tp291
Rp292
(dp293
bg2
(I346
tp294
Rp295
(dp296
btp297
Rp298
(dp299
bag1
(g2
(I300
tp300
Rp301
(dp302
bg2
(I475
tp303
Rp304
(dp305
btp306
Rp307
(dp308
bag1
(g2
(I886
tp309
Rp310
(dp311
bg2
(I467
tp312
Rp313
(dp314
btp315
Rp316
(dp317
bag1
(g2
(I247
tp318
Rp319
(dp320
bg2
(I137
tp321
Rp322
(dp323
btp324
Rp325
(dp326
bag1
(g2
(I630
tp327
Rp328
(dp329
bg2
(I687
tp330
Rp331
(dp332
btp333
Rp334
(dp335
bag1
(g2
(I765
tp336
Rp337
(dp338
bg2
(I358
tp339
Rp340
(dp341
btp342
Rp343
(dp344
bag1
(g2
(I421
tp345
Rp346
(dp347
bg2
(I871
tp348
Rp349
(dp350
btp351
Rp352
(dp353
bag1
(g2
(I425
tp354
Rp355
(dp356
bg2
(I221
tp357
Rp358
(dp359
btp360
Rp361
(dp362
bag1
(g2
(I44
tp363
Rp364
(dp365
bg2
(I766
tp366
Rp367
(dp368
btp369
Rp370
(dp371
bag1
(g2
(I861
tp372
Rp373
(dp374
bg2
(I820
tp375
Rp376
(dp377
btp378
Rp379
(dp380
bag1
(g2
(I615
tp381
Rp382
(dp383
bg2
(I770
tp384
Rp385
(dp386
btp387
Rp388
(dp389
bag1
(g2
(I950
tp390
Rp391
(dp392
bg2
(I116
tp393
Rp394
(dp395
btp396
Rp397
(dp398
bag1
(g2
(I380
tp399
Rp400
(dp401
bg2
(I821
tp402
Rp403
(dp404
btp405
Rp406
(dp407
bag1
(g2
(I119
tp408
Rp409
(dp410
bg2
(I626
tp411
Rp412
(dp413
btp414
Rp415
(dp416
bag1
(g2
(I854
tp417
Rp418
(dp419
bg2
(I112
tp420
Rp421
(dp422
btp423
Rp424
(dp425
bag1
(g205
g2
(I245
tp426
Rp427
(dp428
btp429
Rp430
(dp431
bag1
(g2
(I151
tp432
Rp433
(dp434
bg2
(I401
tp435
Rp436
(dp437
btp438
Rp439
(dp440
bag1
(g2
(I619
tp441
Rp442
(dp443
bg2
(I107
tp444
Rp445
(dp446
btp447
Rp448
(dp449
bag1
(g295
g76
tp450
Rp451
(dp452
bag1
(g313
g2
(I240
tp453
Rp454
(dp455
btp456
Rp457
(dp458
bag1
(g2
(I759
tp459
Rp460
(dp461
bg2
(I966
tp462
Rp463
(dp464
btp465
Rp466
(dp467
bag1
(g2
(I362
tp468
Rp469
(dp470
bg2
(I207
tp471
Rp472
(dp473
btp474
Rp475
(dp476
bag1
(g277
g2
(I923
tp477
Rp478
(dp479
btp480
Rp481
(dp482
bag1
(g2
(I941
tp483
Rp484
(dp485
bg2
(I480
tp486
Rp487
(dp488
btp489
Rp490
(dp491
bag1
(g142
g2
(I558
tp492
Rp493
(dp494
btp495
Rp496
(dp497
bag1
(g2
(I928
tp498
Rp499
(dp500
bg2
(I807
tp501
Rp502
(dp503
btp504
Rp505
(dp506
bag1
(g2
(I434
tp507
Rp508
(dp509
bg2
(I889
tp510
Rp511
(dp512
btp513
Rp514
(dp515
bag1
(g2
(I613
tp516
Rp517
(dp518
bg2
(I326
tp519
Rp520
(dp521
btp522
Rp523
(dp524
bag1
(g2
(I758
tp525
Rp526
(dp527
bg220
tp528
Rp529
(dp530
bag1
(g2
(I913
tp531
Rp532
(dp533
bg2
(I582
tp534
Rp535
(dp536
btp537
Rp538
(dp539
bag1
(g2
(I691
tp540
Rp541
(dp542
bg2
(I780
tp543
Rp544
(dp545
btp546
Rp547
(dp548
bag1
(g2
(I554
tp549
Rp550
(dp551
bg2
(I272
tp552
Rp553
(dp554
btp555
Rp556
(dp557
bag1
(g2
(I277
tp558
Rp559
(dp560
bg2
(I15
tp561
Rp562
(dp563
btp564
Rp565
(dp566
bag1
(g2
(I178
tp567
Rp568
(dp569
bg2
(I356
tp570
Rp571
(dp572
btp573
Rp574
(dp575
bag1
(g2
(I605
tp576
Rp577
(dp578
bg373
tp579
Rp580
(dp581
bag1
(g2
(I28
tp582
Rp583
(dp584
bg2
(I263
tp585
Rp586
(dp587
btp588
Rp589
(dp590
bag1
(g2
(I971
tp591
Rp592
(dp593
bg2
(I721
tp594
Rp595
(dp596
btp597
Rp598
(dp599
bag1
(g2
(I934
tp600
Rp601
(dp602
bg2
(I231
tp603
Rp604
(dp605
btp606
Rp607
(dp608
bag1
(g2
(I496
tp609
Rp610
(dp611
bg2
(I633
tp612
Rp613
(dp614
btp615
Rp616
(dp617
bag1
(g2
(I91
tp618
Rp619
(dp620
bg2
(I305
tp621
Rp622
(dp623
btp624
Rp625
(dp626
bag1
(g2
(I690
tp627
Rp628
(dp629
bg2
(I306
tp630
Rp631
(dp632
btp633
Rp634
(dp635
bag1
(g2
(I22
tp636
Rp637
(dp638
bg2
(I893
tp639
Rp640
(dp641
btp642
Rp643
(dp644
bag1
(g2
(I287
tp645
Rp646
(dp647
bg2
(I761
tp648
Rp649
(dp650
btp651
Rp652
(dp653
bag1
(g2
(I238
tp654
Rp655
(dp656
bg2
(I175
tp657
Rp658
(dp659
btp660
Rp661
(dp662
bag1
(g2
(I354
tp663
Rp664
(dp665
bg2
(I397
tp666
Rp667
(dp668
btp669
Rp670
(dp671
bag1
(g2
(I685
tp672
Rp673
(dp674
bg2
(I638
tp675
Rp676
(dp677
btp678
Rp679
(dp680
bag1
(g2
(I471
tp681
Rp682
(dp683
bg2
(I801
tp684
Rp685
(dp686
btp687
Rp688
(dp689
bag1
(g2
(I312
tp690
Rp691
(dp692
bg2
(I177
tp693
Rp694
(dp695
btp696
Rp697
(dp698
bag1
(g2
(I828
tp699
Rp700
(dp701
bg2
(I826
tp702
Rp703
(dp704
btp705
Rp706
(dp707
bag1
(g2
(I194
tp708
Rp709
(dp710
bg2
(I483
tp711
Rp712
(dp713
btp714
Rp715
(dp716
bag1
(g2
(I964
tp717
Rp718
(dp719
bg2
(I482
tp720
Rp721
(dp722
btp723
Rp724
(dp725
bag1
(g2
(I159
tp726
Rp727
(dp728
bg2
(I163
tp729
Rp730
(dp731
btp732
Rp733
(dp734
bag1
(g2
(I36
tp735
Rp736
(dp737
bg2
(I276
tp738
Rp739
(dp740
btp741
Rp742
(dp743
bag1
(g2
(I774
tp744
Rp745
(dp746
bg2
(I16
tp747
Rp748
(dp749
btp750
Rp751
(dp752
bag1
(g2
(I891
tp753
Rp754
(dp755
bg2
(I846
tp756
Rp757
(dp758
btp759
Rp760
(dp761
bag1
(g2
(I75
tp762
Rp763
(dp764
bg2
(I382
tp765
Rp766
(dp767
btp768
Rp769
(dp770
bag1
(g712
g2
(I604
tp771
Rp772
(dp773
btp774
Rp775
(dp776
bag1
(g2
(I257
tp777
Rp778
(dp779
bg2
(I852
tp780
Rp781
(dp782
btp783
Rp784
(dp785
bag1
(g2
(I627
tp786
Rp787
(dp788
bg2
(I521
tp789
Rp790
(dp791
btp792
Rp793
(dp794
bag1
(g2
(I827
tp795
Rp796
(dp797
bg2
(I987
tp798
Rp799
(dp800
btp801
Rp802
(dp803
bag1
(g2
(I274
tp804
Rp805
(dp806
bg2
(I204
tp807
Rp808
(dp809
btp810
Rp811
(dp812
bag1
(g2
(I81
tp813
Rp814
(dp815
bg2
(I226
tp816
Rp817
(dp818
btp819
Rp820
(dp821
bag1
(g2
(I250
tp822
Rp823
(dp824
bg2
(I95
tp825
Rp826
(dp827
btp828
Rp829
(dp830
bag1
(g2
(I599
tp831
Rp832
(dp833
bg2
(I170
tp834
Rp835
(dp836
btp837
Rp838
(dp839
bag1
(g2
(I732
tp840
Rp841
(dp842
bg2
(I453
tp843
Rp844
(dp845
btp846
Rp847
(dp848
bag1
(g2
(I342
tp849
Rp850
(dp851
bg2
(I443
tp852
Rp853
(dp854
btp855
Rp856
(dp857
bag1
(g2
(I206
tp858
Rp859
(dp860
bg2
(I637
tp861
Rp862
(dp863
btp864
Rp865
(dp866
bag1
(g2
(I511
tp867
Rp868
(dp869
bg2
(I438
tp870
Rp871
(dp872
btp873
Rp874
(dp875
bag1
(g2
(I445
tp876
Rp877
(dp878
bg2
(I191
tp879
Rp880
(dp881
btp882
Rp883
(dp884
bag1
(g2
(I890
tp885
Rp886
(dp887
bg2
(I335
tp888
Rp889
(dp890
btp891
Rp892
(dp893
bag1
(g97
g2
(I237
tp894
Rp895
(dp896
btp897
Rp898
(dp899
bag1
(g2
(I786
tp900
Rp901
(dp902
bg2
(I40
tp903
Rp904
(dp905
btp906
Rp907
(dp908
bag1
(g2
(I278
tp909
Rp910
(dp911
bg2
(I549
tp912
Rp913
(dp914
btp915
Rp916
(dp917
bag1
(g2
(I383
tp918
Rp919
(dp920
bg2
(I210
tp921
Rp922
(dp923
btp924
Rp925
(dp926
bag1
(g2
(I784
tp927
Rp928
(dp929
bg2
(I958
tp930
Rp931
(dp932
btp933
Rp934
(dp935
bag1
(g2
(I981
tp936
Rp937
(dp938
bg2
(I760
tp939
Rp940
(dp941
btp942
Rp943
(dp944
bag1
(g2
(I779
tp945
Rp946
(dp947
bg2
(I650
tp948
Rp949
(dp950
btp951
Rp952
(dp953
bag1
(g2
(I476
tp954
Rp955
(dp956
bg2
(I6
tp957
Rp958
(dp959
btp960
Rp961
(dp962
bag1
(g2
(I816
tp963
Rp964
(dp965
bg2
(I390
tp966
Rp967
(dp968
btp969
Rp970
(dp971
bag1
(g2
(I153
tp972
Rp973
(dp974
bg2
(I8
tp975
Rp976
(dp977
btp978
Rp979
(dp980
bag1
(g2
(I171
tp981
Rp982
(dp983
bg2
(I435
tp984
Rp985
(dp986
btp987
Rp988
(dp989
bag1
(g2
(I702
tp990
Rp991
(dp992
bg928
tp993
Rp994
(dp995
bag1
(g2
(I396
tp996
Rp997
(dp998
bg2
(I883
tp999
Rp1000
(dp1001
btp1002
Rp1003
(dp1004
bag1
(g2
(I648
tp1005
Rp1006
(dp1007
bg2
(I364
tp1008
Rp1009
(dp1010
btp1011
Rp1012
(dp1013
bag1
(g2
(I962
tp1014
Rp1015
(dp1016
bg2
(I670
tp1017
Rp1018
(dp1019
btp1020
Rp1021
(dp1022
bag1
(g2
(I78
tp1023
Rp1024
(dp1025
bg2
(I914
tp1026
Rp1027
(dp1028
btp1029
Rp1030
(dp1031
bag1
(g2
(I756
tp1032
Rp1033
(dp1034
bg2
(I47
tp1035
Rp1036
(dp1037
btp1038
Rp1039
(dp1040
bag1
(g2
(I536
tp1041
Rp1042
(dp1043
bg2
(I424
tp1044
Rp1045
(dp1046
btp1047
Rp1048
(dp1049
bag1
(g2
(I154
tp1050
Rp1051
(dp1052
bg499
tp1053
Rp1054
(dp1055
bag1
(g2
(I791
tp1056
Rp1057
(dp1058
bg2
(I725
tp1059
Rp1060
(dp1061
btp1062
Rp1063
(dp1064
bag1
(g2
(I109
tp1065
Rp1066
(dp1067
bg2
(I286
tp1068
Rp1069
(dp1070
btp1071
Rp1072
(dp1073
bag1
(g2
(I902
tp1074
Rp1075
(dp1076
bg592
tp1077
Rp1078
(dp1079
bag1
(g2
(I456
tp1080
Rp1081
(dp1082
bg601
tp1083
Rp1084
(dp1085
bag1
(g2
(I704
tp1086
Rp1087
(dp1088
bg2
(I451
tp1089
Rp1090
(dp1091
btp1092
Rp1093
(dp1094
bag1
(g2
(I381
tp1095
Rp1096
(dp1097
bg2
(I778
tp1098
Rp1099
(dp1100
btp1101
Rp1102
(dp1103
bag1
(g2
(I79
tp1104
Rp1105
(dp1106
bg2
(I996
tp1107
Rp1108
(dp1109
btp1110
Rp1111
(dp1112
bag1
(g2
(I429
tp1113
Rp1114
(dp1115
bg2
(I565
tp1116
Rp1117
(dp1118
btp1119
Rp1120
(dp1121
bag1
(g2
(I27
tp1122
Rp1123
(dp1124
bg2
(I303
tp1125
Rp1126
(dp1127
btp1128
Rp1129
(dp1130
bag1
(g2
(I155
tp1131
Rp1132
(dp1133
bg2
(I162
tp1134
Rp1135
(dp1136
btp1137
Rp1138
(dp1139
bag1
(g2
(I152
tp1140
Rp1141
(dp1142
bg2
(I951
tp1143
Rp1144
(dp1145
btp1146
Rp1147
(dp1148
bag1
(g2
(I592
tp1149
Rp1150
(dp1151
bg2
(I70
tp1152
Rp1153
(dp1154
btp1155
Rp1156
(dp1157
bag1
(g2
(I819
tp1158
Rp1159
(dp1160
bg2
(I74
tp1161
Rp1162
(dp1163
btp1164
Rp1165
(dp1166
bag1
(g2
(I463
tp1167
Rp1168
(dp1169
bg2
(I832
tp1170
Rp1171
(dp1172
btp1173
Rp1174
(dp1175
bag1
(g2
(I143
tp1176
Rp1177
(dp1178
bg2
(I662
tp1179
Rp1180
(dp1181
btp1182
Rp1183
(dp1184
bag1
(g2
(I876
tp1185
Rp1186
(dp1187
bg2
(I24
tp1188
Rp1189
(dp1190
btp1191
Rp1192
(dp1193
bag1
(g2
(I408
tp1194
Rp1195
(dp1196
bg2
(I918
tp1197
Rp1198
(dp1199
btp1200
Rp1201
(dp1202
bag1
(g2
(I994
tp1203
Rp1204
(dp1205
bg391
tp1206
Rp1207
(dp1208
bag1
(g2
(I469
tp1209
Rp1210
(dp1211
bg2
(I814
tp1212
Rp1213
(dp1214
btp1215
Rp1216
(dp1217
bag1
(g2
(I125
tp1218
Rp1219
(dp1220
bg2
(I800
tp1221
Rp1222
(dp1223
btp1224
Rp1225
(dp1226
bag1
(g2
(I512
tp1227
Rp1228
(dp1229
bg2
(I220
tp1230
Rp1231
(dp1232
btp1233
Rp1234
(dp1235
bag1
(g2
(I557
tp1236
Rp1237
(dp1238
bg292
tp1239
Rp1240
(dp1241
bag1
(g2
(I138
tp1242
Rp1243
(dp1244
bg2
(I922
tp1245
Rp1246
(dp1247
btp1248
Rp1249
(dp1250
bag1
(g2
(I997
tp1251
Rp1252
(dp1253
bg2
(I222
tp1254
Rp1255
(dp1256
btp1257
Rp1258
(dp1259
bag1
(g2
(I652
tp1260
Rp1261
(dp1262
bg2
(I931
tp1263
Rp1264
(dp1265
btp1266
Rp1267
(dp1268
bag1
(g2
(I783
tp1269
Rp1270
(dp1271
bg2
(I96
tp1272
Rp1273
(dp1274
btp1275
Rp1276
(dp1277
bag1
(g2
(I465
tp1278
Rp1279
(dp1280
bg655
tp1281
Rp1282
(dp1283
bag1
(g2
(I838
tp1284
Rp1285
(dp1286
bg2
(I804
tp1287
Rp1288
(dp1289
btp1290
Rp1291
(dp1292
bag1
(g2
(I58
tp1293
Rp1294
(dp1295
bg2
(I718
tp1296
Rp1297
(dp1298
btp1299
Rp1300
(dp1301
bag1
(g2
(I864
tp1302
Rp1303
(dp1304
bg2
(I693
tp1305
Rp1306
(dp1307
btp1308
Rp1309
(dp1310
bag1
(g2
(I734
tp1311
Rp1312
(dp1313
bg2
(I266
tp1314
Rp1315
(dp1316
btp1317
Rp1318
(dp1319
bag1
(g2
(I738
tp1320
Rp1321
(dp1322
bg2
(I156
tp1323
Rp1324
(dp1325
btp1326
Rp1327
(dp1328
bag1
(g2
(I660
tp1329
Rp1330
(dp1331
bg2
(I746
tp1332
Rp1333
(dp1334
btp1335
Rp1336
(dp1337
bag1
(g2
(I484
tp1338
Rp1339
(dp1340
bg2
(I977
tp1341
Rp1342
(dp1343
btp1344
Rp1345
(dp1346
bag1
(g2
(I911
tp1347
Rp1348
(dp1349
bg2
(I200
tp1350
Rp1351
(dp1352
btp1353
Rp1354
(dp1355
bag1
(g445
g2
(I19
tp1356
Rp1357
(dp1358
btp1359
Rp1360
(dp1361
bag1
(g403
g2
(I584
tp1362
Rp1363
(dp1364
btp1365
Rp1366
(dp1367
bag1
(g1060
g2
(I956
tp1368
Rp1369
(dp1370
btp1371
Rp1372
(dp1373
bag1
(g1342
g2
(I485
tp1374
Rp1375
(dp1376
btp1377
Rp1378
(dp1379
bag1
(g1297
g2
(I579
tp1380
Rp1381
(dp1382
btp1383
Rp1384
(dp1385
bag1
(g2
(I524
tp1386
Rp1387
(dp1388
bg2
(I745
tp1389
Rp1390
(dp1391
btp1392
Rp1393
(dp1394
bag1
(g931
g2
(I415
tp1395
Rp1396
(dp1397
btp1398
Rp1399
(dp1400
bag1
(g2
(I771
tp1401
Rp1402
(dp1403
bg2
(I236
tp1404
Rp1405
(dp1406
btp1407
Rp1408
(dp1409
bag1
(g2
(I686
tp1410
Rp1411
(dp1412
bg778
tp1413
Rp1414
(dp1415
bag1
(g2
(I498
tp1416
Rp1417
(dp1418
bg2
(I980
tp1419
Rp1420
(dp1421
btp1422
Rp1423
(dp1424
bag1
(g2
(I948
tp1425
Rp1426
(dp1427
bg2
(I507
tp1428
Rp1429
(dp1430
btp1431
Rp1432
(dp1433
bag1
(g571
g2
(I195
tp1434
Rp1435
(dp1436
btp1437
Rp1438
(dp1439
bag1
(g2
(I378
tp1440
Rp1441
(dp1442
bg2
(I673
tp1443
Rp1444
(dp1445
btp1446
Rp1447
(dp1448
bag1
(g631
g2
(I447
tp1449
Rp1450
(dp1451
btp1452
Rp1453
(dp1454
bag1
(g2
(I777
tp1455
Rp1456
(dp1457
bg937
tp1458
Rp1459
(dp1460
bag1
(g2
(I788
tp1461
Rp1462
(dp1463
bg2
(I785
tp1464
Rp1465
(dp1466
btp1467
Rp1468
(dp1469
bag1
(g2
(I212
tp1470
Rp1471
(dp1472
bg2
(I304
tp1473
Rp1474
(dp1475
btp1476
Rp1477
(dp1478
bag1
(g2
(I285
tp1479
Rp1480
(dp1481
bg2
(I49
tp1482
Rp1483
(dp1484
btp1485
Rp1486
(dp1487
bag1
(g2
(I531
tp1488
Rp1489
(dp1490
bg2
(I261
tp1491
Rp1492
(dp1493
btp1494
Rp1495
(dp1496
bag1
(g2
(I251
tp1497
Rp1498
(dp1499
bg2
(I543
tp1500
Rp1501
(dp1502
btp1503
Rp1504
(dp1505
bag1
(g2
(I895
tp1506
Rp1507
(dp1508
bg2
(I130
tp1509
Rp1510
(dp1511
btp1512
Rp1513
(dp1514
bag1
(g2
(I842
tp1515
Rp1516
(dp1517
bg2
(I296
tp1518
Rp1519
(dp1520
btp1521
Rp1522
(dp1523
bag1
(g61
g2
(I703
tp1524
Rp1525
(dp1526
btp1527
Rp1528
(dp1529
bag1
(g2
(I99
tp1530
Rp1531
(dp1532
bg2
(I656
tp1533
Rp1534
(dp1535
btp1536
Rp1537
(dp1538
bag1
(g2
(I502
tp1539
Rp1540
(dp1541
bg2
(I682
tp1542
Rp1543
(dp1544
btp1545
Rp1546
(dp1547
bag1
(g2
(I203
tp1548
Rp1549
(dp1550
bg2
(I474
tp1551
Rp1552
(dp1553
btp1554
Rp1555
(dp1556
bag1
(g2
(I845
tp1557
Rp1558
(dp1559
bg2
(I858
tp1560
Rp1561
(dp1562
btp1563
Rp1564
(dp1565
bag1
(g880
g2
(I569
tp1566
Rp1567
(dp1568
btp1569
Rp1570
(dp1571
bag1
(g2
(I48
tp1572
Rp1573
(dp1574
bg2
(I532
tp1575
Rp1576
(dp1577
btp1578
Rp1579
(dp1580
bag1
(g2
(I755
tp1581
Rp1582
(dp1583
bg2
(I414
tp1584
Rp1585
(dp1586
btp1587
Rp1588
(dp1589
bag1
(g2
(I937
tp1590
Rp1591
(dp1592
bg2
(I906
tp1593
Rp1594
(dp1595
btp1596
Rp1597
(dp1598
bag1
(g2
(I360
tp1599
Rp1600
(dp1601
bg2
(I567
tp1602
Rp1603
(dp1604
btp1605
Rp1606
(dp1607
bag1
(g2
(I635
tp1608
Rp1609
(dp1610
bg256
tp1611
Rp1612
(dp1613
bag1
(g2
(I388
tp1614
Rp1615
(dp1616
bg2
(I968
tp1617
Rp1618
(dp1619
btp1620
Rp1621
(dp1622
bag1
(g421
g982
tp1623
Rp1624
(dp1625
bag1
(g2
(I9
tp1626
Rp1627
(dp1628
bg2
(I546
tp1629
Rp1630
(dp1631
btp1632
Rp1633
(dp1634
bag1
(g2
(I139
tp1635
Rp1636
(dp1637
bg2
(I920
tp1638
Rp1639
(dp1640
btp1641
Rp1642
(dp1643
bag1
(g2
(I659
tp1644
Rp1645
(dp1646
bg2
(I705
tp1647
Rp1648
(dp1649
btp1650
Rp1651
(dp1652
bag1
(g2
(I538
tp1653
Rp1654
(dp1655
bg673
tp1656
Rp1657
(dp1658
bag1
(g2
(I181
tp1659
Rp1660
(dp1661
bg532
tp1662
Rp1663
(dp1664
bag1
(g2
(I72
tp1665
Rp1666
(dp1667
bg2
(I726
tp1668
Rp1669
(dp1670
btp1671
Rp1672
(dp1673
bag1
(g1603
g2
(I209
tp1674
Rp1675
(dp1676
btp1677
Rp1678
(dp1679
bag1
(g2
(I509
tp1680
Rp1681
(dp1682
bg964
tp1683
Rp1684
(dp1685
bag1
(g1213
g2
(I410
tp1686
Rp1687
(dp1688
btp1689
Rp1690
(dp1691
bag1
(g106
g2
(I309
tp1692
Rp1693
(dp1694
btp1695
Rp1696
(dp1697
bag1
(g2
(I491
tp1698
Rp1699
(dp1700
bg2
(I315
tp1701
Rp1702
(dp1703
btp1704
Rp1705
(dp1706
bag1
(g2
(I714
tp1707
Rp1708
(dp1709
bg2
(I960
tp1710
Rp1711
(dp1712
btp1713
Rp1714
(dp1715
bag1
(g2
(I973
tp1716
Rp1717
(dp1718
bg2
(I262
tp1719
Rp1720
(dp1721
btp1722
Rp1723
(dp1724
bag1
(g2
(I80
tp1725
Rp1726
(dp1727
bg2
(I754
tp1728
Rp1729
(dp1730
btp1731
Rp1732
(dp1733
bag1
(g2
(I440
tp1734
Rp1735
(dp1736
bg955
tp1737
Rp1738
(dp1739
bag1
(g2
(I727
tp1740
Rp1741
(dp1742
bg2
(I256
tp1743
Rp1744
(dp1745
btp1746
Rp1747
(dp1748
bag1
(g2
(I661
tp1749
Rp1750
(dp1751
bg2
(I110
tp1752
Rp1753
(dp1754
btp1755
Rp1756
(dp1757
bag1
(g2
(I657
tp1758
Rp1759
(dp1760
bg2
(I697
tp1761
Rp1762
(dp1763
btp1764
Rp1765
(dp1766
bag1
(g2
(I160
tp1767
Rp1768
(dp1769
bg2
(I553
tp1770
Rp1771
(dp1772
btp1773
Rp1774
(dp1775
bag1
(g1543
g2
(I280
tp1776
Rp1777
(dp1778
btp1779
Rp1780
(dp1781
bag1
(g2
(I468
tp1782
Rp1783
(dp1784
bg2
(I739
tp1785
Rp1786
(dp1787
btp1788
Rp1789
(dp1790
bag1
(g2
(I39
tp1791
Rp1792
(dp1793
bg2
(I875
tp1794
Rp1795
(dp1796
btp1797
Rp1798
(dp1799
bag1
(g2
(I792
tp1800
Rp1801
(dp1802
bg2
(I386
tp1803
Rp1804
(dp1805
btp1806
Rp1807
(dp1808
bag1
(g913
g2
(I679
tp1809
Rp1810
(dp1811
btp1812
Rp1813
(dp1814
bag1
(g133
g700
tp1815
Rp1816
(dp1817
bag1
(g2
(I229
tp1818
Rp1819
(dp1820
bg2
(I974
tp1821
Rp1822
(dp1823
btp1824
Rp1825
(dp1826
bag1
(g2
(I818
tp1827
Rp1828
(dp1829
bg2
(I202
tp1830
Rp1831
(dp1832
btp1833
Rp1834
(dp1835
bag1
(g2
(I369
tp1836
Rp1837
(dp1838
bg1177
tp1839
Rp1840
(dp1841
bag1
(g2
(I556
tp1842
Rp1843
(dp1844
bg2
(I131
tp1845
Rp1846
(dp1847
btp1848
Rp1849
(dp1850
bag1
(g2
(I848
tp1851
Rp1852
(dp1853
bg2
(I809
tp1854
Rp1855
(dp1856
btp1857
Rp1858
(dp1859
bag1
(g694
g2
(I487
tp1860
Rp1861
(dp1862
btp1863
Rp1864
(dp1865
bag1
(g2
(I345
tp1866
Rp1867
(dp1868
bg2
(I909
tp1869
Rp1870
(dp1871
btp1872
Rp1873
(dp1874
bag1
(g2
(I796
tp1875
Rp1876
(dp1877
bg2
(I328
tp1878
Rp1879
(dp1880
btp1881
Rp1882
(dp1883
bag1
(g2
(I929
tp1884
Rp1885
(dp1886
bg910
tp1887
Rp1888
(dp1889
bag1
(g2
(I982
tp1890
Rp1891
(dp1892
bg2
(I919
tp1893
Rp1894
(dp1895
btp1896
Rp1897
(dp1898
bag1
(g2
(I747
tp1899
Rp1900
(dp1901
bg1123
tp1902
Rp1903
(dp1904
bag1
(g1639
g832
tp1905
Rp1906
(dp1907
bag1
(g1879
g2
(I115
tp1908
Rp1909
(dp1910
btp1911
Rp1912
(dp1913
bag1
(g2
(I431
tp1914
Rp1915
(dp1916
bg2
(I489
tp1917
Rp1918
(dp1919
btp1920
Rp1921
(dp1922
bag1
(g2
(I63
tp1923
Rp1924
(dp1925
bg2
(I234
tp1926
Rp1927
(dp1928
btp1929
Rp1930
(dp1931
bag1
(g2
(I896
tp1932
Rp1933
(dp1934
bg1057
tp1935
Rp1936
(dp1937
bag1
(g1687
g2
(I25
tp1938
Rp1939
(dp1940
btp1941
Rp1942
(dp1943
bag1
(g2
(I129
tp1944
Rp1945
(dp1946
bg868
tp1947
Rp1948
(dp1949
bag1
(g2
(I574
tp1950
Rp1951
(dp1952
bg2
(I419
tp1953
Rp1954
(dp1955
btp1956
Rp1957
(dp1958
bag1
(g2
(I102
tp1959
Rp1960
(dp1961
bg709
tp1962
Rp1963
(dp1964
bag1
(g2
(I628
tp1965
Rp1966
(dp1967
bg1411
tp1968
Rp1969
(dp1970
bag1
(g2
(I926
tp1971
Rp1972
(dp1973
bg2
(I527
tp1974
Rp1975
(dp1976
btp1977
Rp1978
(dp1979
bag1
(g2
(I598
tp1980
Rp1981
(dp1982
bg2
(I880
tp1983
Rp1984
(dp1985
btp1986
Rp1987
(dp1988
bag1
(g2
(I64
tp1989
Rp1990
(dp1991
bg1915
tp1992
Rp1993
(dp1994
bag1
(g2
(I324
tp1995
Rp1996
(dp1997
bg2
(I921
tp1998
Rp1999
(dp2000
btp2001
Rp2002
(dp2003
bag1
(g1744
g2
(I898
tp2004
Rp2005
(dp2006
btp2007
Rp2008
(dp2009
bag1
(g1831
g2
(I851
tp2010
Rp2011
(dp2012
btp2013
Rp2014
(dp2015
bag1
(g730
g2
(I420
tp2016
Rp2017
(dp2018
btp2019
Rp2020
(dp2021
bag1
(g2
(I817
tp2022
Rp2023
(dp2024
bg2
(I459
tp2025
Rp2026
(dp2027
btp2028
Rp2029
(dp2030
bag1
(g2
(I793
tp2031
Rp2032
(dp2033
bg1792
tp2034
Rp2035
(dp2036
bag1
(g2
(I614
tp2037
Rp2038
(dp2039
bg319
tp2040
Rp2041
(dp2042
bag1
(g2
(I452
tp2043
Rp2044
(dp2045
bg2
(I847
tp2046
Rp2047
(dp2048
btp2049
Rp2050
(dp2051
bag1
(g2
(I211
tp2052
Rp2053
(dp2054
bg2
(I794
tp2055
Rp2056
(dp2057
btp2058
Rp2059
(dp2060
bag1
(g2
(I900
tp2061
Rp2062
(dp2063
bg364
tp2064
Rp2065
(dp2066
bag1
(g2
(I566
tp2067
Rp2068
(dp2069
bg2
(I128
tp2070
Rp2071
(dp2072
btp2073
Rp2074
(dp2075
bag1
(g2
(I636
tp2076
Rp2077
(dp2078
bg2
(I126
tp2079
Rp2080
(dp2081
btp2082
Rp2083
(dp2084
bag1
(g2
(I235
tp2085
Rp2086
(dp2087
bg2
(I646
tp2088
Rp2089
(dp2090
btp2091
Rp2092
(dp2093
bag1
(g2
(I936
tp2094
Rp2095
(dp2096
bg2
(I374
tp2097
Rp2098
(dp2099
btp2100
Rp2101
(dp2102
bag1
(g1198
g886
tp2103
Rp2104
(dp2105
bag1
(g2
(I370
tp2106
Rp2107
(dp2108
bg559
tp2109
Rp2110
(dp2111
bag1
(g2
(I730
tp2112
Rp2113
(dp2114
bg2
(I255
tp2115
Rp2116
(dp2117
btp2118
Rp2119
(dp2120
bag1
(g2
(I806
tp2121
Rp2122
(dp2123
bg2
(I248
tp2124
Rp2125
(dp2126
btp2127
Rp2128
(dp2129
bag1
(g1786
g1972
tp2130
Rp2131
(dp2132
bag1
(g2
(I596
tp2133
Rp2134
(dp2135
bg2
(I279
tp2136
Rp2137
(dp2138
btp2139
Rp2140
(dp2141
bag1
(g2
(I519
tp2142
Rp2143
(dp2144
bg2
(I591
tp2145
Rp2146
(dp2147
btp2148
Rp2149
(dp2150
bag1
(g232
g2
(I127
tp2151
Rp2152
(dp2153
btp2154
Rp2155
(dp2156
bag1
(g2
(I311
tp2157
Rp2158
(dp2159
bg2
(I52
tp2160
Rp2161
(dp2162
btp2163
Rp2164
(dp2165
bag1
(g2
(I450
tp2166
Rp2167
(dp2168
bg2
(I787
tp2169
Rp2170
(dp2171
btp2172
Rp2173
(dp2174
bag1
(g2
(I736
tp2175
Rp2176
(dp2177
bg1066
tp2178
Rp2179
(dp2180
bag1
(g2
(I113
tp2181
Rp2182
(dp2183
bg2
(I676
tp2184
Rp2185
(dp2186
btp2187
Rp2188
(dp2189
bag1
(g2
(I862
tp2190
Rp2191
(dp2192
bg2
(I157
tp2193
Rp2194
(dp2195
btp2196
Rp2197
(dp2198
bag1
(g2
(I949
tp2199
Rp2200
(dp2201
bg2
(I860
tp2202
Rp2203
(dp2204
btp2205
Rp2206
(dp2207
bag1
(g2
(I217
tp2208
Rp2209
(dp2210
bg1960
tp2211
Rp2212
(dp2213
bag1
(g1567
g2
(I77
tp2214
Rp2215
(dp2216
btp2217
Rp2218
(dp2219
bag1
(g2
(I589
tp2220
Rp2221
(dp2222
bg610
tp2223
Rp2224
(dp2225
bag1
(g1777
g2
(I373
tp2226
Rp2227
(dp2228
btp2229
Rp2230
(dp2231
bag1
(g2
(I323
tp2232
Rp2233
(dp2234
bg2
(I375
tp2235
Rp2236
(dp2237
btp2238
Rp2239
(dp2240
bag1
(g2
(I945
tp2241
Rp2242
(dp2243
bg2
(I233
tp2244
Rp2245
(dp2246
btp2247
Rp2248
(dp2249
bag1
(g2
(I939
tp2250
Rp2251
(dp2252
bg337
tp2253
Rp2254
(dp2255
bag1
(g487
g1819
tp2256
Rp2257
(dp2258
bag1
(g2
(I597
tp2259
Rp2260
(dp2261
bg2
(I146
tp2262
Rp2263
(dp2264
btp2265
Rp2266
(dp2267
bag1
(g667
g2077
tp2268
Rp2269
(dp2270
bag1
(g2
(I834
tp2271
Rp2272
(dp2273
bg355
tp2274
Rp2275
(dp2276
bag1
(g2
(I242
tp2277
Rp2278
(dp2279
bg2
(I970
tp2280
Rp2281
(dp2282
btp2283
Rp2284
(dp2285
bag1
(g1180
g2
(I20
tp2286
Rp2287
(dp2288
btp2289
Rp2290
(dp2291
bag1
(g1618
g2
(I655
tp2292
Rp2293
(dp2294
btp2295
Rp2296
(dp2297
bag1
(g427
g2
(I983
tp2298
Rp2299
(dp2300
btp2301
Rp2302
(dp2303
bag1
(g2
(I223
tp2304
Rp2305
(dp2306
bg1006
tp2307
Rp2308
(dp2309
bag1
(g2
(I798
tp2310
Rp2311
(dp2312
bg2
(I585
tp2313
Rp2314
(dp2315
btp2316
Rp2317
(dp2318
bag1
(g2
(I729
tp2319
Rp2320
(dp2321
bg49
tp2322
Rp2323
(dp2324
bag1
(g2
(I427
tp2325
Rp2326
(dp2327
bg2
(I111
tp2328
Rp2329
(dp2330
btp2331
Rp2332
(dp2333
bag1
(g2
(I402
tp2334
Rp2335
(dp2336
bg2
(I461
tp2337
Rp2338
(dp2339
btp2340
Rp2341
(dp2342
bag1
(g2
(I376
tp2343
Rp2344
(dp2345
bg2
(I269
tp2346
Rp2347
(dp2348
btp2349
Rp2350
(dp2351
bag1
(g2338
g1303
tp2352
Rp2353
(dp2354
bag1
(g2
(I993
tp2355
Rp2356
(dp2357
bg2
(I219
tp2358
Rp2359
(dp2360
btp2361
Rp2362
(dp2363
bag1
(g2
(I351
tp2364
Rp2365
(dp2366
bg2
(I525
tp2367
Rp2368
(dp2369
btp2370
Rp2371
(dp2372
bag1
(g2026
g2
(I664
tp2373
Rp2374
(dp2375
btp2376
Rp2377
(dp2378
bag1
(g2
(I478
tp2379
Rp2380
(dp2381
bg2
(I61
tp2382
Rp2383
(dp2384
btp2385
Rp2386
(dp2387
bag1
(g2
(I824
tp2388
Rp2389
(dp2390
bg2305
tp2391
Rp2392
(dp2393
bag1
(g1405
g2
(I84
tp2394
Rp2395
(dp2396
btp2397
Rp2398
(dp2399
bag1
(g472
g2
(I518
tp2400
Rp2401
(dp2402
btp2403
Rp2404
(dp2405
bag1
(g2
(I992
tp2406
Rp2407
(dp2408
bg2
(I149
tp2409
Rp2410
(dp2411
btp2412
Rp2413
(dp2414
bag1
(g1720
g2
(I575
tp2415
Rp2416
(dp2417
btp2418
Rp2419
(dp2420
bag1
(g2
(I227
tp2421
Rp2422
(dp2423
bg2
(I294
tp2424
Rp2425
(dp2426
btp2427
Rp2428
(dp2429
bag1
(g2
(I752
tp2430
Rp2431
(dp2432
bg805
tp2433
Rp2434
(dp2435
bag1
(g2
(I808
tp2436
Rp2437
(dp2438
bg2
(I232
tp2439
Rp2440
(dp2441
btp2442
Rp2443
(dp2444
bag1
(g2
(I881
tp2445
Rp2446
(dp2447
bg2
(I361
tp2448
Rp2449
(dp2450
btp2451
Rp2452
(dp2453
bag1
(g2
(I372
tp2454
Rp2455
(dp2456
bg919
tp2457
Rp2458
(dp2459
bag1
(g493
g1168
tp2460
Rp2461
(dp2462
bag1
(g520
g1507
tp2463
Rp2464
(dp2465
bag1
(g2
(I700
tp2466
Rp2467
(dp2468
bg2
(I55
tp2469
Rp2470
(dp2471
btp2472
Rp2473
(dp2474
bag1
(g2
(I249
tp2475
Rp2476
(dp2477
bg1768
tp2478
Rp2479
(dp2480
bag1
(g2
(I564
tp2481
Rp2482
(dp2483
bg2
(I413
tp2484
Rp2485
(dp2486
btp2487
Rp2488
(dp2489
bag1
(g2
(I295
tp2490
Rp2491
(dp2492
bg2
(I588
tp2493
Rp2494
(dp2495
btp2496
Rp2497
(dp2498
bag1
(g2
(I436
tp2499
Rp2500
(dp2501
bg2
(I947
tp2502
Rp2503
(dp2504
btp2505
Rp2506
(dp2507
bag1
(g2
(I338
tp2508
Rp2509
(dp2510
bg2
(I965
tp2511
Rp2512
(dp2513
btp2514
Rp2515
(dp2516
bag1
(g757
g1294
tp2517
Rp2518
(dp2519
bag1
(g2
(I663
tp2520
Rp2521
(dp2522
bg2
(I839
tp2523
Rp2524
(dp2525
btp2526
Rp2527
(dp2528
bag1
(g2
(I165
tp2529
Rp2530
(dp2531
bg2
(I158
tp2532
Rp2533
(dp2534
btp2535
Rp2536
(dp2537
bag1
(g79
g1615
tp2538
Rp2539
(dp2540
bag1
(g2
(I782
tp2541
Rp2542
(dp2543
bg139
tp2544
Rp2545
(dp2546
bag1
(g2
(I98
tp2547
Rp2548
(dp2549
bg2
(I37
tp2550
Rp2551
(dp2552
btp2553
Rp2554
(dp2555
bag1
(g2116
g2
(I989
tp2556
Rp2557
(dp2558
btp2559
Rp2560
(dp2561
bag1
(g2
(I995
tp2562
Rp2563
(dp2564
bg1087
tp2565
Rp2566
(dp2567
ba.