(lp0
csympy.geometry.point
Point2D
p1
(csympy.core.numbers
Integer
p2
(I85
tp3
Rp4
(dp5
bg2
(I154
tp6
Rp7
(dp8
btp9
Rp10
(dp11
bag1
(g2
(I278
tp12
Rp13
(dp14
bg2
(I641
tp15
Rp16
(dp17
btp18
Rp19
(dp20
bag1
(g2
(I286
tp21
Rp22
(dp23
bg2
(I843
tp24
Rp25
(dp26
btp27
Rp28
(dp29
bag1
(g2
(I585
tp30
Rp31
(dp32
bg2
(I513
tp33
Rp34
(dp35
btp36
Rp37
(dp38
bag1
(g2
(I424
tp39
Rp40
(dp41
bg2
(I762
tp42
Rp43
(dp44
btp45
Rp46
(dp47
bag1
(g2
(I197
tp48
Rp49
(dp50
bg2
(I364
tp51
Rp52
(dp53
btp54
Rp55
(dp56
bag1
(g2
(I152
tp57
Rp58
(dp59
bg2
(I389
tp60
Rp61
(dp62
btp63
Rp64
(dp65
bag1
(g2
(I115
tp66
Rp67
(dp68
bg2
(I327
tp69
Rp70
(dp71
btp72
Rp73
(dp74
bag1
(g2
(I995
tp75
Rp76
(dp77
bg2
(I430
tp78
Rp79
(dp80
btp81
Rp82
(dp83
bag1
(g2
(I419
tp84
Rp85
(dp86
bg2
(I891
tp87
Rp88
(dp89
btp90
Rp91
(dp92
bag1
(g2
(I324
tp93
Rp94
(dp95
bg2
(I632
tp96
Rp97
(dp98
btp99
Rp100
(dp101
bag1
(g2
(I735
tp102
Rp103
(dp104
bg2
(I455
tp105
Rp106
(dp107
btp108
Rp109
(dp110
bag1
(g2
(I58
tp111
Rp112
(dp113
bg2
(I925
tp114
Rp115
(dp116
btp117
Rp118
(dp119
bag1
(g2
(I943
tp120
Rp121
(dp122
bg2
(I211
tp123
Rp124
(dp125
btp126
Rp127
(dp128
bag1
(g2
(I934
tp129
Rp130
(dp131
bg2
(I410
tp132
Rp133
(dp134
btp135
Rp136
(dp137
bag1
(g2
(I475
tp138
Rp139
(dp140
bg2
(I164
tp141
Rp142
(dp143
btp144
Rp145
(dp146
bag1
(g2
(I205
tp147
Rp148
(dp149
bg2
(I369
tp150
Rp151
(dp152
btp153
Rp154
(dp155
bag1
(g2
(I518
tp156
Rp157
(dp158
bg2
(I926
tp159
Rp160
(dp161
btp162
Rp163
(dp164
bag1
(g2
(I617
tp165
Rp166
(dp167
bg2
(I325
tp168
Rp169
(dp170
btp171
Rp172
(dp173
bag1
(g2
(I357
tp174
Rp175
(dp176
bg2
(I477
tp177
Rp178
(dp179
btp180
Rp181
(dp182
bag1
(g2
(I384
tp183
Rp184
(dp185
bg2
(I144
tp186
Rp187
(dp188
btp189
Rp190
(dp191
bag1
(g2
(I954
tp192
Rp193
(dp194
bg2
(I603
tp195
Rp196
(dp197
btp198
Rp199
(dp200
bag1
(g2
(I532
tp201
Rp202
(dp203
bg2
(I179
tp204
Rp205
(dp206
btp207
Rp208
(dp209
bag1
(g2
(I397
tp210
Rp211
(dp212
bg2
(I951
tp213
Rp214
(dp215
btp216
Rp217
(dp218
bag1
(g2
(I499
tp219
Rp220
(dp221
bg2
(I458
tp222
Rp223
(dp224
btp225
Rp226
(dp227
bag1
(g2
(I228
tp228
Rp229
(dp230
bg2
(I961
tp231
Rp232
(dp233
btp234
Rp235
(dp236
bag1
(g2
(I663
tp237
Rp238
(dp239
bg2
(I514
tp240
Rp241
(dp242
btp243
Rp244
(dp245
bag1
(g2
(I175
tp246
Rp247
(dp248
bg2
(I981
tp249
Rp250
(dp251
btp252
Rp253
(dp254
bag1
(g2
(I244
tp255
Rp256
(dp257
bg2
(I37
tp258
Rp259
(dp260
btp261
Rp262
(dp263
bag1
(g2
(I229
tp264
Rp265
(dp266
bg2
(I769
tp267
Rp268
(dp269
btp270
Rp271
(dp272
bag1
(g2
(I320
tp273
Rp274
(dp275
bg2
(I310
tp276
Rp277
(dp278
btp279
Rp280
(dp281
bag1
(g2
(I851
tp282
Rp283
(dp284
bg2
(I126
tp285
Rp286
(dp287
btp288
Rp289
(dp290
bag1
(g2
(I622
tp291
Rp292
(dp293
bg2
(I223
tp294
Rp295
(dp296
btp297
Rp298
(dp299
bag1
(g2
(I198
tp300
Rp301
(dp302
bg2
(I370
tp303
Rp304
(dp305
btp306
Rp307
(dp308
bag1
(g2
(I52
tp309
Rp310
(dp311
bg2
(I819
tp312
Rp313
(dp314
btp315
Rp316
(dp317
bag1
(g2
(I660
tp318
Rp319
(dp320
bg2
(I146
tp321
Rp322
(dp323
btp324
Rp325
(dp326
bag1
(g232
g2
(I405
tp327
Rp328
(dp329
btp330
Rp331
(dp332
bag1
(g2
(I574
tp333
Rp334
(dp335
bg2
(I4
tp336
Rp337
(dp338
btp339
Rp340
(dp341
bag1
(g2
(I524
tp342
Rp343
(dp344
bg2
(I847
tp345
Rp346
(dp347
btp348
Rp349
(dp350
bag1
(g2
(I109
tp351
Rp352
(dp353
bg2
(I380
tp354
Rp355
(dp356
btp357
Rp358
(dp359
bag1
(g2
(I744
tp360
Rp361
(dp362
bg2
(I134
tp363
Rp364
(dp365
btp366
Rp367
(dp368
bag1
(g2
(I200
tp369
Rp370
(dp371
bg2
(I772
tp372
Rp373
(dp374
btp375
Rp376
(dp377
bag1
(g2
(I656
tp378
Rp379
(dp380
bg2
(I86
tp381
Rp382
(dp383
btp384
Rp385
(dp386
bag1
(g2
(I789
tp387
Rp388
(dp389
bg2
(I495
tp390
Rp391
(dp392
btp393
Rp394
(dp395
bag1
(g2
(I528
tp396
Rp397
(dp398
bg2
(I234
tp399
Rp400
(dp401
btp402
Rp403
(dp404
bag1
(g2
(I16
tp405
Rp406
(dp407
bg2
(I504
tp408
Rp409
(dp410
btp411
Rp412
(dp413
bag1
(g2
(I787
tp414
Rp415
(dp416
bg2
(I181
tp417
Rp418
(dp419
btp420
Rp421
(dp422
bag1
(g2
(I798
tp423
Rp424
(dp425
bg2
(I207
tp426
Rp427
(dp428
btp429
Rp430
(dp431
bag1
(g2
(I543
tp432
Rp433
(dp434
bg2
(I876
tp435
Rp436
(dp437
btp438
Rp439
(dp440
bag1
(g409
g157
tp441
Rp442
(dp443
bag1
(g214
g2
(I62
tp444
Rp445
(dp446
btp447
Rp448
(dp449
bag1
(g373
g2
(I396
tp450
Rp451
(dp452
btp453
Rp454
(dp455
bag1
(g259
g2
(I949
tp456
Rp457
(dp458
btp459
Rp460
(dp461
bag1
(g2
(I139
tp462
Rp463
(dp464
bg2
(I750
tp465
Rp466
(dp467
btp468
Rp469
(dp470
bag1
(g2
(I30
tp471
Rp472
(dp473
bg2
(I263
tp474
Rp475
(dp476
btp477
Rp478
(dp479
bag1
(g2
(I935
tp480
Rp481
(dp482
bg2
(I313
tp483
Rp484
(dp485
btp486
Rp487
(dp488
bag1
(g205
g2
(I644
tp489
Rp490
(dp491
btp492
Rp493
(dp494
bag1
(g2
(I485
tp495
Rp496
(dp497
bg2
(I195
tp498
Rp499
(dp500
btp501
Rp502
(dp503
bag1
(g2
(I40
tp504
Rp505
(dp506
bg2
(I315
tp507
Rp508
(dp509
btp510
Rp511
(dp512
bag1
(g2
(I507
tp513
Rp514
(dp515
bg2
(I618
tp516
Rp517
(dp518
btp519
Rp520
(dp521
bag1
(g2
(I196
tp522
Rp523
(dp524
bg2
(I807
tp525
Rp526
(dp527
btp528
Rp529
(dp530
bag1
(g2
(I338
tp531
Rp532
(dp533
bg2
(I526
tp534
Rp535
(dp536
btp537
Rp538
(dp539
bag1
(g2
(I448
tp540
Rp541
(dp542
bg2
(I122
tp543
Rp544
(dp545
btp546
Rp547
(dp548
bag1
(g2
(I259
tp549
Rp550
(dp551
bg2
(I994
tp552
Rp553
(dp554
btp555
Rp556
(dp557
bag1
(g484
g2
(I927
tp558
Rp559
(dp560
btp561
Rp562
(dp563
bag1
(g2
(I276
tp564
Rp565
(dp566
bg2
(I227
tp567
Rp568
(dp569
btp570
Rp571
(dp572
bag1
(g2
(I206
tp573
Rp574
(dp575
bg2
(I559
tp576
Rp577
(dp578
btp579
Rp580
(dp581
bag1
(g2
(I90
tp582
Rp583
(dp584
bg2
(I566
tp585
Rp586
(dp587
btp588
Rp589
(dp590
bag1
(g2
(I801
tp591
Rp592
(dp593
bg2
(I102
tp594
Rp595
(dp596
btp597
Rp598
(dp599
bag1
(g2
(I897
tp600
Rp601
(dp602
bg2
(I105
tp603
Rp604
(dp605
btp606
Rp607
(dp608
bag1
(g2
(I329
tp609
Rp610
(dp611
bg2
(I923
tp612
Rp613
(dp614
btp615
Rp616
(dp617
bag1
(g2
(I178
tp618
Rp619
(dp620
bg2
(I598
tp621
Rp622
(dp623
btp624
Rp625
(dp626
bag1
(g553
g2
(I662
tp627
Rp628
(dp629
btp630
Rp631
(dp632
bag1
(g2
(I958
tp633
Rp634
(dp635
bg2
(I874
tp636
Rp637
(dp638
btp639
Rp640
(dp641
bag1
(g2
(I127
tp642
Rp643
(dp644
bg2
(I130
tp645
Rp646
(dp647
btp648
Rp649
(dp650
bag1
(g2
(I957
tp651
Rp652
(dp653
bg2
(I11
tp654
Rp655
(dp656
btp657
Rp658
(dp659
bag1
(g2
(I782
tp660
Rp661
(dp662
bg2
(I767
tp663
Rp664
(dp665
btp666
Rp667
(dp668
bag1
(g2
(I523
tp669
Rp670
(dp671
bg2
(I426
tp672
Rp673
(dp674
btp675
Rp676
(dp677
bag1
(g2
(I32
tp678
Rp679
(dp680
bg2
(I849
tp681
Rp682
(dp683
btp684
Rp685
(dp686
bag1
(g2
(I88
tp687
Rp688
(dp689
bg2
(I99
tp690
Rp691
(dp692
btp693
Rp694
(dp695
bag1
(g2
(I414
tp696
Rp697
(dp698
bg2
(I834
tp699
Rp700
(dp701
btp702
Rp703
(dp704
bag1
(g2
(I646
tp705
Rp706
(dp707
bg2
(I911
tp708
Rp709
(dp710
btp711
Rp712
(dp713
bag1
(g2
(I723
tp714
Rp715
(dp716
bg2
(I413
tp717
Rp718
(dp719
btp720
Rp721
(dp722
bag1
(g2
(I830
tp723
Rp724
(dp725
bg2
(I690
tp726
Rp727
(dp728
btp729
Rp730
(dp731
bag1
(g2
(I738
tp732
Rp733
(dp734
bg2
(I437
tp735
Rp736
(dp737
btp738
Rp739
(dp740
bag1
(g2
(I132
tp741
Rp742
(dp743
bg2
(I894
tp744
Rp745
(dp746
btp747
Rp748
(dp749
bag1
(g2
(I445
tp750
Rp751
(dp752
bg424
tp753
Rp754
(dp755
bag1
(g2
(I521
tp756
Rp757
(dp758
bg2
(I201
tp759
Rp760
(dp761
btp762
Rp763
(dp764
bag1
(g595
g2
(I150
tp765
Rp766
(dp767
btp768
Rp769
(dp770
bag1
(g2
(I56
tp771
Rp772
(dp773
bg2
(I323
tp774
Rp775
(dp776
btp777
Rp778
(dp779
bag1
(g2
(I720
tp780
Rp781
(dp782
bg2
(I73
tp783
Rp784
(dp785
btp786
Rp787
(dp788
bag1
(g2
(I439
tp789
Rp790
(dp791
bg2
(I728
tp792
Rp793
(dp794
btp795
Rp796
(dp797
bag1
(g2
(I381
tp798
Rp799
(dp800
bg2
(I42
tp801
Rp802
(dp803
btp804
Rp805
(dp806
bag1
(g2
(I503
tp807
Rp808
(dp809
bg2
(I586
tp810
Rp811
(dp812
btp813
Rp814
(dp815
bag1
(g2
(I595
tp816
Rp817
(dp818
bg2
(I828
tp819
Rp820
(dp821
btp822
Rp823
(dp824
bag1
(g2
(I687
tp825
Rp826
(dp827
bg2
(I408
tp828
Rp829
(dp830
btp831
Rp832
(dp833
bag1
(g2
(I966
tp834
Rp835
(dp836
bg2
(I761
tp837
Rp838
(dp839
btp840
Rp841
(dp842
bag1
(g673
g2
(I881
tp843
Rp844
(dp845
btp846
Rp847
(dp848
bag1
(g2
(I573
tp849
Rp850
(dp851
bg2
(I243
tp852
Rp853
(dp854
btp855
Rp856
(dp857
bag1
(g2
(I824
tp858
Rp859
(dp860
bg790
tp861
Rp862
(dp863
bag1
(g2
(I446
tp864
Rp865
(dp866
bg2
(I688
tp867
Rp868
(dp869
btp870
Rp871
(dp872
bag1
(g2
(I398
tp873
Rp874
(dp875
bg2
(I578
tp876
Rp877
(dp878
btp879
Rp880
(dp881
bag1
(g2
(I421
tp882
Rp883
(dp884
bg2
(I698
tp885
Rp886
(dp887
btp888
Rp889
(dp890
bag1
(g2
(I917
tp891
Rp892
(dp893
bg247
tp894
Rp895
(dp896
bag1
(g2
(I975
tp897
Rp898
(dp899
bg2
(I838
tp900
Rp901
(dp902
btp903
Rp904
(dp905
bag1
(g2
(I918
tp906
Rp907
(dp908
bg2
(I812
tp909
Rp910
(dp911
btp912
Rp913
(dp914
bag1
(g2
(I161
tp915
Rp916
(dp917
bg2
(I652
tp918
Rp919
(dp920
btp921
Rp922
(dp923
bag1
(g2
(I157
tp924
Rp925
(dp926
bg2
(I376
tp927
Rp928
(dp929
btp930
Rp931
(dp932
bag1
(g2
(I944
tp933
Rp934
(dp935
bg2
(I718
tp936
Rp937
(dp938
btp939
Rp940
(dp941
bag1
(g2
(I297
tp942
Rp943
(dp944
bg2
(I82
tp945
Rp946
(dp947
btp948
Rp949
(dp950
bag1
(g2
(I844
tp951
Rp952
(dp953
bg724
tp954
Rp955
(dp956
bag1
(g868
g2
(I453
tp957
Rp958
(dp959
btp960
Rp961
(dp962
bag1
(g2
(I860
tp963
Rp964
(dp965
bg2
(I571
tp966
Rp967
(dp968
btp969
Rp970
(dp971
bag1
(g2
(I300
tp972
Rp973
(dp974
bg2
(I12
tp975
Rp976
(dp977
btp978
Rp979
(dp980
bag1
(g2
(I602
tp981
Rp982
(dp983
bg2
(I373
tp984
Rp985
(dp986
btp987
Rp988
(dp989
bag1
(g2
(I587
tp990
Rp991
(dp992
bg2
(I567
tp993
Rp994
(dp995
btp996
Rp997
(dp998
bag1
(g2
(I493
tp999
Rp1000
(dp1001
bg2
(I635
tp1002
Rp1003
(dp1004
btp1005
Rp1006
(dp1007
bag1
(g2
(I28
tp1008
Rp1009
(dp1010
bg2
(I456
tp1011
Rp1012
(dp1013
btp1014
Rp1015
(dp1016
bag1
(g2
(I706
tp1017
Rp1018
(dp1019
bg2
(I46
tp1020
Rp1021
(dp1022
btp1023
Rp1024
(dp1025
bag1
(g2
(I861
tp1026
Rp1027
(dp1028
bg2
(I498
tp1029
Rp1030
(dp1031
btp1032
Rp1033
(dp1034
bag1
(g2
(I588
tp1035
Rp1036
(dp1037
bg2
(I444
tp1038
Rp1039
(dp1040
btp1041
Rp1042
(dp1043
bag1
(g2
(I691
tp1044
Rp1045
(dp1046
bg2
(I681
tp1047
Rp1048
(dp1049
btp1050
Rp1051
(dp1052
bag1
(g2
(I452
tp1053
Rp1054
(dp1055
bg2
(I418
tp1056
Rp1057
(dp1058
btp1059
Rp1060
(dp1061
bag1
(g2
(I65
tp1062
Rp1063
(dp1064
bg310
tp1065
Rp1066
(dp1067
bag1
(g2
(I367
tp1068
Rp1069
(dp1070
bg2
(I308
tp1071
Rp1072
(dp1073
btp1074
Rp1075
(dp1076
bag1
(g2
(I705
tp1077
Rp1078
(dp1079
bg2
(I986
tp1080
Rp1081
(dp1082
btp1083
Rp1084
(dp1085
bag1
(g2
(I699
tp1086
Rp1087
(dp1088
bg2
(I108
tp1089
Rp1090
(dp1091
btp1092
Rp1093
(dp1094
bag1
(g2
(I636
tp1095
Rp1096
(dp1097
bg370
tp1098
Rp1099
(dp1100
bag1
(g2
(I390
tp1101
Rp1102
(dp1103
bg2
(I658
tp1104
Rp1105
(dp1106
btp1107
Rp1108
(dp1109
bag1
(g25
g2
(I441
tp1110
Rp1111
(dp1112
btp1113
Rp1114
(dp1115
bag1
(g2
(I870
tp1116
Rp1117
(dp1118
bg2
(I275
tp1119
Rp1120
(dp1121
btp1122
Rp1123
(dp1124
bag1
(g277
g2
(I771
tp1125
Rp1126
(dp1127
btp1128
Rp1129
(dp1130
bag1
(g1111
g2
(I270
tp1131
Rp1132
(dp1133
btp1134
Rp1135
(dp1136
bag1
(g2
(I318
tp1137
Rp1138
(dp1139
bg2
(I319
tp1140
Rp1141
(dp1142
btp1143
Rp1144
(dp1145
bag1
(g2
(I66
tp1146
Rp1147
(dp1148
bg2
(I659
tp1149
Rp1150
(dp1151
btp1152
Rp1153
(dp1154
bag1
(g2
(I959
tp1155
Rp1156
(dp1157
bg2
(I488
tp1158
Rp1159
(dp1160
btp1161
Rp1162
(dp1163
bag1
(g1003
g2
(I693
tp1164
Rp1165
(dp1166
btp1167
Rp1168
(dp1169
bag1
(g2
(I583
tp1170
Rp1171
(dp1172
bg2
(I411
tp1173
Rp1174
(dp1175
btp1176
Rp1177
(dp1178
bag1
(g994
g2
(I451
tp1179
Rp1180
(dp1181
btp1182
Rp1183
(dp1184
bag1
(g2
(I633
tp1185
Rp1186
(dp1187
bg2
(I272
tp1188
Rp1189
(dp1190
btp1191
Rp1192
(dp1193
bag1
(g2
(I269
tp1194
Rp1195
(dp1196
bg2
(I235
tp1197
Rp1198
(dp1199
btp1200
Rp1201
(dp1202
bag1
(g2
(I245
tp1203
Rp1204
(dp1205
bg2
(I402
tp1206
Rp1207
(dp1208
btp1209
Rp1210
(dp1211
bag1
(g2
(I386
tp1212
Rp1213
(dp1214
bg2
(I352
tp1215
Rp1216
(dp1217
btp1218
Rp1219
(dp1220
bag1
(g2
(I387
tp1221
Rp1222
(dp1223
bg2
(I189
tp1224
Rp1225
(dp1226
btp1227
Rp1228
(dp1229
bag1
(g2
(I183
tp1230
Rp1231
(dp1232
bg2
(I972
tp1233
Rp1234
(dp1235
btp1236
Rp1237
(dp1238
bag1
(g2
(I91
tp1239
Rp1240
(dp1241
bg1171
tp1242
Rp1243
(dp1244
bag1
(g2
(I271
tp1245
Rp1246
(dp1247
bg2
(I131
tp1248
Rp1249
(dp1250
btp1251
Rp1252
(dp1253
bag1
(g43
g2
(I850
tp1254
Rp1255
(dp1256
btp1257
Rp1258
(dp1259
bag1
(g2
(I670
tp1260
Rp1261
(dp1262
bg2
(I256
tp1263
Rp1264
(dp1265
btp1266
Rp1267
(dp1268
bag1
(g2
(I246
tp1269
Rp1270
(dp1271
bg982
tp1272
Rp1273
(dp1274
bag1
(g2
(I238
tp1275
Rp1276
(dp1277
bg973
tp1278
Rp1279
(dp1280
bag1
(g2
(I809
tp1281
Rp1282
(dp1283
bg2
(I467
tp1284
Rp1285
(dp1286
btp1287
Rp1288
(dp1289
bag1
(g2
(I605
tp1290
Rp1291
(dp1292
bg121
tp1293
Rp1294
(dp1295
bag1
(g2
(I763
tp1296
Rp1297
(dp1298
bg2
(I625
tp1299
Rp1300
(dp1301
btp1302
Rp1303
(dp1304
bag1
(g2
(I890
tp1305
Rp1306
(dp1307
bg2
(I374
tp1308
Rp1309
(dp1310
btp1311
Rp1312
(dp1313
bag1
(g313
g2
(I781
tp1314
Rp1315
(dp1316
btp1317
Rp1318
(dp1319
bag1
(g2
(I520
tp1320
Rp1321
(dp1322
bg2
(I916
tp1323
Rp1324
(dp1325
btp1326
Rp1327
(dp1328
bag1
(g2
(I368
tp1329
Rp1330
(dp1331
bg2
(I216
tp1332
Rp1333
(dp1334
btp1335
Rp1336
(dp1337
bag1
(g2
(I922
tp1338
Rp1339
(dp1340
bg2
(I869
tp1341
Rp1342
(dp1343
btp1344
Rp1345
(dp1346
bag1
(g2
(I89
tp1347
Rp1348
(dp1349
bg2
(I171
tp1350
Rp1351
(dp1352
btp1353
Rp1354
(dp1355
bag1
(g241
g2
(I751
tp1356
Rp1357
(dp1358
btp1359
Rp1360
(dp1361
bag1
(g2
(I482
tp1362
Rp1363
(dp1364
bg2
(I277
tp1365
Rp1366
(dp1367
btp1368
Rp1369
(dp1370
bag1
(g2
(I103
tp1371
Rp1372
(dp1373
bg2
(I106
tp1374
Rp1375
(dp1376
btp1377
Rp1378
(dp1379
bag1
(g2
(I429
tp1380
Rp1381
(dp1382
bg2
(I222
tp1383
Rp1384
(dp1385
btp1386
Rp1387
(dp1388
bag1
(g2
(I606
tp1389
Rp1390
(dp1391
bg2
(I971
tp1392
Rp1393
(dp1394
btp1395
Rp1396
(dp1397
bag1
(g2
(I128
tp1398
Rp1399
(dp1400
bg2
(I796
tp1401
Rp1402
(dp1403
btp1404
Rp1405
(dp1406
bag1
(g2
(I450
tp1407
Rp1408
(dp1409
bg2
(I579
tp1410
Rp1411
(dp1412
btp1413
Rp1414
(dp1415
bag1
(g2
(I480
tp1416
Rp1417
(dp1418
bg1045
tp1419
Rp1420
(dp1421
bag1
(g2
(I730
tp1422
Rp1423
(dp1424
bg2
(I939
tp1425
Rp1426
(dp1427
btp1428
Rp1429
(dp1430
bag1
(g2
(I98
tp1431
Rp1432
(dp1433
bg2
(I343
tp1434
Rp1435
(dp1436
btp1437
Rp1438
(dp1439
bag1
(g2
(I71
tp1440
Rp1441
(dp1442
bg2
(I946
tp1443
Rp1444
(dp1445
btp1446
Rp1447
(dp1448
bag1
(g2
(I841
tp1449
Rp1450
(dp1451
bg2
(I619
tp1452
Rp1453
(dp1454
btp1455
Rp1456
(dp1457
bag1
(g2
(I501
tp1458
Rp1459
(dp1460
bg2
(I591
tp1461
Rp1462
(dp1463
btp1464
Rp1465
(dp1466
bag1
(g2
(I432
tp1467
Rp1468
(dp1469
bg2
(I601
tp1470
Rp1471
(dp1472
btp1473
Rp1474
(dp1475
bag1
(g2
(I167
tp1476
Rp1477
(dp1478
bg2
(I565
tp1479
Rp1480
(dp1481
btp1482
Rp1483
(dp1484
bag1
(g622
g2
(I715
tp1485
Rp1486
(dp1487
btp1488
Rp1489
(dp1490
bag1
(g2
(I77
tp1491
Rp1492
(dp1493
bg2
(I449
tp1494
Rp1495
(dp1496
btp1497
Rp1498
(dp1499
bag1
(g2
(I404
tp1500
Rp1501
(dp1502
bg2
(I855
tp1503
Rp1504
(dp1505
btp1506
Rp1507
(dp1508
bag1
(g2
(I149
tp1509
Rp1510
(dp1511
bg523
tp1512
Rp1513
(dp1514
bag1
(g2
(I294
tp1515
Rp1516
(dp1517
bg2
(I202
tp1518
Rp1519
(dp1520
btp1521
Rp1522
(dp1523
bag1
(g2
(I848
tp1524
Rp1525
(dp1526
bg2
(I731
tp1527
Rp1528
(dp1529
btp1530
Rp1531
(dp1532
bag1
(g2
(I936
tp1533
Rp1534
(dp1535
bg2
(I160
tp1536
Rp1537
(dp1538
btp1539
Rp1540
(dp1541
bag1
(g886
g2
(I174
tp1542
Rp1543
(dp1544
btp1545
Rp1546
(dp1547
bag1
(g2
(I55
tp1548
Rp1549
(dp1550
bg2
(I80
tp1551
Rp1552
(dp1553
btp1554
Rp1555
(dp1556
bag1
(g346
g94
tp1557
Rp1558
(dp1559
bag1
(g2
(I345
tp1560
Rp1561
(dp1562
bg2
(I582
tp1563
Rp1564
(dp1565
btp1566
Rp1567
(dp1568
bag1
(g2
(I470
tp1569
Rp1570
(dp1571
bg2
(I678
tp1572
Rp1573
(dp1574
btp1575
Rp1576
(dp1577
bag1
(g2
(I726
tp1578
Rp1579
(dp1580
bg2
(I977
tp1581
Rp1582
(dp1583
btp1584
Rp1585
(dp1586
bag1
(g2
(I889
tp1587
Rp1588
(dp1589
bg2
(I908
tp1590
Rp1591
(dp1592
btp1593
Rp1594
(dp1595
bag1
(g2
(I137
tp1596
Rp1597
(dp1598
bg2
(I953
tp1599
Rp1600
(dp1601
btp1602
Rp1603
(dp1604
bag1
(g2
(I624
tp1605
Rp1606
(dp1607
bg2
(I857
tp1608
Rp1609
(dp1610
btp1611
Rp1612
(dp1613
bag1
(g1264
g2
(I862
tp1614
Rp1615
(dp1616
btp1617
Rp1618
(dp1619
bag1
(g295
g2
(I208
tp1620
Rp1621
(dp1622
btp1623
Rp1624
(dp1625
bag1
(g2
(I260
tp1626
Rp1627
(dp1628
bg2
(I539
tp1629
Rp1630
(dp1631
btp1632
Rp1633
(dp1634
bag1
(g1141
g2
(I355
tp1635
Rp1636
(dp1637
btp1638
Rp1639
(dp1640
bag1
(g2
(I645
tp1641
Rp1642
(dp1643
bg2
(I778
tp1644
Rp1645
(dp1646
btp1647
Rp1648
(dp1649
bag1
(g2
(I833
tp1650
Rp1651
(dp1652
bg2
(I553
tp1653
Rp1654
(dp1655
btp1656
Rp1657
(dp1658
bag1
(g2
(I143
tp1659
Rp1660
(dp1661
bg2
(I942
tp1662
Rp1663
(dp1664
btp1665
Rp1666
(dp1667
bag1
(g2
(I686
tp1668
Rp1669
(dp1670
bg2
(I483
tp1671
Rp1672
(dp1673
btp1674
Rp1675
(dp1676
bag1
(g784
g1468
tp1677
Rp1678
(dp1679
bag1
(g2
(I312
tp1680
Rp1681
(dp1682
bg2
(I816
tp1683
Rp1684
(dp1685
btp1686
Rp1687
(dp1688
bag1
(g2
(I403
tp1689
Rp1690
(dp1691
bg2
(I119
tp1692
Rp1693
(dp1694
btp1695
Rp1696
(dp1697
bag1
(g2
(I615
tp1698
Rp1699
(dp1700
bg2
(I689
tp1701
Rp1702
(dp1703
btp1704
Rp1705
(dp1706
bag1
(g2
(I719
tp1707
Rp1708
(dp1709
bg1291
tp1710
Rp1711
(dp1712
bag1
(g2
(I963
tp1713
Rp1714
(dp1715
bg2
(I24
tp1716
Rp1717
(dp1718
btp1719
Rp1720
(dp1721
bag1
(g2
(I22
tp1722
Rp1723
(dp1724
bg2
(I947
tp1725
Rp1726
(dp1727
btp1728
Rp1729
(dp1730
bag1
(g2
(I978
tp1731
Rp1732
(dp1733
bg1381
tp1734
Rp1735
(dp1736
bag1
(g2
(I435
tp1737
Rp1738
(dp1739
bg2
(I530
tp1740
Rp1741
(dp1742
btp1743
Rp1744
(dp1745
bag1
(g2
(I45
tp1746
Rp1747
(dp1748
bg2
(I20
tp1749
Rp1750
(dp1751
btp1752
Rp1753
(dp1754
bag1
(g2
(I749
tp1755
Rp1756
(dp1757
bg2
(I304
tp1758
Rp1759
(dp1760
btp1761
Rp1762
(dp1763
bag1
(g2
(I173
tp1764
Rp1765
(dp1766
bg2
(I213
tp1767
Rp1768
(dp1769
btp1770
Rp1771
(dp1772
bag1
(g718
g2
(I709
tp1773
Rp1774
(dp1775
btp1776
Rp1777
(dp1778
bag1
(g391
g2
(I64
tp1779
Rp1780
(dp1781
btp1782
Rp1783
(dp1784
bag1
(g2
(I825
tp1785
Rp1786
(dp1787
bg2
(I342
tp1788
Rp1789
(dp1790
btp1791
Rp1792
(dp1793
bag1
(g2
(I433
tp1794
Rp1795
(dp1796
bg1642
tp1797
Rp1798
(dp1799
bag1
(g2
(I302
tp1800
Rp1801
(dp1802
bg2
(I765
tp1803
Rp1804
(dp1805
btp1806
Rp1807
(dp1808
bag1
(g2
(I215
tp1809
Rp1810
(dp1811
bg2
(I702
tp1812
Rp1813
(dp1814
btp1815
Rp1816
(dp1817
bag1
(g2
(I805
tp1818
Rp1819
(dp1820
bg2
(I910
tp1821
Rp1822
(dp1823
btp1824
Rp1825
(dp1826
bag1
(g2
(I899
tp1827
Rp1828
(dp1829
bg610
tp1830
Rp1831
(dp1832
bag1
(g2
(I382
tp1833
Rp1834
(dp1835
bg532
tp1836
Rp1837
(dp1838
bag1
(g2
(I672
tp1839
Rp1840
(dp1841
bg2
(I138
tp1842
Rp1843
(dp1844
btp1845
Rp1846
(dp1847
bag1
(g52
g2
(I447
tp1848
Rp1849
(dp1850
btp1851
Rp1852
(dp1853
bag1
(g2
(I846
tp1854
Rp1855
(dp1856
bg2
(I236
tp1857
Rp1858
(dp1859
btp1860
Rp1861
(dp1862
bag1
(g2
(I391
tp1863
Rp1864
(dp1865
bg2
(I296
tp1866
Rp1867
(dp1868
btp1869
Rp1870
(dp1871
bag1
(g2
(I284
tp1872
Rp1873
(dp1874
bg2
(I15
tp1875
Rp1876
(dp1877
btp1878
Rp1879
(dp1880
bag1
(g628
g2
(I136
tp1881
Rp1882
(dp1883
btp1884
Rp1885
(dp1886
bag1
(g2
(I609
tp1887
Rp1888
(dp1889
bg2
(I883
tp1890
Rp1891
(dp1892
btp1893
Rp1894
(dp1895
bag1
(g2
(I770
tp1896
Rp1897
(dp1898
bg2
(I328
tp1899
Rp1900
(dp1901
btp1902
Rp1903
(dp1904
bag1
(g2
(I759
tp1905
Rp1906
(dp1907
bg2
(I162
tp1908
Rp1909
(dp1910
btp1911
Rp1912
(dp1913
bag1
(g1867
g2
(I648
tp1914
Rp1915
(dp1916
btp1917
Rp1918
(dp1919
bag1
(g2
(I865
tp1920
Rp1921
(dp1922
bg2
(I784
tp1923
Rp1924
(dp1925
btp1926
Rp1927
(dp1928
bag1
(g1426
g2
(I989
tp1929
Rp1930
(dp1931
btp1932
Rp1933
(dp1934
bag1
(g2
(I982
tp1935
Rp1936
(dp1937
bg2
(I919
tp1938
Rp1939
(dp1940
btp1941
Rp1942
(dp1943
bag1
(g2
(I409
tp1944
Rp1945
(dp1946
bg2
(I708
tp1947
Rp1948
(dp1949
btp1950
Rp1951
(dp1952
bag1
(g2
(I27
tp1953
Rp1954
(dp1955
bg2
(I289
tp1956
Rp1957
(dp1958
btp1959
Rp1960
(dp1961
bag1
(g1915
g2
(I590
tp1962
Rp1963
(dp1964
btp1965
Rp1966
(dp1967
bag1
(g2
(I407
tp1968
Rp1969
(dp1970
bg2
(I474
tp1971
Rp1972
(dp1973
btp1974
Rp1975
(dp1976
bag1
(g2
(I647
tp1977
Rp1978
(dp1979
bg1795
tp1980
Rp1981
(dp1982
bag1
(g2
(I608
tp1983
Rp1984
(dp1985
bg1681
tp1986
Rp1987
(dp1988
bag1
(g2
(I696
tp1989
Rp1990
(dp1991
bg2
(I797
tp1992
Rp1993
(dp1994
btp1995
Rp1996
(dp1997
bag1
(g2
(I665
tp1998
Rp1999
(dp2000
bg2
(I220
tp2001
Rp2002
(dp2003
btp2004
Rp2005
(dp2006
bag1
(g2
(I737
tp2007
Rp2008
(dp2009
bg472
tp2010
Rp2011
(dp2012
bag1
(g2
(I634
tp2013
Rp2014
(dp2015
bg2
(I395
tp2016
Rp2017
(dp2018
btp2019
Rp2020
(dp2021
bag1
(g967
g1348
tp2022
Rp2023
(dp2024
bag1
(g2
(I831
tp2025
Rp2026
(dp2027
bg2
(I729
tp2028
Rp2029
(dp2030
btp2031
Rp2032
(dp2033
bag1
(g2
(I902
tp2034
Rp2035
(dp2036
bg2
(I802
tp2037
Rp2038
(dp2039
btp2040
Rp2041
(dp2042
bag1
(g2
(I67
tp2043
Rp2044
(dp2045
bg2
(I853
tp2046
Rp2047
(dp2048
btp2049
Rp2050
(dp2051
bag1
(g2
(I835
tp2052
Rp2053
(dp2054
bg2
(I412
tp2055
Rp2056
(dp2057
btp2058
Rp2059
(dp2060
bag1
(g2
(I758
tp2061
Rp2062
(dp2063
bg2
(I821
tp2064
Rp2065
(dp2066
btp2067
Rp2068
(dp2069
bag1
(g1564
g1156
tp2070
Rp2071
(dp2072
bag1
(g1375
g2
(I210
tp2073
Rp2074
(dp2075
btp2076
Rp2077
(dp2078
bag1
(g2
(I549
tp2079
Rp2080
(dp2081
bg103
tp2082
Rp2083
(dp2084
bag1
(g2
(I570
tp2085
Rp2086
(dp2087
bg2
(I18
tp2088
Rp2089
(dp2090
btp2091
Rp2092
(dp2093
bag1
(g1750
g2
(I120
tp2094
Rp2095
(dp2096
btp2097
Rp2098
(dp2099
bag1
(g2
(I976
tp2100
Rp2101
(dp2102
bg2
(I14
tp2103
Rp2104
(dp2105
btp2106
Rp2107
(dp2108
bag1
(g1159
g2
(I311
tp2109
Rp2110
(dp2111
btp2112
Rp2113
(dp2114
bag1
(g2
(I354
tp2115
Rp2116
(dp2117
bg2
(I39
tp2118
Rp2119
(dp2120
btp2121
Rp2122
(dp2123
bag1
(g2
(I863
tp2124
Rp2125
(dp2126
bg2
(I852
tp2127
Rp2128
(dp2129
btp2130
Rp2131
(dp2132
bag1
(g2
(I739
tp2133
Rp2134
(dp2135
bg2
(I643
tp2136
Rp2137
(dp2138
btp2139
Rp2140
(dp2141
bag1
(g2
(I901
tp2142
Rp2143
(dp2144
bg943
tp2145
Rp2146
(dp2147
bag1
(g2
(I903
tp2148
Rp2149
(dp2150
bg2
(I254
tp2151
Rp2152
(dp2153
btp2154
Rp2155
(dp2156
bag1
(g2
(I336
tp2157
Rp2158
(dp2159
bg2
(I305
tp2160
Rp2161
(dp2162
btp2163
Rp2164
(dp2165
bag1
(g2
(I757
tp2166
Rp2167
(dp2168
bg2
(I337
tp2169
Rp2170
(dp2171
btp2172
Rp2173
(dp2174
bag1
(g1453
g2
(I72
tp2175
Rp2176
(dp2177
btp2178
Rp2179
(dp2180
bag1
(g2
(I266
tp2181
Rp2182
(dp2183
bg2
(I950
tp2184
Rp2185
(dp2186
btp2187
Rp2188
(dp2189
bag1
(g2
(I47
tp2190
Rp2191
(dp2192
bg13
tp2193
Rp2194
(dp2195
bag1
(g2
(I733
tp2196
Rp2197
(dp2198
bg2143
tp2199
Rp2200
(dp2201
bag1
(g2
(I303
tp2202
Rp2203
(dp2204
bg2101
tp2205
Rp2206
(dp2207
bag1
(g2
(I5
tp2208
Rp2209
(dp2210
bg601
tp2211
Rp2212
(dp2213
bag1
(g2
(I611
tp2214
Rp2215
(dp2216
bg2
(I288
tp2217
Rp2218
(dp2219
btp2220
Rp2221
(dp2222
bag1
(g2
(I960
tp2223
Rp2224
(dp2225
bg2
(I339
tp2226
Rp2227
(dp2228
btp2229
Rp2230
(dp2231
bag1
(g1972
g2
(I928
tp2232
Rp2233
(dp2234
btp2235
Rp2236
(dp2237
bag1
(g2
(I914
tp2238
Rp2239
(dp2240
bg2
(I581
tp2241
Rp2242
(dp2243
btp2244
Rp2245
(dp2246
bag1
(g2
(I806
tp2247
Rp2248
(dp2249
bg334
tp2250
Rp2251
(dp2252
bag1
(g2
(I69
tp2253
Rp2254
(dp2255
bg2
(I372
tp2256
Rp2257
(dp2258
btp2259
Rp2260
(dp2261
bag1
(g2056
g2
(I473
tp2262
Rp2263
(dp2264
btp2265
Rp2266
(dp2267
bag1
(g586
g1297
tp2268
Rp2269
(dp2270
bag1
(g2
(I560
tp2271
Rp2272
(dp2273
bg883
tp2274
Rp2275
(dp2276
bag1
(g34
g2
(I3
tp2277
Rp2278
(dp2279
btp2280
Rp2281
(dp2282
bag1
(g2
(I326
tp2283
Rp2284
(dp2285
bg2
(I169
tp2286
Rp2287
(dp2288
btp2289
Rp2290
(dp2291
bag1
(g2
(I225
tp2292
Rp2293
(dp2294
bg2
(I541
tp2295
Rp2296
(dp2297
btp2298
Rp2299
(dp2300
bag1
(g2017
g2
(I783
tp2301
Rp2302
(dp2303
btp2304
Rp2305
(dp2306
bag1
(g2
(I193
tp2307
Rp2308
(dp2309
bg2
(I666
tp2310
Rp2311
(dp2312
btp2313
Rp2314
(dp2315
bag1
(g2
(I745
tp2316
Rp2317
(dp2318
bg2
(I468
tp2319
Rp2320
(dp2321
btp2322
Rp2323
(dp2324
bag1
(g1486
g2
(I766
tp2325
Rp2326
(dp2327
btp2328
Rp2329
(dp2330
bag1
(g2
(I717
tp2331
Rp2332
(dp2333
bg2
(I292
tp2334
Rp2335
(dp2336
btp2337
Rp2338
(dp2339
bag1
(g2
(I54
tp2340
Rp2341
(dp2342
bg2
(I533
tp2343
Rp2344
(dp2345
btp2346
Rp2347
(dp2348
bag1
(g2
(I983
tp2349
Rp2350
(dp2351
bg2
(I142
tp2352
Rp2353
(dp2354
btp2355
Rp2356
(dp2357
bag1
(g2
(I332
tp2358
Rp2359
(dp2360
bg2
(I346
tp2361
Rp2362
(dp2363
btp2364
Rp2365
(dp2366
bag1
(g2
(I340
tp2367
Rp2368
(dp2369
bg2
(I463
tp2370
Rp2371
(dp2372
btp2373
Rp2374
(dp2375
bag1
(g2
(I351
tp2376
Rp2377
(dp2378
bg1819
tp2379
Rp2380
(dp2381
bag1
(g2
(I182
tp2382
Rp2383
(dp2384
bg2
(I695
tp2385
Rp2386
(dp2387
btp2388
Rp2389
(dp2390
bag1
(g2
(I580
tp2391
Rp2392
(dp2393
bg2
(I309
tp2394
Rp2395
(dp2396
btp2397
Rp2398
(dp2399
bag1
(g2
(I438
tp2400
Rp2401
(dp2402
bg2
(I683
tp2403
Rp2404
(dp2405
btp2406
Rp2407
(dp2408
bag1
(g2
(I242
tp2409
Rp2410
(dp2411
bg2
(I732
tp2412
Rp2413
(dp2414
btp2415
Rp2416
(dp2417
bag1
(g322
g2
(I631
tp2418
Rp2419
(dp2420
btp2421
Rp2422
(dp2423
bag1
(g2
(I287
tp2424
Rp2425
(dp2426
bg2
(I768
tp2427
Rp2428
(dp2429
btp2430
Rp2431
(dp2432
bag1
(g2
(I43
tp2433
Rp2434
(dp2435
bg1321
tp2436
Rp2437
(dp2438
bag1
(g2
(I837
tp2439
Rp2440
(dp2441
bg166
tp2442
Rp2443
(dp2444
bag1
(g2
(I431
tp2445
Rp2446
(dp2447
bg40
tp2448
Rp2449
(dp2450
bag1
(g2
(I457
tp2451
Rp2452
(dp2453
bg1204
tp2454
Rp2455
(dp2456
bag1
(g178
g2
(I298
tp2457
Rp2458
(dp2459
btp2460
Rp2461
(dp2462
bag1
(g2
(I893
tp2463
Rp2464
(dp2465
bg2
(I909
tp2466
Rp2467
(dp2468
btp2469
Rp2470
(dp2471
bag1
(g1993
g2
(I59
tp2472
Rp2473
(dp2474
btp2475
Rp2476
(dp2477
bag1
(g436
g1999
tp2478
Rp2479
(dp2480
bag1
(g2
(I594
tp2481
Rp2482
(dp2483
bg892
tp2484
Rp2485
(dp2486
bag1
(g2
(I803
tp2487
Rp2488
(dp2489
bg2
(I394
tp2490
Rp2491
(dp2492
btp2493
Rp2494
(dp2495
bag1
(g2
(I900
tp2496
Rp2497
(dp2498
bg2
(I651
tp2499
Rp2500
(dp2501
btp2502
Rp2503
(dp2504
bag1
(g2
(I655
tp2505
Rp2506
(dp2507
bg2
(I679
tp2508
Rp2509
(dp2510
btp2511
Rp2512
(dp2513
bag1
(g1552
g1978
tp2514
Rp2515
(dp2516
bag1
(g2
(I542
tp2517
Rp2518
(dp2519
bg2026
tp2520
Rp2521
(dp2522
bag1
(g2
(I613
tp2523
Rp2524
(dp2525
bg2
(I281
tp2526
Rp2527
(dp2528
btp2529
Rp2530
(dp2531
bag1
(g1693
g2
(I94
tp2532
Rp2533
(dp2534
btp2535
Rp2536
(dp2537
bag1
(g1132
g1018
tp2538
Rp2539
(dp2540
bag1
(g445
g2
(I814
tp2541
Rp2542
(dp2543
btp2544
Rp2545
(dp2546
bag1
(g106
g2
(I2
tp2547
Rp2548
(dp2549
btp2550
Rp2551
(dp2552
bag1
(g2
(I383
tp2553
Rp2554
(dp2555
bg2
(I568
tp2556
Rp2557
(dp2558
btp2559
Rp2560
(dp2561
bag1
(g2
(I331
tp2562
Rp2563
(dp2564
bg952
tp2565
Rp2566
(dp2567
bag1
(g1636
g2
(I333
tp2568
Rp2569
(dp2570
btp2571
Rp2572
(dp2573
bag1
(g2
(I17
tp2574
Rp2575
(dp2576
bg2
(I872
tp2577
Rp2578
(dp2579
btp2580
Rp2581
(dp2582
ba.