(lp0
csympy.geometry.point
Point2D
p1
(csympy.core.numbers
Integer
p2
(I77
tp3
Rp4
(dp5
bg2
(I525
tp6
Rp7
(dp8
btp9
Rp10
(dp11
bag1
(g2
(I210
tp12
Rp13
(dp14
bg2
(I49
tp15
Rp16
(dp17
btp18
Rp19
(dp20
bag1
(g2
(I945
tp21
Rp22
(dp23
bg2
(I317
tp24
Rp25
(dp26
btp27
Rp28
(dp29
bag1
(g2
(I165
tp30
Rp31
(dp32
bg2
(I133
tp33
Rp34
(dp35
btp36
Rp37
(dp38
bag1
(g2
(I964
tp39
Rp40
(dp41
bg2
(I512
tp42
Rp43
(dp44
btp45
Rp46
(dp47
bag1
(g2
(I325
tp48
Rp49
(dp50
bg2
(I876
tp51
Rp52
(dp53
btp54
Rp55
(dp56
bag1
(g2
(I655
tp57
Rp58
(dp59
bg2
(I62
tp60
Rp61
(dp62
btp63
Rp64
(dp65
bag1
(g2
(I412
tp66
Rp67
(dp68
bg2
(I226
tp69
Rp70
(dp71
btp72
Rp73
(dp74
bag1
(g2
(I345
tp75
Rp76
(dp77
bg2
(I831
tp78
Rp79
(dp80
btp81
Rp82
(dp83
bag1
(g2
(I257
tp84
Rp85
(dp86
bg2
(I973
tp87
Rp88
(dp89
btp90
Rp91
(dp92
bag1
(g2
(I510
tp93
Rp94
(dp95
bg2
(I363
tp96
Rp97
(dp98
btp99
Rp100
(dp101
bag1
(g2
(I613
tp102
Rp103
(dp104
bg2
(I653
tp105
Rp106
(dp107
btp108
Rp109
(dp110
bag1
(g2
(I853
tp111
Rp112
(dp113
bg76
tp114
Rp115
(dp116
bag1
(g2
(I48
tp117
Rp118
(dp119
bg2
(I943
tp120
Rp121
(dp122
btp123
Rp124
(dp125
bag1
(g2
(I356
tp126
Rp127
(dp128
bg2
(I863
tp129
Rp130
(dp131
btp132
Rp133
(dp134
bag1
(g2
(I336
tp135
Rp136
(dp137
bg2
(I684
tp138
Rp139
(dp140
btp141
Rp142
(dp143
bag1
(g2
(I871
tp144
Rp145
(dp146
bg2
(I631
tp147
Rp148
(dp149
btp150
Rp151
(dp152
bag1
(g2
(I122
tp153
Rp154
(dp155
bg2
(I779
tp156
Rp157
(dp158
btp159
Rp160
(dp161
bag1
(g2
(I731
tp162
Rp163
(dp164
bg2
(I751
tp165
Rp166
(dp167
btp168
Rp169
(dp170
bag1
(g2
(I189
tp171
Rp172
(dp173
bg2
(I16
tp174
Rp175
(dp176
btp177
Rp178
(dp179
bag1
(g2
(I771
tp180
Rp181
(dp182
bg2
(I492
tp183
Rp184
(dp185
btp186
Rp187
(dp188
bag1
(g2
(I278
tp189
Rp190
(dp191
bg2
(I479
tp192
Rp193
(dp194
btp195
Rp196
(dp197
bag1
(g2
(I202
tp198
Rp199
(dp200
bg2
(I484
tp201
Rp202
(dp203
btp204
Rp205
(dp206
bag1
(g2
(I21
tp207
Rp208
(dp209
bg2
(I636
tp210
Rp211
(dp212
btp213
Rp214
(dp215
bag1
(g2
(I713
tp216
Rp217
(dp218
bg2
(I344
tp219
Rp220
(dp221
btp222
Rp223
(dp224
bag1
(g2
(I870
tp225
Rp226
(dp227
bg2
(I838
tp228
Rp229
(dp230
btp231
Rp232
(dp233
bag1
(g88
g2
(I269
tp234
Rp235
(dp236
btp237
Rp238
(dp239
bag1
(g2
(I53
tp240
Rp241
(dp242
bg2
(I315
tp243
Rp244
(dp245
btp246
Rp247
(dp248
bag1
(g2
(I288
tp249
Rp250
(dp251
bg2
(I239
tp252
Rp253
(dp254
btp255
Rp256
(dp257
bag1
(g2
(I522
tp258
Rp259
(dp260
bg2
(I643
tp261
Rp262
(dp263
btp264
Rp265
(dp266
bag1
(g2
(I765
tp267
Rp268
(dp269
bg2
(I32
tp270
Rp271
(dp272
btp273
Rp274
(dp275
bag1
(g2
(I211
tp276
Rp277
(dp278
bg2
(I11
tp279
Rp280
(dp281
btp282
Rp283
(dp284
bag1
(g2
(I895
tp285
Rp286
(dp287
bg2
(I781
tp288
Rp289
(dp290
btp291
Rp292
(dp293
bag1
(g2
(I102
tp294
Rp295
(dp296
bg2
(I323
tp297
Rp298
(dp299
btp300
Rp301
(dp302
bag1
(g148
g2
(I193
tp303
Rp304
(dp305
btp306
Rp307
(dp308
bag1
(g2
(I458
tp309
Rp310
(dp311
bg2
(I842
tp312
Rp313
(dp314
btp315
Rp316
(dp317
bag1
(g2
(I712
tp318
Rp319
(dp320
bg2
(I66
tp321
Rp322
(dp323
btp324
Rp325
(dp326
bag1
(g2
(I52
tp327
Rp328
(dp329
bg2
(I678
tp330
Rp331
(dp332
btp333
Rp334
(dp335
bag1
(g2
(I649
tp336
Rp337
(dp338
bg2
(I909
tp339
Rp340
(dp341
btp342
Rp343
(dp344
bag1
(g2
(I173
tp345
Rp346
(dp347
bg2
(I604
tp348
Rp349
(dp350
btp351
Rp352
(dp353
bag1
(g2
(I362
tp354
Rp355
(dp356
bg2
(I987
tp357
Rp358
(dp359
btp360
Rp361
(dp362
bag1
(g2
(I580
tp363
Rp364
(dp365
bg2
(I150
tp366
Rp367
(dp368
btp369
Rp370
(dp371
bag1
(g2
(I583
tp372
Rp373
(dp374
bg2
(I267
tp375
Rp376
(dp377
btp378
Rp379
(dp380
bag1
(g2
(I179
tp381
Rp382
(dp383
bg2
(I570
tp384
Rp385
(dp386
btp387
Rp388
(dp389
bag1
(g2
(I581
tp390
Rp391
(dp392
bg2
(I138
tp393
Rp394
(dp395
btp396
Rp397
(dp398
bag1
(g2
(I282
tp399
Rp400
(dp401
bg2
(I366
tp402
Rp403
(dp404
btp405
Rp406
(dp407
bag1
(g2
(I588
tp408
Rp409
(dp410
bg2
(I352
tp411
Rp412
(dp413
btp414
Rp415
(dp416
bag1
(g2
(I573
tp417
Rp418
(dp419
bg2
(I177
tp420
Rp421
(dp422
btp423
Rp424
(dp425
bag1
(g2
(I718
tp426
Rp427
(dp428
bg2
(I127
tp429
Rp430
(dp431
btp432
Rp433
(dp434
bag1
(g2
(I393
tp435
Rp436
(dp437
bg2
(I182
tp438
Rp439
(dp440
btp441
Rp442
(dp443
bag1
(g2
(I661
tp444
Rp445
(dp446
bg2
(I216
tp447
Rp448
(dp449
btp450
Rp451
(dp452
bag1
(g2
(I374
tp453
Rp454
(dp455
bg2
(I274
tp456
Rp457
(dp458
btp459
Rp460
(dp461
bag1
(g2
(I535
tp462
Rp463
(dp464
bg2
(I240
tp465
Rp466
(dp467
btp468
Rp469
(dp470
bag1
(g2
(I721
tp471
Rp472
(dp473
bg2
(I703
tp474
Rp475
(dp476
btp477
Rp478
(dp479
bag1
(g2
(I685
tp480
Rp481
(dp482
bg2
(I314
tp483
Rp484
(dp485
btp486
Rp487
(dp488
bag1
(g2
(I143
tp489
Rp490
(dp491
bg2
(I974
tp492
Rp493
(dp494
btp495
Rp496
(dp497
bag1
(g2
(I859
tp498
Rp499
(dp500
bg2
(I962
tp501
Rp502
(dp503
btp504
Rp505
(dp506
bag1
(g2
(I919
tp507
Rp508
(dp509
bg2
(I774
tp510
Rp511
(dp512
btp513
Rp514
(dp515
bag1
(g2
(I675
tp516
Rp517
(dp518
bg2
(I564
tp519
Rp520
(dp521
btp522
Rp523
(dp524
bag1
(g2
(I821
tp525
Rp526
(dp527
bg2
(I502
tp528
Rp529
(dp530
btp531
Rp532
(dp533
bag1
(g2
(I676
tp534
Rp535
(dp536
bg2
(I319
tp537
Rp538
(dp539
btp540
Rp541
(dp542
bag1
(g2
(I462
tp543
Rp544
(dp545
bg2
(I8
tp546
Rp547
(dp548
btp549
Rp550
(dp551
bag1
(g2
(I840
tp552
Rp553
(dp554
bg2
(I611
tp555
Rp556
(dp557
btp558
Rp559
(dp560
bag1
(g2
(I404
tp561
Rp562
(dp563
bg2
(I326
tp564
Rp565
(dp566
btp567
Rp568
(dp569
bag1
(g2
(I695
tp570
Rp571
(dp572
bg2
(I98
tp573
Rp574
(dp575
btp576
Rp577
(dp578
bag1
(g2
(I61
tp579
Rp580
(dp581
bg2
(I283
tp582
Rp583
(dp584
btp585
Rp586
(dp587
bag1
(g2
(I415
tp588
Rp589
(dp590
bg241
tp591
Rp592
(dp593
bag1
(g2
(I553
tp594
Rp595
(dp596
bg2
(I191
tp597
Rp598
(dp599
btp600
Rp601
(dp602
bag1
(g2
(I531
tp603
Rp604
(dp605
bg2
(I977
tp606
Rp607
(dp608
btp609
Rp610
(dp611
bag1
(g2
(I399
tp612
Rp613
(dp614
bg2
(I753
tp615
Rp616
(dp617
btp618
Rp619
(dp620
bag1
(g2
(I265
tp621
Rp622
(dp623
bg2
(I740
tp624
Rp625
(dp626
btp627
Rp628
(dp629
bag1
(g2
(I940
tp630
Rp631
(dp632
bg2
(I892
tp633
Rp634
(dp635
btp636
Rp637
(dp638
bag1
(g2
(I151
tp639
Rp640
(dp641
bg2
(I205
tp642
Rp643
(dp644
btp645
Rp646
(dp647
bag1
(g2
(I367
tp648
Rp649
(dp650
bg58
tp651
Rp652
(dp653
bag1
(g2
(I546
tp654
Rp655
(dp656
bg2
(I550
tp657
Rp658
(dp659
btp660
Rp661
(dp662
bag1
(g2
(I358
tp663
Rp664
(dp665
bg2
(I87
tp666
Rp667
(dp668
btp669
Rp670
(dp671
bag1
(g2
(I419
tp672
Rp673
(dp674
bg2
(I707
tp675
Rp676
(dp677
btp678
Rp679
(dp680
bag1
(g2
(I963
tp681
Rp682
(dp683
bg2
(I22
tp684
Rp685
(dp686
btp687
Rp688
(dp689
bag1
(g2
(I682
tp690
Rp691
(dp692
bg2
(I322
tp693
Rp694
(dp695
btp696
Rp697
(dp698
bag1
(g2
(I648
tp699
Rp700
(dp701
bg49
tp702
Rp703
(dp704
bag1
(g2
(I81
tp705
Rp706
(dp707
bg2
(I499
tp708
Rp709
(dp710
btp711
Rp712
(dp713
bag1
(g2
(I219
tp714
Rp715
(dp716
bg2
(I161
tp717
Rp718
(dp719
btp720
Rp721
(dp722
bag1
(g2
(I599
tp723
Rp724
(dp725
bg2
(I247
tp726
Rp727
(dp728
btp729
Rp730
(dp731
bag1
(g2
(I477
tp732
Rp733
(dp734
bg2
(I681
tp735
Rp736
(dp737
btp738
Rp739
(dp740
bag1
(g2
(I234
tp741
Rp742
(dp743
bg2
(I9
tp744
Rp745
(dp746
btp747
Rp748
(dp749
bag1
(g367
g2
(I343
tp750
Rp751
(dp752
btp753
Rp754
(dp755
bag1
(g2
(I39
tp756
Rp757
(dp758
bg2
(I921
tp759
Rp760
(dp761
btp762
Rp763
(dp764
bag1
(g2
(I47
tp765
Rp766
(dp767
bg2
(I610
tp768
Rp769
(dp770
btp771
Rp772
(dp773
bag1
(g2
(I951
tp774
Rp775
(dp776
bg2
(I306
tp777
Rp778
(dp779
btp780
Rp781
(dp782
bag1
(g2
(I313
tp783
Rp784
(dp785
bg2
(I991
tp786
Rp787
(dp788
btp789
Rp790
(dp791
bag1
(g2
(I57
tp792
Rp793
(dp794
bg2
(I680
tp795
Rp796
(dp797
btp798
Rp799
(dp800
bag1
(g2
(I204
tp801
Rp802
(dp803
bg2
(I432
tp804
Rp805
(dp806
btp807
Rp808
(dp809
bag1
(g2
(I377
tp810
Rp811
(dp812
bg2
(I97
tp813
Rp814
(dp815
btp816
Rp817
(dp818
bag1
(g2
(I382
tp819
Rp820
(dp821
bg2
(I207
tp822
Rp823
(dp824
btp825
Rp826
(dp827
bag1
(g2
(I922
tp828
Rp829
(dp830
bg2
(I170
tp831
Rp832
(dp833
btp834
Rp835
(dp836
bag1
(g2
(I456
tp837
Rp838
(dp839
bg2
(I595
tp840
Rp841
(dp842
btp843
Rp844
(dp845
bag1
(g2
(I946
tp846
Rp847
(dp848
bg2
(I157
tp849
Rp850
(dp851
btp852
Rp853
(dp854
bag1
(g2
(I264
tp855
Rp856
(dp857
bg733
tp858
Rp859
(dp860
bag1
(g2
(I722
tp861
Rp862
(dp863
bg2
(I855
tp864
Rp865
(dp866
btp867
Rp868
(dp869
bag1
(g2
(I729
tp870
Rp871
(dp872
bg2
(I834
tp873
Rp874
(dp875
btp876
Rp877
(dp878
bag1
(g2
(I693
tp879
Rp880
(dp881
bg2
(I677
tp882
Rp883
(dp884
btp885
Rp886
(dp887
bag1
(g2
(I760
tp888
Rp889
(dp890
bg2
(I331
tp891
Rp892
(dp893
btp894
Rp895
(dp896
bag1
(g493
g2
(I552
tp897
Rp898
(dp899
btp900
Rp901
(dp902
bag1
(g2
(I145
tp903
Rp904
(dp905
bg2
(I488
tp906
Rp907
(dp908
btp909
Rp910
(dp911
bag1
(g2
(I763
tp912
Rp913
(dp914
bg2
(I970
tp915
Rp916
(dp917
btp918
Rp919
(dp920
bag1
(g2
(I107
tp921
Rp922
(dp923
bg2
(I858
tp924
Rp925
(dp926
btp927
Rp928
(dp929
bag1
(g2
(I305
tp930
Rp931
(dp932
bg2
(I243
tp933
Rp934
(dp935
btp936
Rp937
(dp938
bag1
(g2
(I78
tp939
Rp940
(dp941
bg2
(I747
tp942
Rp943
(dp944
btp945
Rp946
(dp947
bag1
(g2
(I517
tp948
Rp949
(dp950
bg2
(I455
tp951
Rp952
(dp953
btp954
Rp955
(dp956
bag1
(g2
(I651
tp957
Rp958
(dp959
bg2
(I167
tp960
Rp961
(dp962
btp963
Rp964
(dp965
bag1
(g2
(I111
tp966
Rp967
(dp968
bg2
(I632
tp969
Rp970
(dp971
btp972
Rp973
(dp974
bag1
(g547
g2
(I630
tp975
Rp976
(dp977
btp978
Rp979
(dp980
bag1
(g2
(I800
tp981
Rp982
(dp983
bg2
(I174
tp984
Rp985
(dp986
btp987
Rp988
(dp989
bag1
(g2
(I602
tp990
Rp991
(dp992
bg2
(I279
tp993
Rp994
(dp995
btp996
Rp997
(dp998
bag1
(g2
(I429
tp999
Rp1000
(dp1001
bg2
(I769
tp1002
Rp1003
(dp1004
btp1005
Rp1006
(dp1007
bag1
(g2
(I495
tp1008
Rp1009
(dp1010
bg2
(I734
tp1011
Rp1012
(dp1013
btp1014
Rp1015
(dp1016
bag1
(g2
(I938
tp1017
Rp1018
(dp1019
bg2
(I213
tp1020
Rp1021
(dp1022
btp1023
Rp1024
(dp1025
bag1
(g2
(I600
tp1026
Rp1027
(dp1028
bg2
(I447
tp1029
Rp1030
(dp1031
btp1032
Rp1033
(dp1034
bag1
(g2
(I772
tp1035
Rp1036
(dp1037
bg2
(I347
tp1038
Rp1039
(dp1040
btp1041
Rp1042
(dp1043
bag1
(g2
(I837
tp1044
Rp1045
(dp1046
bg2
(I7
tp1047
Rp1048
(dp1049
btp1050
Rp1051
(dp1052
bag1
(g2
(I668
tp1053
Rp1054
(dp1055
bg2
(I888
tp1056
Rp1057
(dp1058
btp1059
Rp1060
(dp1061
bag1
(g2
(I887
tp1062
Rp1063
(dp1064
bg2
(I203
tp1065
Rp1066
(dp1067
btp1068
Rp1069
(dp1070
bag1
(g2
(I646
tp1071
Rp1072
(dp1073
bg2
(I67
tp1074
Rp1075
(dp1076
btp1077
Rp1078
(dp1079
bag1
(g2
(I978
tp1080
Rp1081
(dp1082
bg2
(I116
tp1083
Rp1084
(dp1085
btp1086
Rp1087
(dp1088
bag1
(g2
(I793
tp1089
Rp1090
(dp1091
bg2
(I201
tp1092
Rp1093
(dp1094
btp1095
Rp1096
(dp1097
bag1
(g2
(I869
tp1098
Rp1099
(dp1100
bg2
(I15
tp1101
Rp1102
(dp1103
btp1104
Rp1105
(dp1106
bag1
(g2
(I768
tp1107
Rp1108
(dp1109
bg2
(I311
tp1110
Rp1111
(dp1112
btp1113
Rp1114
(dp1115
bag1
(g2
(I742
tp1116
Rp1117
(dp1118
bg2
(I850
tp1119
Rp1120
(dp1121
btp1122
Rp1123
(dp1124
bag1
(g1102
g2
(I12
tp1125
Rp1126
(dp1127
btp1128
Rp1129
(dp1130
bag1
(g2
(I524
tp1131
Rp1132
(dp1133
bg2
(I901
tp1134
Rp1135
(dp1136
btp1137
Rp1138
(dp1139
bag1
(g2
(I427
tp1140
Rp1141
(dp1142
bg2
(I968
tp1143
Rp1144
(dp1145
btp1146
Rp1147
(dp1148
bag1
(g1057
g2
(I882
tp1149
Rp1150
(dp1151
btp1152
Rp1153
(dp1154
bag1
(g2
(I857
tp1155
Rp1156
(dp1157
bg2
(I969
tp1158
Rp1159
(dp1160
btp1161
Rp1162
(dp1163
bag1
(g2
(I652
tp1164
Rp1165
(dp1166
bg2
(I309
tp1167
Rp1168
(dp1169
btp1170
Rp1171
(dp1172
bag1
(g2
(I421
tp1173
Rp1174
(dp1175
bg913
tp1176
Rp1177
(dp1178
bag1
(g2
(I592
tp1179
Rp1180
(dp1181
bg2
(I509
tp1182
Rp1183
(dp1184
btp1185
Rp1186
(dp1187
bag1
(g331
g2
(I881
tp1188
Rp1189
(dp1190
btp1191
Rp1192
(dp1193
bag1
(g2
(I55
tp1194
Rp1195
(dp1196
bg2
(I605
tp1197
Rp1198
(dp1199
btp1200
Rp1201
(dp1202
bag1
(g166
g2
(I886
tp1203
Rp1204
(dp1205
btp1206
Rp1207
(dp1208
bag1
(g2
(I826
tp1209
Rp1210
(dp1211
bg691
tp1212
Rp1213
(dp1214
bag1
(g502
g2
(I609
tp1215
Rp1216
(dp1217
btp1218
Rp1219
(dp1220
bag1
(g2
(I308
tp1221
Rp1222
(dp1223
bg2
(I737
tp1224
Rp1225
(dp1226
btp1227
Rp1228
(dp1229
bag1
(g2
(I339
tp1230
Rp1231
(dp1232
bg2
(I582
tp1233
Rp1234
(dp1235
btp1236
Rp1237
(dp1238
bag1
(g2
(I786
tp1239
Rp1240
(dp1241
bg418
tp1242
Rp1243
(dp1244
bag1
(g2
(I31
tp1245
Rp1246
(dp1247
bg2
(I950
tp1248
Rp1249
(dp1250
btp1251
Rp1252
(dp1253
bag1
(g2
(I65
tp1254
Rp1255
(dp1256
bg2
(I34
tp1257
Rp1258
(dp1259
btp1260
Rp1261
(dp1262
bag1
(g2
(I732
tp1263
Rp1264
(dp1265
bg2
(I542
tp1266
Rp1267
(dp1268
btp1269
Rp1270
(dp1271
bag1
(g2
(I849
tp1272
Rp1273
(dp1274
bg2
(I296
tp1275
Rp1276
(dp1277
btp1278
Rp1279
(dp1280
bag1
(g2
(I58
tp1281
Rp1282
(dp1283
bg490
tp1284
Rp1285
(dp1286
bag1
(g2
(I873
tp1287
Rp1288
(dp1289
bg2
(I634
tp1290
Rp1291
(dp1292
btp1293
Rp1294
(dp1295
bag1
(g289
g2
(I446
tp1296
Rp1297
(dp1298
btp1299
Rp1300
(dp1301
bag1
(g2
(I37
tp1302
Rp1303
(dp1304
bg2
(I511
tp1305
Rp1306
(dp1307
btp1308
Rp1309
(dp1310
bag1
(g2
(I941
tp1311
Rp1312
(dp1313
bg2
(I756
tp1314
Rp1315
(dp1316
btp1317
Rp1318
(dp1319
bag1
(g2
(I96
tp1320
Rp1321
(dp1322
bg2
(I658
tp1323
Rp1324
(dp1325
btp1326
Rp1327
(dp1328
bag1
(g2
(I733
tp1329
Rp1330
(dp1331
bg2
(I812
tp1332
Rp1333
(dp1334
btp1335
Rp1336
(dp1337
bag1
(g2
(I663
tp1338
Rp1339
(dp1340
bg1330
tp1341
Rp1342
(dp1343
bag1
(g2
(I491
tp1344
Rp1345
(dp1346
bg1240
tp1347
Rp1348
(dp1349
bag1
(g2
(I104
tp1350
Rp1351
(dp1352
bg2
(I989
tp1353
Rp1354
(dp1355
btp1356
Rp1357
(dp1358
bag1
(g2
(I231
tp1359
Rp1360
(dp1361
bg2
(I14
tp1362
Rp1363
(dp1364
btp1365
Rp1366
(dp1367
bag1
(g2
(I505
tp1368
Rp1369
(dp1370
bg2
(I498
tp1371
Rp1372
(dp1373
btp1374
Rp1375
(dp1376
bag1
(g2
(I185
tp1377
Rp1378
(dp1379
bg2
(I956
tp1380
Rp1381
(dp1382
btp1383
Rp1384
(dp1385
bag1
(g79
g2
(I295
tp1386
Rp1387
(dp1388
btp1389
Rp1390
(dp1391
bag1
(g2
(I639
tp1392
Rp1393
(dp1394
bg13
tp1395
Rp1396
(dp1397
bag1
(g2
(I749
tp1398
Rp1399
(dp1400
bg2
(I178
tp1401
Rp1402
(dp1403
btp1404
Rp1405
(dp1406
bag1
(g2
(I710
tp1407
Rp1408
(dp1409
bg2
(I321
tp1410
Rp1411
(dp1412
btp1413
Rp1414
(dp1415
bag1
(g2
(I228
tp1416
Rp1417
(dp1418
bg2
(I566
tp1419
Rp1420
(dp1421
btp1422
Rp1423
(dp1424
bag1
(g2
(I503
tp1425
Rp1426
(dp1427
bg2
(I594
tp1428
Rp1429
(dp1430
btp1431
Rp1432
(dp1433
bag1
(g2
(I942
tp1434
Rp1435
(dp1436
bg2
(I935
tp1437
Rp1438
(dp1439
btp1440
Rp1441
(dp1442
bag1
(g2
(I980
tp1443
Rp1444
(dp1445
bg2
(I872
tp1446
Rp1447
(dp1448
btp1449
Rp1450
(dp1451
bag1
(g2
(I687
tp1452
Rp1453
(dp1454
bg2
(I152
tp1455
Rp1456
(dp1457
btp1458
Rp1459
(dp1460
bag1
(g625
g2
(I699
tp1461
Rp1462
(dp1463
btp1464
Rp1465
(dp1466
bag1
(g2
(I900
tp1467
Rp1468
(dp1469
bg2
(I708
tp1470
Rp1471
(dp1472
btp1473
Rp1474
(dp1475
bag1
(g2
(I697
tp1476
Rp1477
(dp1478
bg1399
tp1479
Rp1480
(dp1481
bag1
(g2
(I108
tp1482
Rp1483
(dp1484
bg2
(I792
tp1485
Rp1486
(dp1487
btp1488
Rp1489
(dp1490
bag1
(g2
(I126
tp1491
Rp1492
(dp1493
bg958
tp1494
Rp1495
(dp1496
bag1
(g2
(I146
tp1497
Rp1498
(dp1499
bg2
(I559
tp1500
Rp1501
(dp1502
btp1503
Rp1504
(dp1505
bag1
(g2
(I827
tp1506
Rp1507
(dp1508
bg2
(I448
tp1509
Rp1510
(dp1511
btp1512
Rp1513
(dp1514
bag1
(g2
(I994
tp1515
Rp1516
(dp1517
bg1045
tp1518
Rp1519
(dp1520
bag1
(g1066
g2
(I198
tp1521
Rp1522
(dp1523
btp1524
Rp1525
(dp1526
bag1
(g2
(I574
tp1527
Rp1528
(dp1529
bg2
(I811
tp1530
Rp1531
(dp1532
btp1533
Rp1534
(dp1535
bag1
(g2
(I199
tp1536
Rp1537
(dp1538
bg2
(I453
tp1539
Rp1540
(dp1541
btp1542
Rp1543
(dp1544
bag1
(g2
(I726
tp1545
Rp1546
(dp1547
bg2
(I181
tp1548
Rp1549
(dp1550
btp1551
Rp1552
(dp1553
bag1
(g2
(I775
tp1554
Rp1555
(dp1556
bg2
(I183
tp1557
Rp1558
(dp1559
btp1560
Rp1561
(dp1562
bag1
(g2
(I361
tp1563
Rp1564
(dp1565
bg2
(I911
tp1566
Rp1567
(dp1568
btp1569
Rp1570
(dp1571
bag1
(g2
(I285
tp1572
Rp1573
(dp1574
bg2
(I397
tp1575
Rp1576
(dp1577
btp1578
Rp1579
(dp1580
bag1
(g2
(I902
tp1581
Rp1582
(dp1583
bg649
tp1584
Rp1585
(dp1586
bag1
(g2
(I328
tp1587
Rp1588
(dp1589
bg2
(I761
tp1590
Rp1591
(dp1592
btp1593
Rp1594
(dp1595
bag1
(g2
(I944
tp1596
Rp1597
(dp1598
bg2
(I410
tp1599
Rp1600
(dp1601
btp1602
Rp1603
(dp1604
bag1
(g2
(I948
tp1605
Rp1606
(dp1607
bg2
(I423
tp1608
Rp1609
(dp1610
btp1611
Rp1612
(dp1613
bag1
(g2
(I190
tp1614
Rp1615
(dp1616
bg2
(I248
tp1617
Rp1618
(dp1619
btp1620
Rp1621
(dp1622
bag1
(g1030
g2
(I820
tp1623
Rp1624
(dp1625
btp1626
Rp1627
(dp1628
bag1
(g2
(I333
tp1629
Rp1630
(dp1631
bg2
(I981
tp1632
Rp1633
(dp1634
btp1635
Rp1636
(dp1637
bag1
(g2
(I704
tp1638
Rp1639
(dp1640
bg2
(I572
tp1641
Rp1642
(dp1643
btp1644
Rp1645
(dp1646
bag1
(g2
(I554
tp1647
Rp1648
(dp1649
bg112
tp1650
Rp1651
(dp1652
bag1
(g2
(I294
tp1653
Rp1654
(dp1655
bg508
tp1656
Rp1657
(dp1658
bag1
(g2
(I266
tp1659
Rp1660
(dp1661
bg2
(I885
tp1662
Rp1663
(dp1664
btp1665
Rp1666
(dp1667
bag1
(g1663
g1174
tp1668
Rp1669
(dp1670
bag1
(g2
(I94
tp1671
Rp1672
(dp1673
bg2
(I906
tp1674
Rp1675
(dp1676
btp1677
Rp1678
(dp1679
bag1
(g2
(I995
tp1680
Rp1681
(dp1682
bg2
(I715
tp1683
Rp1684
(dp1685
btp1686
Rp1687
(dp1688
bag1
(g358
g2
(I912
tp1689
Rp1690
(dp1691
btp1692
Rp1693
(dp1694
bag1
(g2
(I526
tp1695
Rp1696
(dp1697
bg1573
tp1698
Rp1699
(dp1700
bag1
(g2
(I369
tp1701
Rp1702
(dp1703
bg2
(I997
tp1704
Rp1705
(dp1706
btp1707
Rp1708
(dp1709
bag1
(g235
g1108
tp1710
Rp1711
(dp1712
bag1
(g520
g2
(I136
tp1713
Rp1714
(dp1715
btp1716
Rp1717
(dp1718
bag1
(g898
g2
(I208
tp1719
Rp1720
(dp1721
btp1722
Rp1723
(dp1724
bag1
(g2
(I298
tp1725
Rp1726
(dp1727
bg2
(I330
tp1728
Rp1729
(dp1730
btp1731
Rp1732
(dp1733
bag1
(g2
(I537
tp1734
Rp1735
(dp1736
bg2
(I579
tp1737
Rp1738
(dp1739
btp1740
Rp1741
(dp1742
bag1
(g2
(I307
tp1743
Rp1744
(dp1745
bg2
(I794
tp1746
Rp1747
(dp1748
btp1749
Rp1750
(dp1751
bag1
(g2
(I235
tp1752
Rp1753
(dp1754
bg2
(I103
tp1755
Rp1756
(dp1757
btp1758
Rp1759
(dp1760
bag1
(g2
(I89
tp1761
Rp1762
(dp1763
bg2
(I612
tp1764
Rp1765
(dp1766
btp1767
Rp1768
(dp1769
bag1
(g667
g2
(I106
tp1770
Rp1771
(dp1772
btp1773
Rp1774
(dp1775
bag1
(g2
(I370
tp1776
Rp1777
(dp1778
bg904
tp1779
Rp1780
(dp1781
bag1
(g2
(I759
tp1782
Rp1783
(dp1784
bg2
(I571
tp1785
Rp1786
(dp1787
btp1788
Rp1789
(dp1790
bag1
(g2
(I324
tp1791
Rp1792
(dp1793
bg2
(I650
tp1794
Rp1795
(dp1796
btp1797
Rp1798
(dp1799
bag1
(g2
(I472
tp1800
Rp1801
(dp1802
bg2
(I748
tp1803
Rp1804
(dp1805
btp1806
Rp1807
(dp1808
bag1
(g1297
g2
(I577
tp1809
Rp1810
(dp1811
btp1812
Rp1813
(dp1814
bag1
(g2
(I280
tp1815
Rp1816
(dp1817
bg2
(I327
tp1818
Rp1819
(dp1820
btp1821
Rp1822
(dp1823
bag1
(g2
(I44
tp1824
Rp1825
(dp1826
bg2
(I507
tp1827
Rp1828
(dp1829
btp1830
Rp1831
(dp1832
bag1
(g2
(I168
tp1833
Rp1834
(dp1835
bg2
(I557
tp1836
Rp1837
(dp1838
btp1839
Rp1840
(dp1841
bag1
(g2
(I903
tp1842
Rp1843
(dp1844
bg2
(I350
tp1845
Rp1846
(dp1847
btp1848
Rp1849
(dp1850
bag1
(g2
(I846
tp1851
Rp1852
(dp1853
bg2
(I4
tp1854
Rp1855
(dp1856
btp1857
Rp1858
(dp1859
bag1
(g298
g2
(I23
tp1860
Rp1861
(dp1862
btp1863
Rp1864
(dp1865
bag1
(g2
(I996
tp1866
Rp1867
(dp1868
bg811
tp1869
Rp1870
(dp1871
bag1
(g2
(I451
tp1872
Rp1873
(dp1874
bg2
(I845
tp1875
Rp1876
(dp1877
btp1878
Rp1879
(dp1880
bag1
(g2
(I154
tp1881
Rp1882
(dp1883
bg2
(I425
tp1884
Rp1885
(dp1886
btp1887
Rp1888
(dp1889
bag1
(g2
(I928
tp1890
Rp1891
(dp1892
bg1246
tp1893
Rp1894
(dp1895
bag1
(g2
(I180
tp1896
Rp1897
(dp1898
bg2
(I117
tp1899
Rp1900
(dp1901
btp1902
Rp1903
(dp1904
bag1
(g2
(I669
tp1905
Rp1906
(dp1907
bg2
(I86
tp1908
Rp1909
(dp1910
btp1911
Rp1912
(dp1913
bag1
(g2
(I783
tp1914
Rp1915
(dp1916
bg2
(I381
tp1917
Rp1918
(dp1919
btp1920
Rp1921
(dp1922
bag1
(g1747
g2
(I724
tp1923
Rp1924
(dp1925
btp1926
Rp1927
(dp1928
bag1
(g2
(I63
tp1929
Rp1930
(dp1931
bg2
(I131
tp1932
Rp1933
(dp1934
btp1935
Rp1936
(dp1937
bag1
(g2
(I575
tp1938
Rp1939
(dp1940
bg640
tp1941
Rp1942
(dp1943
bag1
(g2
(I474
tp1944
Rp1945
(dp1946
bg2
(I212
tp1947
Rp1948
(dp1949
btp1950
Rp1951
(dp1952
bag1
(g2
(I188
tp1953
Rp1954
(dp1955
bg1696
tp1956
Rp1957
(dp1958
bag1
(g7
g1156
tp1959
Rp1960
(dp1961
bag1
(g970
g2
(I261
tp1962
Rp1963
(dp1964
btp1965
Rp1966
(dp1967
bag1
(g2
(I923
tp1968
Rp1969
(dp1970
bg1735
tp1971
Rp1972
(dp1973
bag1
(g1633
g2
(I867
tp1974
Rp1975
(dp1976
btp1977
Rp1978
(dp1979
bag1
(g1963
g2
(I71
tp1980
Rp1981
(dp1982
btp1983
Rp1984
(dp1985
bag1
(g2
(I402
tp1986
Rp1987
(dp1988
bg2
(I896
tp1989
Rp1990
(dp1991
btp1992
Rp1993
(dp1994
bag1
(g2
(I246
tp1995
Rp1996
(dp1997
bg2
(I934
tp1998
Rp1999
(dp2000
btp2001
Rp2002
(dp2003
bag1
(g2
(I824
tp2004
Rp2005
(dp2006
bg2
(I155
tp2007
Rp2008
(dp2009
btp2010
Rp2011
(dp2012
bag1
(g2
(I835
tp2013
Rp2014
(dp2015
bg2
(I385
tp2016
Rp2017
(dp2018
btp2019
Rp2020
(dp2021
bag1
(g2
(I746
tp2022
Rp2023
(dp2024
bg2
(I284
tp2025
Rp2026
(dp2027
btp2028
Rp2029
(dp2030
bag1
(g2
(I268
tp2031
Rp2032
(dp2033
bg2
(I844
tp2034
Rp2035
(dp2036
btp2037
Rp2038
(dp2039
bag1
(g2
(I466
tp2040
Rp2041
(dp2042
bg1654
tp2043
Rp2044
(dp2045
bag1
(g2
(I590
tp2046
Rp2047
(dp2048
bg2
(I68
tp2049
Rp2050
(dp2051
btp2052
Rp2053
(dp2054
bag1
(g2
(I894
tp2055
Rp2056
(dp2057
bg2
(I175
tp2058
Rp2059
(dp2060
btp2061
Rp2062
(dp2063
bag1
(g2
(I889
tp2064
Rp2065
(dp2066
bg2
(I119
tp2067
Rp2068
(dp2069
btp2070
Rp2071
(dp2072
bag1
(g2
(I360
tp2073
Rp2074
(dp2075
bg127
tp2076
Rp2077
(dp2078
bag1
(g2
(I166
tp2079
Rp2080
(dp2081
bg706
tp2082
Rp2083
(dp2084
bag1
(g2
(I5
tp2085
Rp2086
(dp2087
bg2
(I76
tp2088
Rp2089
(dp2090
btp2091
Rp2092
(dp2093
bag1
(g2
(I666
tp2094
Rp2095
(dp2096
bg310
tp2097
Rp2098
(dp2099
bag1
(g2
(I880
tp2100
Rp2101
(dp2102
bg1492
tp2103
Rp2104
(dp2105
bag1
(g2
(I694
tp2106
Rp2107
(dp2108
bg2
(I784
tp2109
Rp2110
(dp2111
btp2112
Rp2113
(dp2114
bag1
(g2
(I914
tp2115
Rp2116
(dp2117
bg2
(I159
tp2118
Rp2119
(dp2120
btp2121
Rp2122
(dp2123
bag1
(g1900
g382
tp2124
Rp2125
(dp2126
bag1
(g2
(I18
tp2127
Rp2128
(dp2129
bg2
(I924
tp2130
Rp2131
(dp2132
btp2133
Rp2134
(dp2135
bag1
(g2
(I543
tp2136
Rp2137
(dp2138
bg2
(I516
tp2139
Rp2140
(dp2141
btp2142
Rp2143
(dp2144
bag1
(g2
(I659
tp2145
Rp2146
(dp2147
bg2
(I316
tp2148
Rp2149
(dp2150
btp2151
Rp2152
(dp2153
bag1
(g2
(I598
tp2154
Rp2155
(dp2156
bg2
(I569
tp2157
Rp2158
(dp2159
btp2160
Rp2161
(dp2162
bag1
(g2
(I24
tp2163
Rp2164
(dp2165
bg1537
tp2166
Rp2167
(dp2168
bag1
(g2
(I813
tp2169
Rp2170
(dp2171
bg2
(I184
tp2172
Rp2173
(dp2174
btp2175
Rp2176
(dp2177
bag1
(g2
(I738
tp2178
Rp2179
(dp2180
bg1588
tp2181
Rp2182
(dp2183
bag1
(g2
(I467
tp2184
Rp2185
(dp2186
bg2
(I787
tp2187
Rp2188
(dp2189
btp2190
Rp2191
(dp2192
bag1
(g2
(I434
tp2193
Rp2194
(dp2195
bg1945
tp2196
Rp2197
(dp2198
bag1
(g2
(I628
tp2199
Rp2200
(dp2201
bg2
(I428
tp2202
Rp2203
(dp2204
btp2205
Rp2206
(dp2207
bag1
(g907
g1180
tp2208
Rp2209
(dp2210
bag1
(g2
(I567
tp2211
Rp2212
(dp2213
bg2
(I380
tp2214
Rp2215
(dp2216
btp2217
Rp2218
(dp2219
bag1
(g2
(I396
tp2220
Rp2221
(dp2222
bg2
(I683
tp2223
Rp2224
(dp2225
btp2226
Rp2227
(dp2228
bag1
(g2
(I486
tp2229
Rp2230
(dp2231
bg2
(I662
tp2232
Rp2233
(dp2234
btp2235
Rp2236
(dp2237
bag1
(g556
g2
(I82
tp2238
Rp2239
(dp2240
btp2241
Rp2242
(dp2243
bag1
(g2
(I953
tp2244
Rp2245
(dp2246
bg1426
tp2247
Rp2248
(dp2249
bag1
(g2
(I92
tp2250
Rp2251
(dp2252
bg2
(I220
tp2253
Rp2254
(dp2255
btp2256
Rp2257
(dp2258
bag1
(g2
(I340
tp2259
Rp2260
(dp2261
bg2
(I875
tp2262
Rp2263
(dp2264
btp2265
Rp2266
(dp2267
bag1
(g2215
g2
(I528
tp2268
Rp2269
(dp2270
btp2271
Rp2272
(dp2273
bag1
(g220
g2
(I130
tp2274
Rp2275
(dp2276
btp2277
Rp2278
(dp2279
bag1
(g1705
g2
(I69
tp2280
Rp2281
(dp2282
btp2283
Rp2284
(dp2285
bag1
(g2
(I6
tp2286
Rp2287
(dp2288
bg2
(I140
tp2289
Rp2290
(dp2291
btp2292
Rp2293
(dp2294
bag1
(g2
(I624
tp2295
Rp2296
(dp2297
bg757
tp2298
Rp2299
(dp2300
bag1
(g2
(I373
tp2301
Rp2302
(dp2303
bg2185
tp2304
Rp2305
(dp2306
bag1
(g2
(I400
tp2307
Rp2308
(dp2309
bg2
(I422
tp2310
Rp2311
(dp2312
btp2313
Rp2314
(dp2315
bag1
(g2
(I236
tp2316
Rp2317
(dp2318
bg2
(I625
tp2319
Rp2320
(dp2321
btp2322
Rp2323
(dp2324
bag1
(g2
(I391
tp2325
Rp2326
(dp2327
bg673
tp2328
Rp2329
(dp2330
bag1
(g2
(I387
tp2331
Rp2332
(dp2333
bg2
(I920
tp2334
Rp2335
(dp2336
btp2337
Rp2338
(dp2339
bag1
(g598
g2
(I540
tp2340
Rp2341
(dp2342
btp2343
Rp2344
(dp2345
bag1
(g1111
g2
(I320
tp2346
Rp2347
(dp2348
btp2349
Rp2350
(dp2351
bag1
(g130
g2
(I80
tp2352
Rp2353
(dp2354
btp2355
Rp2356
(dp2357
bag1
(g2
(I626
tp2358
Rp2359
(dp2360
bg2
(I696
tp2361
Rp2362
(dp2363
btp2364
Rp2365
(dp2366
bag1
(g796
g2
(I589
tp2367
Rp2368
(dp2369
btp2370
Rp2371
(dp2372
bag1
(g2
(I244
tp2373
Rp2374
(dp2375
bg2
(I312
tp2376
Rp2377
(dp2378
btp2379
Rp2380
(dp2381
bag1
(g2
(I137
tp2382
Rp2383
(dp2384
bg1054
tp2385
Rp2386
(dp2387
bag1
(g2
(I816
tp2388
Rp2389
(dp2390
bg2
(I51
tp2391
Rp2392
(dp2393
btp2394
Rp2395
(dp2396
bag1
(g1168
g2
(I341
tp2397
Rp2398
(dp2399
btp2400
Rp2401
(dp2402
bag1
(g2
(I120
tp2403
Rp2404
(dp2405
bg2
(I406
tp2406
Rp2407
(dp2408
btp2409
Rp2410
(dp2411
bag1
(g2
(I490
tp2412
Rp2413
(dp2414
bg2
(I135
tp2415
Rp2416
(dp2417
btp2418
Rp2419
(dp2420
bag1
(g2
(I169
tp2421
Rp2422
(dp2423
bg1582
tp2424
Rp2425
(dp2426
bag1
(g2
(I270
tp2427
Rp2428
(dp2429
bg2
(I187
tp2430
Rp2431
(dp2432
btp2433
Rp2434
(dp2435
bag1
(g2
(I877
tp2436
Rp2437
(dp2438
bg40
tp2439
Rp2440
(dp2441
bag1
(g2
(I660
tp2442
Rp2443
(dp2444
bg1792
tp2445
Rp2446
(dp2447
bag1
(g2
(I413
tp2448
Rp2449
(dp2450
bg2
(I884
tp2451
Rp2452
(dp2453
btp2454
Rp2455
(dp2456
bag1
(g1198
g2
(I548
tp2457
Rp2458
(dp2459
btp2460
Rp2461
(dp2462
bag1
(g2
(I368
tp2463
Rp2464
(dp2465
bg2
(I591
tp2466
Rp2467
(dp2468
btp2469
Rp2470
(dp2471
bag1
(g709
g2
(I443
tp2472
Rp2473
(dp2474
btp2475
Rp2476
(dp2477
bag1
(g2
(I529
tp2478
Rp2479
(dp2480
bg1345
tp2481
Rp2482
(dp2483
bag1
(g2131
g2
(I147
tp2484
Rp2485
(dp2486
btp2487
Rp2488
(dp2489
bag1
(g2
(I114
tp2490
Rp2491
(dp2492
bg1195
tp2493
Rp2494
(dp2495
bag1
(g304
g2
(I172
tp2496
Rp2497
(dp2498
btp2499
Rp2500
(dp2501
bag1
(g2203
g1468
tp2502
Rp2503
(dp2504
bag1
(g976
g2
(I700
tp2505
Rp2506
(dp2507
btp2508
Rp2509
(dp2510
bag1
(g2
(I417
tp2511
Rp2512
(dp2513
bg2
(I878
tp2514
Rp2515
(dp2516
btp2517
Rp2518
(dp2519
bag1
(g1420
g2095
tp2520
Rp2521
(dp2522
bag1
(g2
(I702
tp2523
Rp2524
(dp2525
bg2
(I521
tp2526
Rp2527
(dp2528
btp2529
Rp2530
(dp2531
bag1
(g2
(I839
tp2532
Rp2533
(dp2534
bg700
tp2535
Rp2536
(dp2537
bag1
(g2
(I823
tp2538
Rp2539
(dp2540
bg2
(I776
tp2541
Rp2542
(dp2543
btp2544
Rp2545
(dp2546
bag1
(g2
(I2
tp2547
Rp2548
(dp2549
bg2005
tp2550
Rp2551
(dp2552
bag1
(g1531
g2
(I464
tp2553
Rp2554
(dp2555
btp2556
Rp2557
(dp2558
bag1
(g1126
g2
(I711
tp2559
Rp2560
(dp2561
btp2562
Rp2563
(dp2564
bag1
(g1189
g2
(I856
tp2565
Rp2566
(dp2567
btp2568
Rp2569
(dp2570
bag1
(g2431
g400
tp2571
Rp2572
(dp2573
ba.