(lp0
csympy.geometry.point
Point2D
p1
(csympy.core.numbers
Integer
p2
(I853
tp3
Rp4
(dp5
bg2
(I114
tp6
Rp7
(dp8
btp9
Rp10
(dp11
bag1
(g2
(I21
tp12
Rp13
(dp14
bg2
(I235
tp15
Rp16
(dp17
btp18
Rp19
(dp20
bag1
(g2
(I430
tp21
Rp22
(dp23
bg2
(I304
tp24
Rp25
(dp26
btp27
Rp28
(dp29
bag1
(g2
(I634
tp30
Rp31
(dp32
bg2
(I67
tp33
Rp34
(dp35
btp36
Rp37
(dp38
bag1
(g2
(I641
tp39
Rp40
(dp41
bg2
(I355
tp42
Rp43
(dp44
btp45
Rp46
(dp47
bag1
(g2
(I487
tp48
Rp49
(dp50
bg2
(I57
tp51
Rp52
(dp53
btp54
Rp55
(dp56
bag1
(g2
(I767
tp57
Rp58
(dp59
bg2
(I103
tp60
Rp61
(dp62
btp63
Rp64
(dp65
bag1
(g2
(I282
tp66
Rp67
(dp68
bg2
(I811
tp69
Rp70
(dp71
btp72
Rp73
(dp74
bag1
(g2
(I64
tp75
Rp76
(dp77
bg2
(I694
tp78
Rp79
(dp80
btp81
Rp82
(dp83
bag1
(g2
(I237
tp84
Rp85
(dp86
bg67
tp87
Rp88
(dp89
bag1
(g2
(I508
tp90
Rp91
(dp92
bg2
(I337
tp93
Rp94
(dp95
btp96
Rp97
(dp98
bag1
(g2
(I245
tp99
Rp100
(dp101
bg2
(I623
tp102
Rp103
(dp104
btp105
Rp106
(dp107
bag1
(g2
(I516
tp108
Rp109
(dp110
bg2
(I289
tp111
Rp112
(dp113
btp114
Rp115
(dp116
bag1
(g2
(I985
tp117
Rp118
(dp119
bg2
(I179
tp120
Rp121
(dp122
btp123
Rp124
(dp125
bag1
(g2
(I947
tp126
Rp127
(dp128
bg2
(I52
tp129
Rp130
(dp131
btp132
Rp133
(dp134
bag1
(g2
(I687
tp135
Rp136
(dp137
bg2
(I277
tp138
Rp139
(dp140
btp141
Rp142
(dp143
bag1
(g2
(I856
tp144
Rp145
(dp146
bg2
(I123
tp147
Rp148
(dp149
btp150
Rp151
(dp152
bag1
(g2
(I146
tp153
Rp154
(dp155
bg127
tp156
Rp157
(dp158
bag1
(g2
(I76
tp159
Rp160
(dp161
bg2
(I317
tp162
Rp163
(dp164
btp165
Rp166
(dp167
bag1
(g2
(I442
tp168
Rp169
(dp170
bg2
(I948
tp171
Rp172
(dp173
btp174
Rp175
(dp176
bag1
(g2
(I205
tp177
Rp178
(dp179
bg2
(I440
tp180
Rp181
(dp182
btp183
Rp184
(dp185
bag1
(g2
(I547
tp186
Rp187
(dp188
bg2
(I732
tp189
Rp190
(dp191
btp192
Rp193
(dp194
bag1
(g2
(I594
tp195
Rp196
(dp197
bg2
(I197
tp198
Rp199
(dp200
btp201
Rp202
(dp203
bag1
(g2
(I468
tp204
Rp205
(dp206
bg2
(I25
tp207
Rp208
(dp209
btp210
Rp211
(dp212
bag1
(g2
(I172
tp213
Rp214
(dp215
bg2
(I786
tp216
Rp217
(dp218
btp219
Rp220
(dp221
bag1
(g2
(I761
tp222
Rp223
(dp224
bg2
(I808
tp225
Rp226
(dp227
btp228
Rp229
(dp230
bag1
(g2
(I793
tp231
Rp232
(dp233
bg2
(I183
tp234
Rp235
(dp236
btp237
Rp238
(dp239
bag1
(g2
(I351
tp240
Rp241
(dp242
bg2
(I91
tp243
Rp244
(dp245
btp246
Rp247
(dp248
bag1
(g2
(I656
tp249
Rp250
(dp251
bg2
(I596
tp252
Rp253
(dp254
btp255
Rp256
(dp257
bag1
(g2
(I797
tp258
Rp259
(dp260
bg2
(I865
tp261
Rp262
(dp263
btp264
Rp265
(dp266
bag1
(g2
(I195
tp267
Rp268
(dp269
bg2
(I207
tp270
Rp271
(dp272
btp273
Rp274
(dp275
bag1
(g2
(I133
tp276
Rp277
(dp278
bg2
(I324
tp279
Rp280
(dp281
btp282
Rp283
(dp284
bag1
(g2
(I382
tp285
Rp286
(dp287
bg2
(I392
tp288
Rp289
(dp290
btp291
Rp292
(dp293
bag1
(g2
(I770
tp294
Rp295
(dp296
bg2
(I595
tp297
Rp298
(dp299
btp300
Rp301
(dp302
bag1
(g2
(I22
tp303
Rp304
(dp305
bg2
(I109
tp306
Rp307
(dp308
btp309
Rp310
(dp311
bag1
(g2
(I394
tp312
Rp313
(dp314
bg2
(I906
tp315
Rp316
(dp317
btp318
Rp319
(dp320
bag1
(g2
(I372
tp321
Rp322
(dp323
bg2
(I823
tp324
Rp325
(dp326
btp327
Rp328
(dp329
bag1
(g2
(I665
tp330
Rp331
(dp332
bg2
(I279
tp333
Rp334
(dp335
btp336
Rp337
(dp338
bag1
(g2
(I86
tp339
Rp340
(dp341
bg2
(I723
tp342
Rp343
(dp344
btp345
Rp346
(dp347
bag1
(g262
g2
(I646
tp348
Rp349
(dp350
btp351
Rp352
(dp353
bag1
(g2
(I116
tp354
Rp355
(dp356
bg2
(I10
tp357
Rp358
(dp359
btp360
Rp361
(dp362
bag1
(g2
(I676
tp363
Rp364
(dp365
bg2
(I405
tp366
Rp367
(dp368
btp369
Rp370
(dp371
bag1
(g2
(I952
tp372
Rp373
(dp374
bg2
(I695
tp375
Rp376
(dp377
btp378
Rp379
(dp380
bag1
(g2
(I46
tp381
Rp382
(dp383
bg2
(I978
tp384
Rp385
(dp386
btp387
Rp388
(dp389
bag1
(g2
(I105
tp390
Rp391
(dp392
bg2
(I613
tp393
Rp394
(dp395
btp396
Rp397
(dp398
bag1
(g2
(I902
tp399
Rp400
(dp401
bg2
(I894
tp402
Rp403
(dp404
btp405
Rp406
(dp407
bag1
(g2
(I661
tp408
Rp409
(dp410
bg2
(I98
tp411
Rp412
(dp413
btp414
Rp415
(dp416
bag1
(g2
(I653
tp417
Rp418
(dp419
bg2
(I3
tp420
Rp421
(dp422
btp423
Rp424
(dp425
bag1
(g2
(I424
tp426
Rp427
(dp428
bg2
(I278
tp429
Rp430
(dp431
btp432
Rp433
(dp434
bag1
(g2
(I449
tp435
Rp436
(dp437
bg2
(I966
tp438
Rp439
(dp440
btp441
Rp442
(dp443
bag1
(g2
(I816
tp444
Rp445
(dp446
bg2
(I6
tp447
Rp448
(dp449
btp450
Rp451
(dp452
bag1
(g2
(I178
tp453
Rp454
(dp455
bg2
(I186
tp456
Rp457
(dp458
btp459
Rp460
(dp461
bag1
(g2
(I667
tp462
Rp463
(dp464
bg2
(I526
tp465
Rp466
(dp467
btp468
Rp469
(dp470
bag1
(g2
(I263
tp471
Rp472
(dp473
bg2
(I833
tp474
Rp475
(dp476
btp477
Rp478
(dp479
bag1
(g367
g2
(I96
tp480
Rp481
(dp482
btp483
Rp484
(dp485
bag1
(g2
(I313
tp486
Rp487
(dp488
bg2
(I262
tp489
Rp490
(dp491
btp492
Rp493
(dp494
bag1
(g2
(I913
tp495
Rp496
(dp497
bg2
(I255
tp498
Rp499
(dp500
btp501
Rp502
(dp503
bag1
(g421
g2
(I219
tp504
Rp505
(dp506
btp507
Rp508
(dp509
bag1
(g2
(I779
tp510
Rp511
(dp512
bg2
(I250
tp513
Rp514
(dp515
btp516
Rp517
(dp518
bag1
(g2
(I893
tp519
Rp520
(dp521
bg2
(I297
tp522
Rp523
(dp524
btp525
Rp526
(dp527
bag1
(g2
(I873
tp528
Rp529
(dp530
bg187
tp531
Rp532
(dp533
bag1
(g2
(I698
tp534
Rp535
(dp536
bg2
(I806
tp537
Rp538
(dp539
btp540
Rp541
(dp542
bag1
(g2
(I39
tp543
Rp544
(dp545
bg2
(I858
tp546
Rp547
(dp548
btp549
Rp550
(dp551
bag1
(g2
(I914
tp552
Rp553
(dp554
bg2
(I78
tp555
Rp556
(dp557
btp558
Rp559
(dp560
bag1
(g2
(I639
tp561
Rp562
(dp563
bg2
(I416
tp564
Rp565
(dp566
btp567
Rp568
(dp569
bag1
(g2
(I874
tp570
Rp571
(dp572
bg2
(I738
tp573
Rp574
(dp575
btp576
Rp577
(dp578
bag1
(g2
(I944
tp579
Rp580
(dp581
bg400
tp582
Rp583
(dp584
bag1
(g2
(I48
tp585
Rp586
(dp587
bg2
(I655
tp588
Rp589
(dp590
btp591
Rp592
(dp593
bag1
(g2
(I479
tp594
Rp595
(dp596
bg2
(I722
tp597
Rp598
(dp599
btp600
Rp601
(dp602
bag1
(g2
(I527
tp603
Rp604
(dp605
bg2
(I482
tp606
Rp607
(dp608
btp609
Rp610
(dp611
bag1
(g2
(I495
tp612
Rp613
(dp614
bg2
(I80
tp615
Rp616
(dp617
btp618
Rp619
(dp620
bag1
(g2
(I426
tp621
Rp622
(dp623
bg2
(I225
tp624
Rp625
(dp626
btp627
Rp628
(dp629
bag1
(g2
(I707
tp630
Rp631
(dp632
bg2
(I140
tp633
Rp634
(dp635
btp636
Rp637
(dp638
bag1
(g2
(I439
tp639
Rp640
(dp641
bg2
(I213
tp642
Rp643
(dp644
btp645
Rp646
(dp647
bag1
(g2
(I697
tp648
Rp649
(dp650
bg2
(I863
tp651
Rp652
(dp653
btp654
Rp655
(dp656
bag1
(g2
(I90
tp657
Rp658
(dp659
bg2
(I320
tp660
Rp661
(dp662
btp663
Rp664
(dp665
bag1
(g226
g2
(I876
tp666
Rp667
(dp668
btp669
Rp670
(dp671
bag1
(g2
(I654
tp672
Rp673
(dp674
bg2
(I56
tp675
Rp676
(dp677
btp678
Rp679
(dp680
bag1
(g2
(I82
tp681
Rp682
(dp683
bg2
(I862
tp684
Rp685
(dp686
btp687
Rp688
(dp689
bag1
(g2
(I43
tp690
Rp691
(dp692
bg22
tp693
Rp694
(dp695
bag1
(g2
(I544
tp696
Rp697
(dp698
bg2
(I141
tp699
Rp700
(dp701
btp702
Rp703
(dp704
bag1
(g412
g2
(I437
tp705
Rp706
(dp707
btp708
Rp709
(dp710
bag1
(g2
(I710
tp711
Rp712
(dp713
bg2
(I730
tp714
Rp715
(dp716
btp717
Rp718
(dp719
bag1
(g2
(I247
tp720
Rp721
(dp722
bg2
(I891
tp723
Rp724
(dp725
btp726
Rp727
(dp728
bag1
(g2
(I497
tp729
Rp730
(dp731
bg658
tp732
Rp733
(dp734
bag1
(g616
g2
(I202
tp735
Rp736
(dp737
btp738
Rp739
(dp740
bag1
(g2
(I883
tp741
Rp742
(dp743
bg2
(I119
tp744
Rp745
(dp746
btp747
Rp748
(dp749
bag1
(g2
(I532
tp750
Rp751
(dp752
bg2
(I887
tp753
Rp754
(dp755
btp756
Rp757
(dp758
bag1
(g2
(I97
tp759
Rp760
(dp761
bg2
(I286
tp762
Rp763
(dp764
btp765
Rp766
(dp767
bag1
(g2
(I956
tp768
Rp769
(dp770
bg2
(I53
tp771
Rp772
(dp773
btp774
Rp775
(dp776
bag1
(g2
(I113
tp777
Rp778
(dp779
bg2
(I764
tp780
Rp781
(dp782
btp783
Rp784
(dp785
bag1
(g181
g2
(I718
tp786
Rp787
(dp788
btp789
Rp790
(dp791
bag1
(g2
(I308
tp792
Rp793
(dp794
bg2
(I69
tp795
Rp796
(dp797
btp798
Rp799
(dp800
bag1
(g2
(I587
tp801
Rp802
(dp803
bg2
(I632
tp804
Rp805
(dp806
btp807
Rp808
(dp809
bag1
(g2
(I674
tp810
Rp811
(dp812
bg2
(I503
tp813
Rp814
(dp815
btp816
Rp817
(dp818
bag1
(g2
(I160
tp819
Rp820
(dp821
bg2
(I420
tp822
Rp823
(dp824
btp825
Rp826
(dp827
bag1
(g2
(I992
tp828
Rp829
(dp830
bg2
(I649
tp831
Rp832
(dp833
btp834
Rp835
(dp836
bag1
(g2
(I192
tp837
Rp838
(dp839
bg2
(I483
tp840
Rp841
(dp842
btp843
Rp844
(dp845
bag1
(g2
(I131
tp846
Rp847
(dp848
bg2
(I879
tp849
Rp850
(dp851
btp852
Rp853
(dp854
bag1
(g2
(I200
tp855
Rp856
(dp857
bg2
(I647
tp858
Rp859
(dp860
btp861
Rp862
(dp863
bag1
(g2
(I217
tp864
Rp865
(dp866
bg2
(I997
tp867
Rp868
(dp869
btp870
Rp871
(dp872
bag1
(g2
(I953
tp873
Rp874
(dp875
bg2
(I781
tp876
Rp877
(dp878
btp879
Rp880
(dp881
bag1
(g2
(I552
tp882
Rp883
(dp884
bg2
(I452
tp885
Rp886
(dp887
btp888
Rp889
(dp890
bag1
(g2
(I500
tp891
Rp892
(dp893
bg613
tp894
Rp895
(dp896
bag1
(g2
(I353
tp897
Rp898
(dp899
bg2
(I774
tp900
Rp901
(dp902
btp903
Rp904
(dp905
bag1
(g2
(I445
tp906
Rp907
(dp908
bg145
tp909
Rp910
(dp911
bag1
(g430
g2
(I696
tp912
Rp913
(dp914
btp915
Rp916
(dp917
bag1
(g2
(I215
tp918
Rp919
(dp920
bg2
(I954
tp921
Rp922
(dp923
btp924
Rp925
(dp926
bag1
(g2
(I299
tp927
Rp928
(dp929
bg2
(I648
tp930
Rp931
(dp932
btp933
Rp934
(dp935
bag1
(g2
(I71
tp936
Rp937
(dp938
bg2
(I916
tp939
Rp940
(dp941
btp942
Rp943
(dp944
bag1
(g2
(I336
tp945
Rp946
(dp947
bg2
(I423
tp948
Rp949
(dp950
btp951
Rp952
(dp953
bag1
(g2
(I523
tp954
Rp955
(dp956
bg2
(I957
tp957
Rp958
(dp959
btp960
Rp961
(dp962
bag1
(g2
(I303
tp963
Rp964
(dp965
bg2
(I465
tp966
Rp967
(dp968
btp969
Rp970
(dp971
bag1
(g2
(I481
tp972
Rp973
(dp974
bg2
(I934
tp975
Rp976
(dp977
btp978
Rp979
(dp980
bag1
(g2
(I283
tp981
Rp982
(dp983
bg2
(I919
tp984
Rp985
(dp986
btp987
Rp988
(dp989
bag1
(g2
(I867
tp990
Rp991
(dp992
bg2
(I640
tp993
Rp994
(dp995
btp996
Rp997
(dp998
bag1
(g2
(I457
tp999
Rp1000
(dp1001
bg2
(I977
tp1002
Rp1003
(dp1004
btp1005
Rp1006
(dp1007
bag1
(g2
(I822
tp1008
Rp1009
(dp1010
bg2
(I346
tp1011
Rp1012
(dp1013
btp1014
Rp1015
(dp1016
bag1
(g2
(I285
tp1017
Rp1018
(dp1019
bg898
tp1020
Rp1021
(dp1022
bag1
(g235
g2
(I490
tp1023
Rp1024
(dp1025
btp1026
Rp1027
(dp1028
bag1
(g2
(I555
tp1029
Rp1030
(dp1031
bg2
(I731
tp1032
Rp1033
(dp1034
btp1035
Rp1036
(dp1037
bag1
(g490
g2
(I92
tp1038
Rp1039
(dp1040
btp1041
Rp1042
(dp1043
bag1
(g2
(I938
tp1044
Rp1045
(dp1046
bg2
(I625
tp1047
Rp1048
(dp1049
btp1050
Rp1051
(dp1052
bag1
(g271
g2
(I794
tp1053
Rp1054
(dp1055
btp1056
Rp1057
(dp1058
bag1
(g2
(I368
tp1059
Rp1060
(dp1061
bg2
(I968
tp1062
Rp1063
(dp1064
btp1065
Rp1066
(dp1067
bag1
(g1054
g2
(I575
tp1068
Rp1069
(dp1070
btp1071
Rp1072
(dp1073
bag1
(g589
g2
(I827
tp1074
Rp1075
(dp1076
btp1077
Rp1078
(dp1079
bag1
(g448
g2
(I265
tp1080
Rp1081
(dp1082
btp1083
Rp1084
(dp1085
bag1
(g2
(I270
tp1086
Rp1087
(dp1088
bg2
(I199
tp1089
Rp1090
(dp1091
btp1092
Rp1093
(dp1094
bag1
(g2
(I960
tp1095
Rp1096
(dp1097
bg2
(I504
tp1098
Rp1099
(dp1100
btp1101
Rp1102
(dp1103
bag1
(g2
(I563
tp1104
Rp1105
(dp1106
bg2
(I251
tp1107
Rp1108
(dp1109
btp1110
Rp1111
(dp1112
bag1
(g2
(I542
tp1113
Rp1114
(dp1115
bg2
(I85
tp1116
Rp1117
(dp1118
btp1119
Rp1120
(dp1121
bag1
(g2
(I652
tp1122
Rp1123
(dp1124
bg2
(I484
tp1125
Rp1126
(dp1127
btp1128
Rp1129
(dp1130
bag1
(g2
(I842
tp1131
Rp1132
(dp1133
bg2
(I388
tp1134
Rp1135
(dp1136
btp1137
Rp1138
(dp1139
bag1
(g2
(I567
tp1140
Rp1141
(dp1142
bg2
(I339
tp1143
Rp1144
(dp1145
btp1146
Rp1147
(dp1148
bag1
(g2
(I266
tp1149
Rp1150
(dp1151
bg2
(I819
tp1152
Rp1153
(dp1154
btp1155
Rp1156
(dp1157
bag1
(g2
(I402
tp1158
Rp1159
(dp1160
bg2
(I987
tp1161
Rp1162
(dp1163
btp1164
Rp1165
(dp1166
bag1
(g2
(I592
tp1167
Rp1168
(dp1169
bg2
(I295
tp1170
Rp1171
(dp1172
btp1173
Rp1174
(dp1175
bag1
(g565
g2
(I581
tp1176
Rp1177
(dp1178
btp1179
Rp1180
(dp1181
bag1
(g2
(I929
tp1182
Rp1183
(dp1184
bg2
(I463
tp1185
Rp1186
(dp1187
btp1188
Rp1189
(dp1190
bag1
(g2
(I908
tp1191
Rp1192
(dp1193
bg409
tp1194
Rp1195
(dp1196
bag1
(g2
(I993
tp1197
Rp1198
(dp1199
bg2
(I506
tp1200
Rp1201
(dp1202
btp1203
Rp1204
(dp1205
bag1
(g724
g2
(I836
tp1206
Rp1207
(dp1208
btp1209
Rp1210
(dp1211
bag1
(g2
(I937
tp1212
Rp1213
(dp1214
bg2
(I456
tp1215
Rp1216
(dp1217
btp1218
Rp1219
(dp1220
bag1
(g547
g2
(I757
tp1221
Rp1222
(dp1223
btp1224
Rp1225
(dp1226
bag1
(g2
(I580
tp1227
Rp1228
(dp1229
bg2
(I471
tp1230
Rp1231
(dp1232
btp1233
Rp1234
(dp1235
bag1
(g2
(I896
tp1236
Rp1237
(dp1238
bg2
(I280
tp1239
Rp1240
(dp1241
btp1242
Rp1243
(dp1244
bag1
(g2
(I624
tp1245
Rp1246
(dp1247
bg2
(I480
tp1248
Rp1249
(dp1250
btp1251
Rp1252
(dp1253
bag1
(g2
(I664
tp1254
Rp1255
(dp1256
bg2
(I815
tp1257
Rp1258
(dp1259
btp1260
Rp1261
(dp1262
bag1
(g2
(I688
tp1263
Rp1264
(dp1265
bg2
(I70
tp1266
Rp1267
(dp1268
btp1269
Rp1270
(dp1271
bag1
(g2
(I577
tp1272
Rp1273
(dp1274
bg2
(I717
tp1275
Rp1276
(dp1277
btp1278
Rp1279
(dp1280
bag1
(g2
(I138
tp1281
Rp1282
(dp1283
bg2
(I616
tp1284
Rp1285
(dp1286
btp1287
Rp1288
(dp1289
bag1
(g2
(I699
tp1290
Rp1291
(dp1292
bg2
(I750
tp1293
Rp1294
(dp1295
btp1296
Rp1297
(dp1298
bag1
(g2
(I548
tp1299
Rp1300
(dp1301
bg2
(I597
tp1302
Rp1303
(dp1304
btp1305
Rp1306
(dp1307
bag1
(g466
g2
(I241
tp1308
Rp1309
(dp1310
btp1311
Rp1312
(dp1313
bag1
(g805
g2
(I950
tp1314
Rp1315
(dp1316
btp1317
Rp1318
(dp1319
bag1
(g2
(I872
tp1320
Rp1321
(dp1322
bg937
tp1323
Rp1324
(dp1325
bag1
(g2
(I226
tp1326
Rp1327
(dp1328
bg286
tp1329
Rp1330
(dp1331
bag1
(g121
g2
(I777
tp1332
Rp1333
(dp1334
btp1335
Rp1336
(dp1337
bag1
(g2
(I35
tp1338
Rp1339
(dp1340
bg2
(I385
tp1341
Rp1342
(dp1343
btp1344
Rp1345
(dp1346
bag1
(g2
(I809
tp1347
Rp1348
(dp1349
bg2
(I84
tp1350
Rp1351
(dp1352
btp1353
Rp1354
(dp1355
bag1
(g2
(I300
tp1356
Rp1357
(dp1358
bg2
(I693
tp1359
Rp1360
(dp1361
btp1362
Rp1363
(dp1364
bag1
(g2
(I196
tp1365
Rp1366
(dp1367
bg2
(I257
tp1368
Rp1369
(dp1370
btp1371
Rp1372
(dp1373
bag1
(g2
(I359
tp1374
Rp1375
(dp1376
bg2
(I302
tp1377
Rp1378
(dp1379
btp1380
Rp1381
(dp1382
bag1
(g2
(I223
tp1383
Rp1384
(dp1385
bg2
(I367
tp1386
Rp1387
(dp1388
btp1389
Rp1390
(dp1391
bag1
(g796
g2
(I328
tp1392
Rp1393
(dp1394
btp1395
Rp1396
(dp1397
bag1
(g2
(I920
tp1398
Rp1399
(dp1400
bg2
(I775
tp1401
Rp1402
(dp1403
btp1404
Rp1405
(dp1406
bag1
(g2
(I312
tp1407
Rp1408
(dp1409
bg2
(I361
tp1410
Rp1411
(dp1412
btp1413
Rp1414
(dp1415
bag1
(g2
(I54
tp1416
Rp1417
(dp1418
bg2
(I441
tp1419
Rp1420
(dp1421
btp1422
Rp1423
(dp1424
bag1
(g2
(I528
tp1425
Rp1426
(dp1427
bg223
tp1428
Rp1429
(dp1430
bag1
(g1342
g1417
tp1431
Rp1432
(dp1433
bag1
(g2
(I739
tp1434
Rp1435
(dp1436
bg2
(I511
tp1437
Rp1438
(dp1439
btp1440
Rp1441
(dp1442
bag1
(g2
(I327
tp1443
Rp1444
(dp1445
bg2
(I614
tp1446
Rp1447
(dp1448
btp1449
Rp1450
(dp1451
bag1
(g139
g2
(I494
tp1452
Rp1453
(dp1454
btp1455
Rp1456
(dp1457
bag1
(g2
(I844
tp1458
Rp1459
(dp1460
bg2
(I470
tp1461
Rp1462
(dp1463
btp1464
Rp1465
(dp1466
bag1
(g1315
g2
(I444
tp1467
Rp1468
(dp1469
btp1470
Rp1471
(dp1472
bag1
(g2
(I735
tp1473
Rp1474
(dp1475
bg2
(I318
tp1476
Rp1477
(dp1478
btp1479
Rp1480
(dp1481
bag1
(g2
(I714
tp1482
Rp1483
(dp1484
bg373
tp1485
Rp1486
(dp1487
bag1
(g61
g2
(I912
tp1488
Rp1489
(dp1490
btp1491
Rp1492
(dp1493
bag1
(g2
(I384
tp1494
Rp1495
(dp1496
bg2
(I218
tp1497
Rp1498
(dp1499
btp1500
Rp1501
(dp1502
bag1
(g2
(I703
tp1503
Rp1504
(dp1505
bg2
(I756
tp1506
Rp1507
(dp1508
btp1509
Rp1510
(dp1511
bag1
(g2
(I630
tp1512
Rp1513
(dp1514
bg2
(I826
tp1515
Rp1516
(dp1517
btp1518
Rp1519
(dp1520
bag1
(g2
(I807
tp1521
Rp1522
(dp1523
bg2
(I252
tp1524
Rp1525
(dp1526
btp1527
Rp1528
(dp1529
bag1
(g2
(I314
tp1530
Rp1531
(dp1532
bg2
(I554
tp1533
Rp1534
(dp1535
btp1536
Rp1537
(dp1538
bag1
(g814
g2
(I675
tp1539
Rp1540
(dp1541
btp1542
Rp1543
(dp1544
bag1
(g2
(I393
tp1545
Rp1546
(dp1547
bg2
(I38
tp1548
Rp1549
(dp1550
btp1551
Rp1552
(dp1553
bag1
(g2
(I120
tp1554
Rp1555
(dp1556
bg2
(I551
tp1557
Rp1558
(dp1559
btp1560
Rp1561
(dp1562
bag1
(g1558
g241
tp1563
Rp1564
(dp1565
bag1
(g2
(I171
tp1566
Rp1567
(dp1568
bg2
(I996
tp1569
Rp1570
(dp1571
btp1572
Rp1573
(dp1574
bag1
(g2
(I311
tp1575
Rp1576
(dp1577
bg2
(I242
tp1578
Rp1579
(dp1580
btp1581
Rp1582
(dp1583
bag1
(g2
(I335
tp1584
Rp1585
(dp1586
bg2
(I921
tp1587
Rp1588
(dp1589
btp1590
Rp1591
(dp1592
bag1
(g2
(I637
tp1593
Rp1594
(dp1595
bg2
(I560
tp1596
Rp1597
(dp1598
btp1599
Rp1600
(dp1601
bag1
(g2
(I843
tp1602
Rp1603
(dp1604
bg277
tp1605
Rp1606
(dp1607
bag1
(g1177
g2
(I743
tp1608
Rp1609
(dp1610
btp1611
Rp1612
(dp1613
bag1
(g2
(I354
tp1614
Rp1615
(dp1616
bg2
(I679
tp1617
Rp1618
(dp1619
btp1620
Rp1621
(dp1622
bag1
(g2
(I573
tp1623
Rp1624
(dp1625
bg2
(I606
tp1626
Rp1627
(dp1628
btp1629
Rp1630
(dp1631
bag1
(g2
(I635
tp1632
Rp1633
(dp1634
bg2
(I861
tp1635
Rp1636
(dp1637
btp1638
Rp1639
(dp1640
bag1
(g2
(I603
tp1641
Rp1642
(dp1643
bg2
(I142
tp1644
Rp1645
(dp1646
btp1647
Rp1648
(dp1649
bag1
(g2
(I600
tp1650
Rp1651
(dp1652
bg2
(I514
tp1653
Rp1654
(dp1655
btp1656
Rp1657
(dp1658
bag1
(g1024
g2
(I534
tp1659
Rp1660
(dp1661
btp1662
Rp1663
(dp1664
bag1
(g2
(I101
tp1665
Rp1666
(dp1667
bg2
(I877
tp1668
Rp1669
(dp1670
btp1671
Rp1672
(dp1673
bag1
(g2
(I612
tp1674
Rp1675
(dp1676
bg1546
tp1677
Rp1678
(dp1679
bag1
(g2
(I644
tp1680
Rp1681
(dp1682
bg2
(I657
tp1683
Rp1684
(dp1685
btp1686
Rp1687
(dp1688
bag1
(g2
(I55
tp1689
Rp1690
(dp1691
bg427
tp1692
Rp1693
(dp1694
bag1
(g685
g2
(I330
tp1695
Rp1696
(dp1697
btp1698
Rp1699
(dp1700
bag1
(g2
(I276
tp1701
Rp1702
(dp1703
bg2
(I254
tp1704
Rp1705
(dp1706
btp1707
Rp1708
(dp1709
bag1
(g2
(I524
tp1710
Rp1711
(dp1712
bg1273
tp1713
Rp1714
(dp1715
bag1
(g2
(I890
tp1716
Rp1717
(dp1718
bg2
(I792
tp1719
Rp1720
(dp1721
btp1722
Rp1723
(dp1724
bag1
(g2
(I765
tp1725
Rp1726
(dp1727
bg2
(I443
tp1728
Rp1729
(dp1730
btp1731
Rp1732
(dp1733
bag1
(g1393
g2
(I830
tp1734
Rp1735
(dp1736
btp1737
Rp1738
(dp1739
bag1
(g901
g2
(I417
tp1740
Rp1741
(dp1742
btp1743
Rp1744
(dp1745
bag1
(g2
(I203
tp1746
Rp1747
(dp1748
bg1123
tp1749
Rp1750
(dp1751
bag1
(g2
(I273
tp1752
Rp1753
(dp1754
bg2
(I11
tp1755
Rp1756
(dp1757
btp1758
Rp1759
(dp1760
bag1
(g2
(I967
tp1761
Rp1762
(dp1763
bg2
(I485
tp1764
Rp1765
(dp1766
btp1767
Rp1768
(dp1769
bag1
(g2
(I708
tp1770
Rp1771
(dp1772
bg2
(I325
tp1773
Rp1774
(dp1775
btp1776
Rp1777
(dp1778
bag1
(g2
(I16
tp1779
Rp1780
(dp1781
bg2
(I95
tp1782
Rp1783
(dp1784
btp1785
Rp1786
(dp1787
bag1
(g16
g2
(I911
tp1788
Rp1789
(dp1790
btp1791
Rp1792
(dp1793
bag1
(g2
(I42
tp1794
Rp1795
(dp1796
bg2
(I617
tp1797
Rp1798
(dp1799
btp1800
Rp1801
(dp1802
bag1
(g2
(I7
tp1803
Rp1804
(dp1805
bg2
(I419
tp1806
Rp1807
(dp1808
btp1809
Rp1810
(dp1811
bag1
(g2
(I496
tp1812
Rp1813
(dp1814
bg2
(I489
tp1815
Rp1816
(dp1817
btp1818
Rp1819
(dp1820
bag1
(g2
(I326
tp1821
Rp1822
(dp1823
bg2
(I530
tp1824
Rp1825
(dp1826
btp1827
Rp1828
(dp1829
bag1
(g2
(I68
tp1830
Rp1831
(dp1832
bg2
(I979
tp1833
Rp1834
(dp1835
btp1836
Rp1837
(dp1838
bag1
(g1201
g2
(I945
tp1839
Rp1840
(dp1841
btp1842
Rp1843
(dp1844
bag1
(g1807
g2
(I973
tp1845
Rp1846
(dp1847
btp1848
Rp1849
(dp1850
bag1
(g499
g2
(I658
tp1851
Rp1852
(dp1853
btp1854
Rp1855
(dp1856
bag1
(g2
(I370
tp1857
Rp1858
(dp1859
bg2
(I83
tp1860
Rp1861
(dp1862
btp1863
Rp1864
(dp1865
bag1
(g2
(I274
tp1866
Rp1867
(dp1868
bg295
tp1869
Rp1870
(dp1871
bag1
(g2
(I759
tp1872
Rp1873
(dp1874
bg2
(I290
tp1875
Rp1876
(dp1877
btp1878
Rp1879
(dp1880
bag1
(g2
(I964
tp1881
Rp1882
(dp1883
bg640
tp1884
Rp1885
(dp1886
bag1
(g2
(I422
tp1887
Rp1888
(dp1889
bg2
(I949
tp1890
Rp1891
(dp1892
btp1893
Rp1894
(dp1895
bag1
(g2
(I365
tp1896
Rp1897
(dp1898
bg2
(I629
tp1899
Rp1900
(dp1901
btp1902
Rp1903
(dp1904
bag1
(g2
(I974
tp1905
Rp1906
(dp1907
bg2
(I875
tp1908
Rp1909
(dp1910
btp1911
Rp1912
(dp1913
bag1
(g2
(I709
tp1914
Rp1915
(dp1916
bg2
(I234
tp1917
Rp1918
(dp1919
btp1920
Rp1921
(dp1922
bag1
(g2
(I593
tp1923
Rp1924
(dp1925
bg259
tp1926
Rp1927
(dp1928
bag1
(g2
(I118
tp1929
Rp1930
(dp1931
bg2
(I848
tp1932
Rp1933
(dp1934
btp1935
Rp1936
(dp1937
bag1
(g2
(I930
tp1938
Rp1939
(dp1940
bg820
tp1941
Rp1942
(dp1943
bag1
(g2
(I726
tp1944
Rp1945
(dp1946
bg2
(I803
tp1947
Rp1948
(dp1949
btp1950
Rp1951
(dp1952
bag1
(g2
(I501
tp1953
Rp1954
(dp1955
bg2
(I453
tp1956
Rp1957
(dp1958
btp1959
Rp1960
(dp1961
bag1
(g2
(I492
tp1962
Rp1963
(dp1964
bg2
(I776
tp1965
Rp1966
(dp1967
btp1968
Rp1969
(dp1970
bag1
(g2
(I791
tp1971
Rp1972
(dp1973
bg2
(I474
tp1974
Rp1975
(dp1976
btp1977
Rp1978
(dp1979
bag1
(g2
(I209
tp1980
Rp1981
(dp1982
bg2
(I275
tp1983
Rp1984
(dp1985
btp1986
Rp1987
(dp1988
bag1
(g1735
g445
tp1989
Rp1990
(dp1991
bag1
(g2
(I932
tp1992
Rp1993
(dp1994
bg2
(I147
tp1995
Rp1996
(dp1997
btp1998
Rp1999
(dp2000
bag1
(g2
(I626
tp2001
Rp2002
(dp2003
bg2
(I810
tp2004
Rp2005
(dp2006
btp2007
Rp2008
(dp2009
bag1
(g1267
g2
(I239
tp2010
Rp2011
(dp2012
btp2013
Rp2014
(dp2015
bag1
(g574
g1747
tp2016
Rp2017
(dp2018
bag1
(g1876
g2
(I880
tp2019
Rp2020
(dp2021
btp2022
Rp2023
(dp2024
bag1
(g2
(I900
tp2025
Rp2026
(dp2027
bg2
(I137
tp2028
Rp2029
(dp2030
btp2031
Rp2032
(dp2033
bag1
(g1162
g2
(I212
tp2034
Rp2035
(dp2036
btp2037
Rp2038
(dp2039
bag1
(g1294
g919
tp2040
Rp2041
(dp2042
bag1
(g2
(I692
tp2043
Rp2044
(dp2045
bg2
(I151
tp2046
Rp2047
(dp2048
btp2049
Rp2050
(dp2051
bag1
(g598
g2
(I360
tp2052
Rp2053
(dp2054
btp2055
Rp2056
(dp2057
bag1
(g2
(I788
tp2058
Rp2059
(dp2060
bg2
(I111
tp2061
Rp2062
(dp2063
btp2064
Rp2065
(dp2066
bag1
(g2
(I678
tp2067
Rp2068
(dp2069
bg2
(I683
tp2070
Rp2071
(dp2072
btp2073
Rp2074
(dp2075
bag1
(g2
(I428
tp2076
Rp2077
(dp2078
bg982
tp2079
Rp2080
(dp2081
bag1
(g2
(I855
tp2082
Rp2083
(dp2084
bg2068
tp2085
Rp2086
(dp2087
bag1
(g1618
g2
(I364
tp2088
Rp2089
(dp2090
btp2091
Rp2092
(dp2093
bag1
(g2
(I139
tp2094
Rp2095
(dp2096
bg2
(I18
tp2097
Rp2098
(dp2099
btp2100
Rp2101
(dp2102
bag1
(g2011
g2
(I701
tp2103
Rp2104
(dp2105
btp2106
Rp2107
(dp2108
bag1
(g2
(I558
tp2109
Rp2110
(dp2111
bg2
(I122
tp2112
Rp2113
(dp2114
btp2115
Rp2116
(dp2117
bag1
(g2
(I89
tp2118
Rp2119
(dp2120
bg2
(I108
tp2121
Rp2122
(dp2123
btp2124
Rp2125
(dp2126
bag1
(g1852
g2
(I525
tp2127
Rp2128
(dp2129
btp2130
Rp2131
(dp2132
bag1
(g2
(I143
tp2133
Rp2134
(dp2135
bg85
tp2136
Rp2137
(dp2138
bag1
(g2020
g13
tp2139
Rp2140
(dp2141
bag1
(g2062
g2
(I476
tp2142
Rp2143
(dp2144
btp2145
Rp2146
(dp2147
bag1
(g2
(I362
tp2148
Rp2149
(dp2150
bg2
(I230
tp2151
Rp2152
(dp2153
btp2154
Rp2155
(dp2156
bag1
(g2
(I922
tp2157
Rp2158
(dp2159
bg2
(I706
tp2160
Rp2161
(dp2162
btp2163
Rp2164
(dp2165
bag1
(g2
(I849
tp2166
Rp2167
(dp2168
bg2
(I466
tp2169
Rp2170
(dp2171
btp2172
Rp2173
(dp2174
bag1
(g2
(I51
tp2175
Rp2176
(dp2177
bg1567
tp2178
Rp2179
(dp2180
bag1
(g2
(I182
tp2181
Rp2182
(dp2183
bg2
(I149
tp2184
Rp2185
(dp2186
btp2187
Rp2188
(dp2189
bag1
(g2
(I760
tp2190
Rp2191
(dp2192
bg1282
tp2193
Rp2194
(dp2195
bag1
(g913
g2
(I493
tp2196
Rp2197
(dp2198
btp2199
Rp2200
(dp2201
bag1
(g2
(I537
tp2202
Rp2203
(dp2204
bg1651
tp2205
Rp2206
(dp2207
bag1
(g7
g2
(I885
tp2208
Rp2209
(dp2210
btp2211
Rp2212
(dp2213
bag1
(g2
(I459
tp2214
Rp2215
(dp2216
bg811
tp2217
Rp2218
(dp2219
bag1
(g2
(I246
tp2220
Rp2221
(dp2222
bg2
(I724
tp2223
Rp2224
(dp2225
btp2226
Rp2227
(dp2228
bag1
(g2
(I599
tp2229
Rp2230
(dp2231
bg1246
tp2232
Rp2233
(dp2234
bag1
(g2
(I941
tp2235
Rp2236
(dp2237
bg2
(I321
tp2238
Rp2239
(dp2240
btp2241
Rp2242
(dp2243
bag1
(g52
g2
(I352
tp2244
Rp2245
(dp2246
btp2247
Rp2248
(dp2249
bag1
(g2
(I427
tp2250
Rp2251
(dp2252
bg2
(I467
tp2253
Rp2254
(dp2255
btp2256
Rp2257
(dp2258
bag1
(g163
g1327
tp2259
Rp2260
(dp2261
bag1
(g2047
g2
(I980
tp2262
Rp2263
(dp2264
btp2265
Rp2266
(dp2267
bag1
(g2
(I813
tp2268
Rp2269
(dp2270
bg2
(I412
tp2271
Rp2272
(dp2273
btp2274
Rp2275
(dp2276
bag1
(g832
g622
tp2277
Rp2278
(dp2279
bag1
(g2
(I758
tp2280
Rp2281
(dp2282
bg2
(I928
tp2283
Rp2284
(dp2285
btp2286
Rp2287
(dp2288
bag1
(g2
(I840
tp2289
Rp2290
(dp2291
bg2
(I588
tp2292
Rp2293
(dp2294
btp2295
Rp2296
(dp2297
bag1
(g2
(I229
tp2298
Rp2299
(dp2300
bg2
(I323
tp2301
Rp2302
(dp2303
btp2304
Rp2305
(dp2306
bag1
(g2
(I773
tp2307
Rp2308
(dp2309
bg2
(I498
tp2310
Rp2311
(dp2312
btp2313
Rp2314
(dp2315
bag1
(g148
g1045
tp2316
Rp2317
(dp2318
bag1
(g1597
g2
(I583
tp2319
Rp2320
(dp2321
btp2322
Rp2323
(dp2324
bag1
(g2
(I572
tp2325
Rp2326
(dp2327
bg2
(I121
tp2328
Rp2329
(dp2330
btp2331
Rp2332
(dp2333
bag1
(g556
g2
(I166
tp2334
Rp2335
(dp2336
btp2337
Rp2338
(dp2339
bag1
(g1579
g1954
tp2340
Rp2341
(dp2342
bag1
(g2
(I598
tp2343
Rp2344
(dp2345
bg1615
tp2346
Rp2347
(dp2348
bag1
(g2
(I177
tp2349
Rp2350
(dp2351
bg2
(I61
tp2352
Rp2353
(dp2354
btp2355
Rp2356
(dp2357
bag1
(g1012
g1522
tp2358
Rp2359
(dp2360
bag1
(g2
(I728
tp2361
Rp2362
(dp2363
bg2
(I27
tp2364
Rp2365
(dp2366
btp2367
Rp2368
(dp2369
bag1
(g1729
g2
(I745
tp2370
Rp2371
(dp2372
btp2373
Rp2374
(dp2375
bag1
(g2
(I969
tp2376
Rp2377
(dp2378
bg1030
tp2379
Rp2380
(dp2381
bag1
(g1570
g2
(I817
tp2382
Rp2383
(dp2384
btp2385
Rp2386
(dp2387
bag1
(g2245
g2
(I574
tp2388
Rp2389
(dp2390
btp2391
Rp2392
(dp2393
bag1
(g2
(I852
tp2394
Rp2395
(dp2396
bg2
(I170
tp2397
Rp2398
(dp2399
btp2400
Rp2401
(dp2402
bag1
(g2
(I338
tp2403
Rp2404
(dp2405
bg313
tp2406
Rp2407
(dp2408
bag1
(g1909
g2
(I878
tp2409
Rp2410
(dp2411
btp2412
Rp2413
(dp2414
bag1
(g2
(I62
tp2415
Rp2416
(dp2417
bg196
tp2418
Rp2419
(dp2420
bag1
(g2
(I789
tp2421
Rp2422
(dp2423
bg2
(I287
tp2424
Rp2425
(dp2426
btp2427
Rp2428
(dp2429
bag1
(g2
(I451
tp2430
Rp2431
(dp2432
bg553
tp2433
Rp2434
(dp2435
bag1
(g2
(I845
tp2436
Rp2437
(dp2438
bg2
(I176
tp2439
Rp2440
(dp2441
btp2442
Rp2443
(dp2444
bag1
(g2
(I472
tp2445
Rp2446
(dp2447
bg562
tp2448
Rp2449
(dp2450
bag1
(g2
(I871
tp2451
Rp2452
(dp2453
bg100
tp2454
Rp2455
(dp2456
bag1
(g2
(I332
tp2457
Rp2458
(dp2459
bg1141
tp2460
Rp2461
(dp2462
bag1
(g2
(I23
tp2463
Rp2464
(dp2465
bg2167
tp2466
Rp2467
(dp2468
bag1
(g2
(I886
tp2469
Rp2470
(dp2471
bg2
(I570
tp2472
Rp2473
(dp2474
btp2475
Rp2476
(dp2477
bag1
(g2
(I645
tp2478
Rp2479
(dp2480
bg2
(I903
tp2481
Rp2482
(dp2483
btp2484
Rp2485
(dp2486
bag1
(g2
(I125
tp2487
Rp2488
(dp2489
bg2
(I432
tp2490
Rp2491
(dp2492
btp2493
Rp2494
(dp2495
bag1
(g2
(I825
tp2496
Rp2497
(dp2498
bg2
(I375
tp2499
Rp2500
(dp2501
btp2502
Rp2503
(dp2504
bag1
(g2
(I291
tp2505
Rp2506
(dp2507
bg2
(I935
tp2508
Rp2509
(dp2510
btp2511
Rp2512
(dp2513
bag1
(g2
(I517
tp2514
Rp2515
(dp2516
bg2
(I689
tp2517
Rp2518
(dp2519
btp2520
Rp2521
(dp2522
bag1
(g2
(I860
tp2523
Rp2524
(dp2525
bg2
(I931
tp2526
Rp2527
(dp2528
btp2529
Rp2530
(dp2531
bag1
(g1588
g802
tp2532
Rp2533
(dp2534
ba.