(lp0
csympy.geometry.point
Point2D
p1
(csympy.core.numbers
Integer
p2
(I730
tp3
Rp4
(dp5
bg2
(I910
tp6
Rp7
(dp8
btp9
Rp10
(dp11
bag1
(g2
(I947
tp12
Rp13
(dp14
bg2
(I239
tp15
Rp16
(dp17
btp18
Rp19
(dp20
bag1
(g2
(I423
tp21
Rp22
(dp23
bg2
(I72
tp24
Rp25
(dp26
btp27
Rp28
(dp29
bag1
(g2
(I27
tp30
Rp31
(dp32
bg2
(I124
tp33
Rp34
(dp35
btp36
Rp37
(dp38
bag1
(g2
(I131
tp39
Rp40
(dp41
bg2
(I796
tp42
Rp43
(dp44
btp45
Rp46
(dp47
bag1
(g2
(I435
tp48
Rp49
(dp50
bg2
(I291
tp51
Rp52
(dp53
btp54
Rp55
(dp56
bag1
(g2
(I433
tp57
Rp58
(dp59
bg2
(I931
tp60
Rp61
(dp62
btp63
Rp64
(dp65
bag1
(g2
(I97
tp66
Rp67
(dp68
bg2
(I411
tp69
Rp70
(dp71
btp72
Rp73
(dp74
bag1
(g2
(I760
tp75
Rp76
(dp77
bg2
(I418
tp78
Rp79
(dp80
btp81
Rp82
(dp83
bag1
(g2
(I793
tp84
Rp85
(dp86
bg2
(I933
tp87
Rp88
(dp89
btp90
Rp91
(dp92
bag1
(g2
(I486
tp93
Rp94
(dp95
bg2
(I613
tp96
Rp97
(dp98
btp99
Rp100
(dp101
bag1
(g2
(I53
tp102
Rp103
(dp104
bg2
(I964
tp105
Rp106
(dp107
btp108
Rp109
(dp110
bag1
(g2
(I85
tp111
Rp112
(dp113
bg2
(I30
tp114
Rp115
(dp116
btp117
Rp118
(dp119
bag1
(g2
(I186
tp120
Rp121
(dp122
bg2
(I882
tp123
Rp124
(dp125
btp126
Rp127
(dp128
bag1
(g2
(I658
tp129
Rp130
(dp131
bg2
(I234
tp132
Rp133
(dp134
btp135
Rp136
(dp137
bag1
(g2
(I179
tp138
Rp139
(dp140
bg2
(I82
tp141
Rp142
(dp143
btp144
Rp145
(dp146
bag1
(g2
(I874
tp147
Rp148
(dp149
bg2
(I815
tp150
Rp151
(dp152
btp153
Rp154
(dp155
bag1
(g2
(I134
tp156
Rp157
(dp158
bg2
(I812
tp159
Rp160
(dp161
btp162
Rp163
(dp164
bag1
(g2
(I803
tp165
Rp166
(dp167
bg2
(I602
tp168
Rp169
(dp170
btp171
Rp172
(dp173
bag1
(g2
(I23
tp174
Rp175
(dp176
bg2
(I605
tp177
Rp178
(dp179
btp180
Rp181
(dp182
bag1
(g2
(I445
tp183
Rp184
(dp185
bg76
tp186
Rp187
(dp188
bag1
(g2
(I885
tp189
Rp190
(dp191
bg2
(I729
tp192
Rp193
(dp194
btp195
Rp196
(dp197
bag1
(g2
(I745
tp198
Rp199
(dp200
bg2
(I128
tp201
Rp202
(dp203
btp204
Rp205
(dp206
bag1
(g2
(I747
tp207
Rp208
(dp209
bg2
(I95
tp210
Rp211
(dp212
btp213
Rp214
(dp215
bag1
(g2
(I571
tp216
Rp217
(dp218
bg2
(I525
tp219
Rp220
(dp221
btp222
Rp223
(dp224
bag1
(g2
(I48
tp225
Rp226
(dp227
bg2
(I311
tp228
Rp229
(dp230
btp231
Rp232
(dp233
bag1
(g2
(I358
tp234
Rp235
(dp236
bg2
(I91
tp237
Rp238
(dp239
btp240
Rp241
(dp242
bag1
(g2
(I66
tp243
Rp244
(dp245
bg2
(I920
tp246
Rp247
(dp248
btp249
Rp250
(dp251
bag1
(g2
(I516
tp252
Rp253
(dp254
bg2
(I504
tp255
Rp256
(dp257
btp258
Rp259
(dp260
bag1
(g2
(I413
tp261
Rp262
(dp263
bg2
(I861
tp264
Rp265
(dp266
btp267
Rp268
(dp269
bag1
(g2
(I959
tp270
Rp271
(dp272
bg2
(I731
tp273
Rp274
(dp275
btp276
Rp277
(dp278
bag1
(g2
(I543
tp279
Rp280
(dp281
bg2
(I981
tp282
Rp283
(dp284
btp285
Rp286
(dp287
bag1
(g274
g2
(I52
tp288
Rp289
(dp290
btp291
Rp292
(dp293
bag1
(g2
(I369
tp294
Rp295
(dp296
bg2
(I930
tp297
Rp298
(dp299
btp300
Rp301
(dp302
bag1
(g2
(I843
tp303
Rp304
(dp305
bg2
(I702
tp306
Rp307
(dp308
btp309
Rp310
(dp311
bag1
(g2
(I877
tp312
Rp313
(dp314
bg2
(I106
tp315
Rp316
(dp317
btp318
Rp319
(dp320
bag1
(g2
(I735
tp321
Rp322
(dp323
bg2
(I775
tp324
Rp325
(dp326
btp327
Rp328
(dp329
bag1
(g2
(I855
tp330
Rp331
(dp332
bg2
(I454
tp333
Rp334
(dp335
btp336
Rp337
(dp338
bag1
(g2
(I50
tp339
Rp340
(dp341
bg2
(I894
tp342
Rp343
(dp344
btp345
Rp346
(dp347
bag1
(g2
(I593
tp348
Rp349
(dp350
bg2
(I177
tp351
Rp352
(dp353
btp354
Rp355
(dp356
bag1
(g2
(I77
tp357
Rp358
(dp359
bg199
tp360
Rp361
(dp362
bag1
(g2
(I432
tp363
Rp364
(dp365
bg2
(I152
tp366
Rp367
(dp368
btp369
Rp370
(dp371
bag1
(g2
(I612
tp372
Rp373
(dp374
bg2
(I54
tp375
Rp376
(dp377
btp378
Rp379
(dp380
bag1
(g2
(I825
tp381
Rp382
(dp383
bg2
(I204
tp384
Rp385
(dp386
btp387
Rp388
(dp389
bag1
(g2
(I46
tp390
Rp391
(dp392
bg2
(I771
tp393
Rp394
(dp395
btp396
Rp397
(dp398
bag1
(g2
(I145
tp399
Rp400
(dp401
bg2
(I645
tp402
Rp403
(dp404
btp405
Rp406
(dp407
bag1
(g2
(I758
tp408
Rp409
(dp410
bg2
(I277
tp411
Rp412
(dp413
btp414
Rp415
(dp416
bag1
(g2
(I554
tp417
Rp418
(dp419
bg2
(I415
tp420
Rp421
(dp422
btp423
Rp424
(dp425
bag1
(g25
g2
(I189
tp426
Rp427
(dp428
btp429
Rp430
(dp431
bag1
(g2
(I801
tp432
Rp433
(dp434
bg322
tp435
Rp436
(dp437
bag1
(g2
(I708
tp438
Rp439
(dp440
bg2
(I701
tp441
Rp442
(dp443
btp444
Rp445
(dp446
bag1
(g2
(I182
tp447
Rp448
(dp449
bg2
(I398
tp450
Rp451
(dp452
btp453
Rp454
(dp455
bag1
(g2
(I813
tp456
Rp457
(dp458
bg2
(I546
tp459
Rp460
(dp461
btp462
Rp463
(dp464
bag1
(g2
(I788
tp465
Rp466
(dp467
bg2
(I344
tp468
Rp469
(dp470
btp471
Rp472
(dp473
bag1
(g2
(I351
tp474
Rp475
(dp476
bg2
(I615
tp477
Rp478
(dp479
btp480
Rp481
(dp482
bag1
(g2
(I7
tp483
Rp484
(dp485
bg2
(I403
tp486
Rp487
(dp488
btp489
Rp490
(dp491
bag1
(g2
(I891
tp492
Rp493
(dp494
bg2
(I840
tp495
Rp496
(dp497
btp498
Rp499
(dp500
bag1
(g2
(I704
tp501
Rp502
(dp503
bg2
(I396
tp504
Rp505
(dp506
btp507
Rp508
(dp509
bag1
(g79
g2
(I911
tp510
Rp511
(dp512
btp513
Rp514
(dp515
bag1
(g2
(I63
tp516
Rp517
(dp518
bg2
(I903
tp519
Rp520
(dp521
btp522
Rp523
(dp524
bag1
(g2
(I222
tp525
Rp526
(dp527
bg2
(I841
tp528
Rp529
(dp530
btp531
Rp532
(dp533
bag1
(g2
(I845
tp534
Rp535
(dp536
bg2
(I647
tp537
Rp538
(dp539
btp540
Rp541
(dp542
bag1
(g2
(I756
tp543
Rp544
(dp545
bg2
(I916
tp546
Rp547
(dp548
btp549
Rp550
(dp551
bag1
(g2
(I4
tp552
Rp553
(dp554
bg2
(I150
tp555
Rp556
(dp557
btp558
Rp559
(dp560
bag1
(g520
g2
(I67
tp561
Rp562
(dp563
btp564
Rp565
(dp566
bag1
(g2
(I640
tp567
Rp568
(dp569
bg2
(I47
tp570
Rp571
(dp572
btp573
Rp574
(dp575
bag1
(g2
(I537
tp576
Rp577
(dp578
bg2
(I673
tp579
Rp580
(dp581
btp582
Rp583
(dp584
bag1
(g124
g2
(I908
tp585
Rp586
(dp587
btp588
Rp589
(dp590
bag1
(g2
(I140
tp591
Rp592
(dp593
bg2
(I897
tp594
Rp595
(dp596
btp597
Rp598
(dp599
bag1
(g2
(I982
tp600
Rp601
(dp602
bg2
(I961
tp603
Rp604
(dp605
btp606
Rp607
(dp608
bag1
(g2
(I978
tp609
Rp610
(dp611
bg2
(I831
tp612
Rp613
(dp614
btp615
Rp616
(dp617
bag1
(g2
(I952
tp618
Rp619
(dp620
bg2
(I348
tp621
Rp622
(dp623
btp624
Rp625
(dp626
bag1
(g2
(I449
tp627
Rp628
(dp629
bg2
(I539
tp630
Rp631
(dp632
btp633
Rp634
(dp635
bag1
(g2
(I511
tp636
Rp637
(dp638
bg2
(I194
tp639
Rp640
(dp641
btp642
Rp643
(dp644
bag1
(g2
(I869
tp645
Rp646
(dp647
bg2
(I155
tp648
Rp649
(dp650
btp651
Rp652
(dp653
bag1
(g2
(I943
tp654
Rp655
(dp656
bg2
(I488
tp657
Rp658
(dp659
btp660
Rp661
(dp662
bag1
(g2
(I153
tp663
Rp664
(dp665
bg2
(I494
tp666
Rp667
(dp668
btp669
Rp670
(dp671
bag1
(g2
(I994
tp672
Rp673
(dp674
bg2
(I121
tp675
Rp676
(dp677
btp678
Rp679
(dp680
bag1
(g2
(I69
tp681
Rp682
(dp683
bg2
(I808
tp684
Rp685
(dp686
btp687
Rp688
(dp689
bag1
(g2
(I254
tp690
Rp691
(dp692
bg610
tp693
Rp694
(dp695
bag1
(g2
(I851
tp696
Rp697
(dp698
bg2
(I668
tp699
Rp700
(dp701
btp702
Rp703
(dp704
bag1
(g2
(I560
tp705
Rp706
(dp707
bg2
(I856
tp708
Rp709
(dp710
btp711
Rp712
(dp713
bag1
(g211
g2
(I463
tp714
Rp715
(dp716
btp717
Rp718
(dp719
bag1
(g2
(I169
tp720
Rp721
(dp722
bg2
(I391
tp723
Rp724
(dp725
btp726
Rp727
(dp728
bag1
(g2
(I621
tp729
Rp730
(dp731
bg2
(I733
tp732
Rp733
(dp734
btp735
Rp736
(dp737
bag1
(g2
(I205
tp738
Rp739
(dp740
bg2
(I896
tp741
Rp742
(dp743
btp744
Rp745
(dp746
bag1
(g2
(I802
tp747
Rp748
(dp749
bg2
(I295
tp750
Rp751
(dp752
btp753
Rp754
(dp755
bag1
(g2
(I633
tp756
Rp757
(dp758
bg2
(I301
tp759
Rp760
(dp761
btp762
Rp763
(dp764
bag1
(g2
(I789
tp765
Rp766
(dp767
bg2
(I871
tp768
Rp769
(dp770
btp771
Rp772
(dp773
bag1
(g2
(I616
tp774
Rp775
(dp776
bg2
(I43
tp777
Rp778
(dp779
btp780
Rp781
(dp782
bag1
(g2
(I414
tp783
Rp784
(dp785
bg2
(I893
tp786
Rp787
(dp788
btp789
Rp790
(dp791
bag1
(g2
(I653
tp792
Rp793
(dp794
bg2
(I742
tp795
Rp796
(dp797
btp798
Rp799
(dp800
bag1
(g2
(I957
tp801
Rp802
(dp803
bg2
(I268
tp804
Rp805
(dp806
btp807
Rp808
(dp809
bag1
(g2
(I42
tp810
Rp811
(dp812
bg2
(I524
tp813
Rp814
(dp815
btp816
Rp817
(dp818
bag1
(g2
(I711
tp819
Rp820
(dp821
bg2
(I298
tp822
Rp823
(dp824
btp825
Rp826
(dp827
bag1
(g2
(I208
tp828
Rp829
(dp830
bg2
(I455
tp831
Rp832
(dp833
btp834
Rp835
(dp836
bag1
(g2
(I299
tp837
Rp838
(dp839
bg757
tp840
Rp841
(dp842
bag1
(g2
(I436
tp843
Rp844
(dp845
bg2
(I656
tp846
Rp847
(dp848
btp849
Rp850
(dp851
bag1
(g2
(I868
tp852
Rp853
(dp854
bg2
(I784
tp855
Rp856
(dp857
btp858
Rp859
(dp860
bag1
(g2
(I934
tp861
Rp862
(dp863
bg2
(I901
tp864
Rp865
(dp866
btp867
Rp868
(dp869
bag1
(g2
(I592
tp870
Rp871
(dp872
bg2
(I305
tp873
Rp874
(dp875
btp876
Rp877
(dp878
bag1
(g2
(I457
tp879
Rp880
(dp881
bg2
(I235
tp882
Rp883
(dp884
btp885
Rp886
(dp887
bag1
(g2
(I590
tp888
Rp889
(dp890
bg2
(I506
tp891
Rp892
(dp893
btp894
Rp895
(dp896
bag1
(g2
(I334
tp897
Rp898
(dp899
bg2
(I889
tp900
Rp901
(dp902
btp903
Rp904
(dp905
bag1
(g511
g2
(I340
tp906
Rp907
(dp908
btp909
Rp910
(dp911
bag1
(g2
(I828
tp912
Rp913
(dp914
bg502
tp915
Rp916
(dp917
bag1
(g2
(I481
tp918
Rp919
(dp920
bg2
(I996
tp921
Rp922
(dp923
btp924
Rp925
(dp926
bag1
(g2
(I286
tp927
Rp928
(dp929
bg766
tp930
Rp931
(dp932
bag1
(g2
(I866
tp933
Rp934
(dp935
bg2
(I193
tp936
Rp937
(dp938
btp939
Rp940
(dp941
bag1
(g2
(I406
tp942
Rp943
(dp944
bg2
(I599
tp945
Rp946
(dp947
btp948
Rp949
(dp950
bag1
(g2
(I617
tp951
Rp952
(dp953
bg2
(I245
tp954
Rp955
(dp956
btp957
Rp958
(dp959
bag1
(g2
(I293
tp960
Rp961
(dp962
bg880
tp963
Rp964
(dp965
bag1
(g2
(I618
tp966
Rp967
(dp968
bg2
(I250
tp969
Rp970
(dp971
btp972
Rp973
(dp974
bag1
(g2
(I792
tp975
Rp976
(dp977
bg2
(I501
tp978
Rp979
(dp980
btp981
Rp982
(dp983
bag1
(g2
(I695
tp984
Rp985
(dp986
bg2
(I394
tp987
Rp988
(dp989
btp990
Rp991
(dp992
bag1
(g2
(I954
tp993
Rp994
(dp995
bg2
(I491
tp996
Rp997
(dp998
btp999
Rp1000
(dp1001
bag1
(g2
(I587
tp1002
Rp1003
(dp1004
bg466
tp1005
Rp1006
(dp1007
bag1
(g2
(I636
tp1008
Rp1009
(dp1010
bg2
(I932
tp1011
Rp1012
(dp1013
btp1014
Rp1015
(dp1016
bag1
(g2
(I480
tp1017
Rp1018
(dp1019
bg2
(I938
tp1020
Rp1021
(dp1022
btp1023
Rp1024
(dp1025
bag1
(g2
(I683
tp1026
Rp1027
(dp1028
bg2
(I467
tp1029
Rp1030
(dp1031
btp1032
Rp1033
(dp1034
bag1
(g2
(I477
tp1035
Rp1036
(dp1037
bg244
tp1038
Rp1039
(dp1040
bag1
(g2
(I202
tp1041
Rp1042
(dp1043
bg2
(I11
tp1044
Rp1045
(dp1046
btp1047
Rp1048
(dp1049
bag1
(g2
(I550
tp1050
Rp1051
(dp1052
bg2
(I364
tp1053
Rp1054
(dp1055
btp1056
Rp1057
(dp1058
bag1
(g16
g2
(I880
tp1059
Rp1060
(dp1061
btp1062
Rp1063
(dp1064
bag1
(g2
(I29
tp1065
Rp1066
(dp1067
bg2
(I181
tp1068
Rp1069
(dp1070
btp1071
Rp1072
(dp1073
bag1
(g2
(I578
tp1074
Rp1075
(dp1076
bg2
(I165
tp1077
Rp1078
(dp1079
btp1080
Rp1081
(dp1082
bag1
(g2
(I376
tp1083
Rp1084
(dp1085
bg2
(I41
tp1086
Rp1087
(dp1088
btp1089
Rp1090
(dp1091
bag1
(g2
(I595
tp1092
Rp1093
(dp1094
bg2
(I453
tp1095
Rp1096
(dp1097
btp1098
Rp1099
(dp1100
bag1
(g2
(I846
tp1101
Rp1102
(dp1103
bg2
(I619
tp1104
Rp1105
(dp1106
btp1107
Rp1108
(dp1109
bag1
(g2
(I919
tp1110
Rp1111
(dp1112
bg2
(I156
tp1113
Rp1114
(dp1115
btp1116
Rp1117
(dp1118
bag1
(g2
(I126
tp1119
Rp1120
(dp1121
bg2
(I161
tp1122
Rp1123
(dp1124
btp1125
Rp1126
(dp1127
bag1
(g2
(I787
tp1128
Rp1129
(dp1130
bg2
(I51
tp1131
Rp1132
(dp1133
btp1134
Rp1135
(dp1136
bag1
(g556
g2
(I256
tp1137
Rp1138
(dp1139
btp1140
Rp1141
(dp1142
bag1
(g769
g2
(I200
tp1143
Rp1144
(dp1145
btp1146
Rp1147
(dp1148
bag1
(g2
(I567
tp1149
Rp1150
(dp1151
bg2
(I269
tp1152
Rp1153
(dp1154
btp1155
Rp1156
(dp1157
bag1
(g2
(I352
tp1158
Rp1159
(dp1160
bg2
(I732
tp1161
Rp1162
(dp1163
btp1164
Rp1165
(dp1166
bag1
(g2
(I214
tp1167
Rp1168
(dp1169
bg2
(I827
tp1170
Rp1171
(dp1172
btp1173
Rp1174
(dp1175
bag1
(g2
(I552
tp1176
Rp1177
(dp1178
bg2
(I327
tp1179
Rp1180
(dp1181
btp1182
Rp1183
(dp1184
bag1
(g2
(I881
tp1185
Rp1186
(dp1187
bg2
(I105
tp1188
Rp1189
(dp1190
btp1191
Rp1192
(dp1193
bag1
(g2
(I781
tp1194
Rp1195
(dp1196
bg2
(I492
tp1197
Rp1198
(dp1199
btp1200
Rp1201
(dp1202
bag1
(g2
(I321
tp1203
Rp1204
(dp1205
bg2
(I800
tp1206
Rp1207
(dp1208
btp1209
Rp1210
(dp1211
bag1
(g2
(I81
tp1212
Rp1213
(dp1214
bg2
(I712
tp1215
Rp1216
(dp1217
btp1218
Rp1219
(dp1220
bag1
(g298
g2
(I886
tp1221
Rp1222
(dp1223
btp1224
Rp1225
(dp1226
bag1
(g2
(I521
tp1227
Rp1228
(dp1229
bg1228
tp1230
Rp1231
(dp1232
bag1
(g2
(I558
tp1233
Rp1234
(dp1235
bg2
(I271
tp1236
Rp1237
(dp1238
btp1239
Rp1240
(dp1241
bag1
(g2
(I371
tp1242
Rp1243
(dp1244
bg2
(I670
tp1245
Rp1246
(dp1247
btp1248
Rp1249
(dp1250
bag1
(g2
(I341
tp1251
Rp1252
(dp1253
bg2
(I201
tp1254
Rp1255
(dp1256
btp1257
Rp1258
(dp1259
bag1
(g2
(I159
tp1260
Rp1261
(dp1262
bg2
(I724
tp1263
Rp1264
(dp1265
btp1266
Rp1267
(dp1268
bag1
(g2
(I929
tp1269
Rp1270
(dp1271
bg2
(I823
tp1272
Rp1273
(dp1274
btp1275
Rp1276
(dp1277
bag1
(g2
(I392
tp1278
Rp1279
(dp1280
bg2
(I231
tp1281
Rp1282
(dp1283
btp1284
Rp1285
(dp1286
bag1
(g2
(I743
tp1287
Rp1288
(dp1289
bg2
(I402
tp1290
Rp1291
(dp1292
btp1293
Rp1294
(dp1295
bag1
(g2
(I864
tp1296
Rp1297
(dp1298
bg2
(I652
tp1299
Rp1300
(dp1301
btp1302
Rp1303
(dp1304
bag1
(g2
(I965
tp1305
Rp1306
(dp1307
bg2
(I872
tp1308
Rp1309
(dp1310
btp1311
Rp1312
(dp1313
bag1
(g2
(I409
tp1314
Rp1315
(dp1316
bg2
(I865
tp1317
Rp1318
(dp1319
btp1320
Rp1321
(dp1322
bag1
(g2
(I681
tp1323
Rp1324
(dp1325
bg2
(I442
tp1326
Rp1327
(dp1328
btp1329
Rp1330
(dp1331
bag1
(g2
(I709
tp1332
Rp1333
(dp1334
bg2
(I533
tp1335
Rp1336
(dp1337
btp1338
Rp1339
(dp1340
bag1
(g640
g2
(I440
tp1341
Rp1342
(dp1343
btp1344
Rp1345
(dp1346
bag1
(g2
(I625
tp1347
Rp1348
(dp1349
bg2
(I474
tp1350
Rp1351
(dp1352
btp1353
Rp1354
(dp1355
bag1
(g2
(I649
tp1356
Rp1357
(dp1358
bg2
(I551
tp1359
Rp1360
(dp1361
btp1362
Rp1363
(dp1364
bag1
(g946
g439
tp1365
Rp1366
(dp1367
bag1
(g2
(I694
tp1368
Rp1369
(dp1370
bg976
tp1371
Rp1372
(dp1373
bag1
(g2
(I139
tp1374
Rp1375
(dp1376
bg2
(I32
tp1377
Rp1378
(dp1379
btp1380
Rp1381
(dp1382
bag1
(g2
(I686
tp1383
Rp1384
(dp1385
bg2
(I762
tp1386
Rp1387
(dp1388
btp1389
Rp1390
(dp1391
bag1
(g2
(I207
tp1392
Rp1393
(dp1394
bg2
(I960
tp1395
Rp1396
(dp1397
btp1398
Rp1399
(dp1400
bag1
(g2
(I740
tp1401
Rp1402
(dp1403
bg2
(I387
tp1404
Rp1405
(dp1406
btp1407
Rp1408
(dp1409
bag1
(g2
(I384
tp1410
Rp1411
(dp1412
bg2
(I429
tp1413
Rp1414
(dp1415
btp1416
Rp1417
(dp1418
bag1
(g2
(I761
tp1419
Rp1420
(dp1421
bg2
(I674
tp1422
Rp1423
(dp1424
btp1425
Rp1426
(dp1427
bag1
(g832
g2
(I722
tp1428
Rp1429
(dp1430
btp1431
Rp1432
(dp1433
bag1
(g2
(I849
tp1434
Rp1435
(dp1436
bg2
(I565
tp1437
Rp1438
(dp1439
btp1440
Rp1441
(dp1442
bag1
(g2
(I284
tp1443
Rp1444
(dp1445
bg2
(I659
tp1446
Rp1447
(dp1448
btp1449
Rp1450
(dp1451
bag1
(g2
(I837
tp1452
Rp1453
(dp1454
bg2
(I809
tp1455
Rp1456
(dp1457
btp1458
Rp1459
(dp1460
bag1
(g2
(I143
tp1461
Rp1462
(dp1463
bg1324
tp1464
Rp1465
(dp1466
bag1
(g2
(I723
tp1467
Rp1468
(dp1469
bg2
(I96
tp1470
Rp1471
(dp1472
btp1473
Rp1474
(dp1475
bag1
(g2
(I853
tp1476
Rp1477
(dp1478
bg1261
tp1479
Rp1480
(dp1481
bag1
(g2
(I57
tp1482
Rp1483
(dp1484
bg2
(I244
tp1485
Rp1486
(dp1487
btp1488
Rp1489
(dp1490
bag1
(g2
(I292
tp1491
Rp1492
(dp1493
bg928
tp1494
Rp1495
(dp1496
bag1
(g2
(I272
tp1497
Rp1498
(dp1499
bg2
(I135
tp1500
Rp1501
(dp1502
btp1503
Rp1504
(dp1505
bag1
(g2
(I937
tp1506
Rp1507
(dp1508
bg2
(I64
tp1509
Rp1510
(dp1511
btp1512
Rp1513
(dp1514
bag1
(g2
(I522
tp1515
Rp1516
(dp1517
bg2
(I627
tp1518
Rp1519
(dp1520
btp1521
Rp1522
(dp1523
bag1
(g2
(I989
tp1524
Rp1525
(dp1526
bg2
(I604
tp1527
Rp1528
(dp1529
btp1530
Rp1531
(dp1532
bag1
(g2
(I810
tp1533
Rp1534
(dp1535
bg2
(I811
tp1536
Rp1537
(dp1538
btp1539
Rp1540
(dp1541
bag1
(g2
(I238
tp1542
Rp1543
(dp1544
bg2
(I850
tp1545
Rp1546
(dp1547
btp1548
Rp1549
(dp1550
bag1
(g2
(I330
tp1551
Rp1552
(dp1553
bg2
(I203
tp1554
Rp1555
(dp1556
btp1557
Rp1558
(dp1559
bag1
(g2
(I713
tp1560
Rp1561
(dp1562
bg2
(I104
tp1563
Rp1564
(dp1565
btp1566
Rp1567
(dp1568
bag1
(g2
(I44
tp1569
Rp1570
(dp1571
bg2
(I317
tp1572
Rp1573
(dp1574
btp1575
Rp1576
(dp1577
bag1
(g2
(I39
tp1578
Rp1579
(dp1580
bg1543
tp1581
Rp1582
(dp1583
bag1
(g2
(I936
tp1584
Rp1585
(dp1586
bg2
(I609
tp1587
Rp1588
(dp1589
btp1590
Rp1591
(dp1592
bag1
(g2
(I108
tp1593
Rp1594
(dp1595
bg2
(I339
tp1596
Rp1597
(dp1598
btp1599
Rp1600
(dp1601
bag1
(g2
(I875
tp1602
Rp1603
(dp1604
bg2
(I102
tp1605
Rp1606
(dp1607
btp1608
Rp1609
(dp1610
bag1
(g2
(I393
tp1611
Rp1612
(dp1613
bg157
tp1614
Rp1615
(dp1616
bag1
(g1546
g829
tp1617
Rp1618
(dp1619
bag1
(g2
(I335
tp1620
Rp1621
(dp1622
bg2
(I243
tp1623
Rp1624
(dp1625
btp1626
Rp1627
(dp1628
bag1
(g2
(I483
tp1629
Rp1630
(dp1631
bg2
(I118
tp1632
Rp1633
(dp1634
btp1635
Rp1636
(dp1637
bag1
(g2
(I218
tp1638
Rp1639
(dp1640
bg2
(I515
tp1641
Rp1642
(dp1643
btp1644
Rp1645
(dp1646
bag1
(g2
(I832
tp1647
Rp1648
(dp1649
bg2
(I816
tp1650
Rp1651
(dp1652
btp1653
Rp1654
(dp1655
bag1
(g2
(I276
tp1656
Rp1657
(dp1658
bg2
(I620
tp1659
Rp1660
(dp1661
btp1662
Rp1663
(dp1664
bag1
(g2
(I397
tp1665
Rp1666
(dp1667
bg2
(I262
tp1668
Rp1669
(dp1670
btp1671
Rp1672
(dp1673
bag1
(g2
(I600
tp1674
Rp1675
(dp1676
bg2
(I460
tp1677
Rp1678
(dp1679
btp1680
Rp1681
(dp1682
bag1
(g2
(I553
tp1683
Rp1684
(dp1685
bg2
(I56
tp1686
Rp1687
(dp1688
btp1689
Rp1690
(dp1691
bag1
(g151
g184
tp1692
Rp1693
(dp1694
bag1
(g2
(I561
tp1695
Rp1696
(dp1697
bg2
(I715
tp1698
Rp1699
(dp1700
btp1701
Rp1702
(dp1703
bag1
(g1282
g1252
tp1704
Rp1705
(dp1706
bag1
(g2
(I21
tp1707
Rp1708
(dp1709
bg2
(I799
tp1710
Rp1711
(dp1712
btp1713
Rp1714
(dp1715
bag1
(g2
(I676
tp1716
Rp1717
(dp1718
bg2
(I452
tp1719
Rp1720
(dp1721
btp1722
Rp1723
(dp1724
bag1
(g2
(I532
tp1725
Rp1726
(dp1727
bg2
(I258
tp1728
Rp1729
(dp1730
btp1731
Rp1732
(dp1733
bag1
(g2
(I548
tp1734
Rp1735
(dp1736
bg2
(I425
tp1737
Rp1738
(dp1739
btp1740
Rp1741
(dp1742
bag1
(g2
(I148
tp1743
Rp1744
(dp1745
bg2
(I86
tp1746
Rp1747
(dp1748
btp1749
Rp1750
(dp1751
bag1
(g2
(I953
tp1752
Rp1753
(dp1754
bg2
(I829
tp1755
Rp1756
(dp1757
btp1758
Rp1759
(dp1760
bag1
(g1291
g2
(I395
tp1761
Rp1762
(dp1763
btp1764
Rp1765
(dp1766
bag1
(g2
(I366
tp1767
Rp1768
(dp1769
bg2
(I512
tp1770
Rp1771
(dp1772
btp1773
Rp1774
(dp1775
bag1
(g2
(I304
tp1776
Rp1777
(dp1778
bg2
(I764
tp1779
Rp1780
(dp1781
btp1782
Rp1783
(dp1784
bag1
(g2
(I697
tp1785
Rp1786
(dp1787
bg1120
tp1788
Rp1789
(dp1790
bag1
(g1207
g2
(I985
tp1791
Rp1792
(dp1793
btp1794
Rp1795
(dp1796
bag1
(g1171
g49
tp1797
Rp1798
(dp1799
bag1
(g2
(I120
tp1800
Rp1801
(dp1802
bg2
(I379
tp1803
Rp1804
(dp1805
btp1806
Rp1807
(dp1808
bag1
(g2
(I221
tp1809
Rp1810
(dp1811
bg2
(I726
tp1812
Rp1813
(dp1814
btp1815
Rp1816
(dp1817
bag1
(g352
g1348
tp1818
Rp1819
(dp1820
bag1
(g1351
g2
(I468
tp1821
Rp1822
(dp1823
btp1824
Rp1825
(dp1826
bag1
(g997
g1753
tp1827
Rp1828
(dp1829
bag1
(g2
(I688
tp1830
Rp1831
(dp1832
bg2
(I581
tp1833
Rp1834
(dp1835
btp1836
Rp1837
(dp1838
bag1
(g2
(I441
tp1839
Rp1840
(dp1841
bg2
(I795
tp1842
Rp1843
(dp1844
btp1845
Rp1846
(dp1847
bag1
(g2
(I220
tp1848
Rp1849
(dp1850
bg2
(I18
tp1851
Rp1852
(dp1853
btp1854
Rp1855
(dp1856
bag1
(g2
(I763
tp1857
Rp1858
(dp1859
bg2
(I606
tp1860
Rp1861
(dp1862
btp1863
Rp1864
(dp1865
bag1
(g2
(I383
tp1866
Rp1867
(dp1868
bg2
(I261
tp1869
Rp1870
(dp1871
btp1872
Rp1873
(dp1874
bag1
(g2
(I119
tp1875
Rp1876
(dp1877
bg2
(I28
tp1878
Rp1879
(dp1880
btp1881
Rp1882
(dp1883
bag1
(g169
g2
(I485
tp1884
Rp1885
(dp1886
btp1887
Rp1888
(dp1889
bag1
(g2
(I822
tp1890
Rp1891
(dp1892
bg1150
tp1893
Rp1894
(dp1895
bag1
(g2
(I206
tp1896
Rp1897
(dp1898
bg1552
tp1899
Rp1900
(dp1901
bag1
(g2
(I888
tp1902
Rp1903
(dp1904
bg2
(I430
tp1905
Rp1906
(dp1907
btp1908
Rp1909
(dp1910
bag1
(g2
(I362
tp1911
Rp1912
(dp1913
bg2
(I146
tp1914
Rp1915
(dp1916
btp1917
Rp1918
(dp1919
bag1
(g2
(I308
tp1920
Rp1921
(dp1922
bg2
(I349
tp1923
Rp1924
(dp1925
btp1926
Rp1927
(dp1928
bag1
(g2
(I727
tp1929
Rp1930
(dp1931
bg1666
tp1932
Rp1933
(dp1934
bag1
(g2
(I484
tp1935
Rp1936
(dp1937
bg1492
tp1938
Rp1939
(dp1940
bag1
(g2
(I984
tp1941
Rp1942
(dp1943
bg820
tp1944
Rp1945
(dp1946
bag1
(g2
(I987
tp1947
Rp1948
(dp1949
bg2
(I895
tp1950
Rp1951
(dp1952
btp1953
Rp1954
(dp1955
bag1
(g2
(I707
tp1956
Rp1957
(dp1958
bg2
(I424
tp1959
Rp1960
(dp1961
btp1962
Rp1963
(dp1964
bag1
(g1087
g913
tp1965
Rp1966
(dp1967
bag1
(g2
(I168
tp1968
Rp1969
(dp1970
bg2
(I749
tp1971
Rp1972
(dp1973
btp1974
Rp1975
(dp1976
bag1
(g2
(I639
tp1977
Rp1978
(dp1979
bg2
(I405
tp1980
Rp1981
(dp1982
btp1983
Rp1984
(dp1985
bag1
(g2
(I769
tp1986
Rp1987
(dp1988
bg2
(I739
tp1989
Rp1990
(dp1991
btp1992
Rp1993
(dp1994
bag1
(g2
(I365
tp1995
Rp1996
(dp1997
bg2
(I431
tp1998
Rp1999
(dp2000
btp2001
Rp2002
(dp2003
bag1
(g2
(I654
tp2004
Rp2005
(dp2006
bg1075
tp2007
Rp2008
(dp2009
bag1
(g2
(I297
tp2010
Rp2011
(dp2012
bg2
(I24
tp2013
Rp2014
(dp2015
btp2016
Rp2017
(dp2018
bag1
(g1555
g2
(I45
tp2019
Rp2020
(dp2021
btp2022
Rp2023
(dp2024
bag1
(g2
(I873
tp2025
Rp2026
(dp2027
bg2
(I5
tp2028
Rp2029
(dp2030
btp2031
Rp2032
(dp2033
bag1
(g1255
g2
(I780
tp2034
Rp2035
(dp2036
btp2037
Rp2038
(dp2039
bag1
(g2
(I918
tp2040
Rp2041
(dp2042
bg2
(I290
tp2043
Rp2044
(dp2045
btp2046
Rp2047
(dp2048
bag1
(g265
g544
tp2049
Rp2050
(dp2051
bag1
(g2
(I583
tp2052
Rp2053
(dp2054
bg1936
tp2055
Rp2056
(dp2057
bag1
(g2
(I343
tp2058
Rp2059
(dp2060
bg2
(I58
tp2061
Rp2062
(dp2063
btp2064
Rp2065
(dp2066
bag1
(g2
(I582
tp2067
Rp2068
(dp2069
bg2
(I876
tp2070
Rp2071
(dp2072
btp2073
Rp2074
(dp2075
bag1
(g2
(I798
tp2076
Rp2077
(dp2078
bg967
tp2079
Rp2080
(dp2081
bag1
(g2
(I469
tp2082
Rp2083
(dp2084
bg493
tp2085
Rp2086
(dp2087
bag1
(g2
(I144
tp2088
Rp2089
(dp2090
bg2
(I585
tp2091
Rp2092
(dp2093
btp2094
Rp2095
(dp2096
bag1
(g2
(I55
tp2097
Rp2098
(dp2099
bg2
(I611
tp2100
Rp2101
(dp2102
btp2103
Rp2104
(dp2105
bag1
(g2
(I824
tp2106
Rp2107
(dp2108
bg1186
tp2109
Rp2110
(dp2111
bag1
(g2
(I878
tp2112
Rp2113
(dp2114
bg2
(I921
tp2115
Rp2116
(dp2117
btp2118
Rp2119
(dp2120
bag1
(g2
(I101
tp2121
Rp2122
(dp2123
bg58
tp2124
Rp2125
(dp2126
bag1
(g2
(I589
tp2127
Rp2128
(dp2129
bg1891
tp2130
Rp2131
(dp2132
bag1
(g142
g2
(I259
tp2133
Rp2134
(dp2135
btp2136
Rp2137
(dp2138
bag1
(g2
(I473
tp2139
Rp2140
(dp2141
bg2
(I482
tp2142
Rp2143
(dp2144
btp2145
Rp2146
(dp2147
bag1
(g2
(I968
tp2148
Rp2149
(dp2150
bg2
(I687
tp2151
Rp2152
(dp2153
btp2154
Rp2155
(dp2156
bag1
(g1822
g2
(I995
tp2157
Rp2158
(dp2159
btp2160
Rp2161
(dp2162
bag1
(g2
(I915
tp2163
Rp2164
(dp2165
bg601
tp2166
Rp2167
(dp2168
bag1
(g2
(I62
tp2169
Rp2170
(dp2171
bg2
(I505
tp2172
Rp2173
(dp2174
btp2175
Rp2176
(dp2177
bag1
(g2
(I692
tp2178
Rp2179
(dp2180
bg2
(I160
tp2181
Rp2182
(dp2183
btp2184
Rp2185
(dp2186
bag1
(g2
(I848
tp2187
Rp2188
(dp2189
bg2
(I98
tp2190
Rp2191
(dp2192
btp2193
Rp2194
(dp2195
bag1
(g2
(I80
tp2196
Rp2197
(dp2198
bg2
(I176
tp2199
Rp2200
(dp2201
btp2202
Rp2203
(dp2204
bag1
(g1870
g2
(I992
tp2205
Rp2206
(dp2207
btp2208
Rp2209
(dp2210
bag1
(g2
(I750
tp2211
Rp2212
(dp2213
bg2
(I443
tp2214
Rp2215
(dp2216
btp2217
Rp2218
(dp2219
bag1
(g1906
g2
(I370
tp2220
Rp2221
(dp2222
btp2223
Rp2224
(dp2225
bag1
(g2
(I195
tp2226
Rp2227
(dp2228
bg2
(I879
tp2229
Rp2230
(dp2231
btp2232
Rp2233
(dp2234
bag1
(g2
(I545
tp2235
Rp2236
(dp2237
bg2
(I219
tp2238
Rp2239
(dp2240
btp2241
Rp2242
(dp2243
bag1
(g2
(I766
tp2244
Rp2245
(dp2246
bg31
tp2247
Rp2248
(dp2249
bag1
(g2
(I527
tp2250
Rp2251
(dp2252
bg577
tp2253
Rp2254
(dp2255
bag1
(g1105
g2
(I528
tp2256
Rp2257
(dp2258
btp2259
Rp2260
(dp2261
bag1
(g2116
g1786
tp2262
Rp2263
(dp2264
bag1
(g2
(I563
tp2265
Rp2266
(dp2267
bg2
(I444
tp2268
Rp2269
(dp2270
btp2271
Rp2272
(dp2273
bag1
(g2
(I717
tp2274
Rp2275
(dp2276
bg2
(I192
tp2277
Rp2278
(dp2279
btp2280
Rp2281
(dp2282
bag1
(g2
(I242
tp2283
Rp2284
(dp2285
bg2
(I248
tp2286
Rp2287
(dp2288
btp2289
Rp2290
(dp2291
bag1
(g2
(I247
tp2292
Rp2293
(dp2294
bg2
(I8
tp2295
Rp2296
(dp2297
btp2298
Rp2299
(dp2300
bag1
(g2
(I944
tp2301
Rp2302
(dp2303
bg2
(I36
tp2304
Rp2305
(dp2306
btp2307
Rp2308
(dp2309
bag1
(g2
(I935
tp2310
Rp2311
(dp2312
bg2
(I573
tp2313
Rp2314
(dp2315
btp2316
Rp2317
(dp2318
bag1
(g1378
g2
(I536
tp2319
Rp2320
(dp2321
btp2322
Rp2323
(dp2324
bag1
(g2
(I791
tp2325
Rp2326
(dp2327
bg2
(I817
tp2328
Rp2329
(dp2330
btp2331
Rp2332
(dp2333
bag1
(g2
(I115
tp2334
Rp2335
(dp2336
bg2
(I164
tp2337
Rp2338
(dp2339
btp2340
Rp2341
(dp2342
bag1
(g2
(I663
tp2343
Rp2344
(dp2345
bg1621
tp2346
Rp2347
(dp2348
bag1
(g2
(I428
tp2349
Rp2350
(dp2351
bg2
(I523
tp2352
Rp2353
(dp2354
btp2355
Rp2356
(dp2357
bag1
(g2
(I737
tp2358
Rp2359
(dp2360
bg2
(I14
tp2361
Rp2362
(dp2363
btp2364
Rp2365
(dp2366
bag1
(g2
(I25
tp2367
Rp2368
(dp2369
bg793
tp2370
Rp2371
(dp2372
bag1
(g2
(I320
tp2373
Rp2374
(dp2375
bg2
(I372
tp2376
Rp2377
(dp2378
btp2379
Rp2380
(dp2381
bag1
(g874
g2236
tp2382
Rp2383
(dp2384
bag1
(g2
(I215
tp2385
Rp2386
(dp2387
bg1648
tp2388
Rp2389
(dp2390
bag1
(g1078
g2
(I914
tp2391
Rp2392
(dp2393
btp2394
Rp2395
(dp2396
bag1
(g2
(I814
tp2397
Rp2398
(dp2399
bg2
(I163
tp2400
Rp2401
(dp2402
btp2403
Rp2404
(dp2405
bag1
(g2
(I867
tp2406
Rp2407
(dp2408
bg2
(I65
tp2409
Rp2410
(dp2411
btp2412
Rp2413
(dp2414
bag1
(g202
g2
(I547
tp2415
Rp2416
(dp2417
btp2418
Rp2419
(dp2420
bag1
(g2
(I333
tp2421
Rp2422
(dp2423
bg2
(I84
tp2424
Rp2425
(dp2426
btp2427
Rp2428
(dp2429
bag1
(g427
g2
(I508
tp2430
Rp2431
(dp2432
btp2433
Rp2434
(dp2435
bag1
(g613
g2
(I471
tp2436
Rp2437
(dp2438
btp2439
Rp2440
(dp2441
bag1
(g1471
g1306
tp2442
Rp2443
(dp2444
bag1
(g88
g2
(I526
tp2445
Rp2446
(dp2447
btp2448
Rp2449
(dp2450
bag1
(g2
(I514
tp2451
Rp2452
(dp2453
bg2089
tp2454
Rp2455
(dp2456
bag1
(g2
(I631
tp2457
Rp2458
(dp2459
bg2
(I499
tp2460
Rp2461
(dp2462
btp2463
Rp2464
(dp2465
bag1
(g2
(I942
tp2466
Rp2467
(dp2468
bg2
(I316
tp2469
Rp2470
(dp2471
btp2472
Rp2473
(dp2474
bag1
(g1915
g2
(I887
tp2475
Rp2476
(dp2477
btp2478
Rp2479
(dp2480
bag1
(g2
(I421
tp2481
Rp2482
(dp2483
bg2
(I20
tp2484
Rp2485
(dp2486
btp2487
Rp2488
(dp2489
bag1
(g115
g2368
tp2490
Rp2491
(dp2492
bag1
(g2
(I971
tp2493
Rp2494
(dp2495
bg2
(I99
tp2496
Rp2497
(dp2498
btp2499
Rp2500
(dp2501
bag1
(g2
(I264
tp2502
Rp2503
(dp2504
bg349
tp2505
Rp2506
(dp2507
bag1
(g1678
g2
(I579
tp2508
Rp2509
(dp2510
btp2511
Rp2512
(dp2513
bag1
(g2
(I838
tp2514
Rp2515
(dp2516
bg2
(I175
tp2517
Rp2518
(dp2519
btp2520
Rp2521
(dp2522
bag1
(g2
(I689
tp2523
Rp2524
(dp2525
bg2
(I531
tp2526
Rp2527
(dp2528
btp2529
Rp2530
(dp2531
bag1
(g2
(I476
tp2532
Rp2533
(dp2534
bg2
(I584
tp2535
Rp2536
(dp2537
btp2538
Rp2539
(dp2540
bag1
(g2
(I306
tp2541
Rp2542
(dp2543
bg2
(I804
tp2544
Rp2545
(dp2546
btp2547
Rp2548
(dp2549
bag1
(g2
(I972
tp2550
Rp2551
(dp2552
bg94
tp2553
Rp2554
(dp2555
bag1
(g2527
g1288
tp2556
Rp2557
(dp2558
bag1
(g2
(I354
tp2559
Rp2560
(dp2561
bg2
(I969
tp2562
Rp2563
(dp2564
btp2565
Rp2566
(dp2567
bag1
(g2
(I110
tp2568
Rp2569
(dp2570
bg190
tp2571
Rp2572
(dp2573
bag1
(g1012
g2
(I337
tp2574
Rp2575
(dp2576
btp2577
Rp2578
(dp2579
ba.