(lp0
csympy.geometry.point
Point2D
p1
(csympy.core.numbers
Integer
p2
(I771
tp3
Rp4
(dp5
bg2
(I84
tp6
Rp7
(dp8
btp9
Rp10
(dp11
bag1
(g2
(I452
tp12
Rp13
(dp14
bg2
(I210
tp15
Rp16
(dp17
btp18
Rp19
(dp20
bag1
(g2
(I511
tp21
Rp22
(dp23
bg2
(I726
tp24
Rp25
(dp26
btp27
Rp28
(dp29
bag1
(g2
(I774
tp30
Rp31
(dp32
bg2
(I178
tp33
Rp34
(dp35
btp36
Rp37
(dp38
bag1
(g2
(I601
tp39
Rp40
(dp41
bg2
(I411
tp42
Rp43
(dp44
btp45
Rp46
(dp47
bag1
(g2
(I199
tp48
Rp49
(dp50
bg2
(I213
tp51
Rp52
(dp53
btp54
Rp55
(dp56
bag1
(g2
(I568
tp57
Rp58
(dp59
bg2
(I183
tp60
Rp61
(dp62
btp63
Rp64
(dp65
bag1
(g2
(I946
tp66
Rp67
(dp68
bg2
(I214
tp69
Rp70
(dp71
btp72
Rp73
(dp74
bag1
(g2
(I73
tp75
Rp76
(dp77
bg2
(I457
tp78
Rp79
(dp80
btp81
Rp82
(dp83
bag1
(g2
(I454
tp84
Rp85
(dp86
bg2
(I133
tp87
Rp88
(dp89
btp90
Rp91
(dp92
bag1
(g2
(I410
tp93
Rp94
(dp95
bg2
(I325
tp96
Rp97
(dp98
btp99
Rp100
(dp101
bag1
(g2
(I735
tp102
Rp103
(dp104
bg2
(I889
tp105
Rp106
(dp107
btp108
Rp109
(dp110
bag1
(g2
(I809
tp111
Rp112
(dp113
bg2
(I697
tp114
Rp115
(dp116
btp117
Rp118
(dp119
bag1
(g2
(I77
tp120
Rp121
(dp122
bg2
(I456
tp123
Rp124
(dp125
btp126
Rp127
(dp128
bag1
(g2
(I644
tp129
Rp130
(dp131
bg2
(I57
tp132
Rp133
(dp134
btp135
Rp136
(dp137
bag1
(g2
(I687
tp138
Rp139
(dp140
bg2
(I994
tp141
Rp142
(dp143
btp144
Rp145
(dp146
bag1
(g2
(I322
tp147
Rp148
(dp149
bg2
(I570
tp150
Rp151
(dp152
btp153
Rp154
(dp155
bag1
(g2
(I874
tp156
Rp157
(dp158
bg2
(I654
tp159
Rp160
(dp161
btp162
Rp163
(dp164
bag1
(g2
(I54
tp165
Rp166
(dp167
bg2
(I260
tp168
Rp169
(dp170
btp171
Rp172
(dp173
bag1
(g2
(I552
tp174
Rp175
(dp176
bg2
(I20
tp177
Rp178
(dp179
btp180
Rp181
(dp182
bag1
(g2
(I666
tp183
Rp184
(dp185
bg2
(I269
tp186
Rp187
(dp188
btp189
Rp190
(dp191
bag1
(g2
(I861
tp192
Rp193
(dp194
bg2
(I157
tp195
Rp196
(dp197
btp198
Rp199
(dp200
bag1
(g2
(I543
tp201
Rp202
(dp203
bg2
(I838
tp204
Rp205
(dp206
btp207
Rp208
(dp209
bag1
(g2
(I51
tp210
Rp211
(dp212
bg2
(I82
tp213
Rp214
(dp215
btp216
Rp217
(dp218
bag1
(g2
(I802
tp219
Rp220
(dp221
bg2
(I849
tp222
Rp223
(dp224
btp225
Rp226
(dp227
bag1
(g2
(I62
tp228
Rp229
(dp230
bg2
(I37
tp231
Rp232
(dp233
btp234
Rp235
(dp236
bag1
(g2
(I297
tp237
Rp238
(dp239
bg2
(I590
tp240
Rp241
(dp242
btp243
Rp244
(dp245
bag1
(g2
(I241
tp246
Rp247
(dp248
bg2
(I951
tp249
Rp250
(dp251
btp252
Rp253
(dp254
bag1
(g2
(I414
tp255
Rp256
(dp257
bg2
(I908
tp258
Rp259
(dp260
btp261
Rp262
(dp263
bag1
(g2
(I912
tp264
Rp265
(dp266
bg2
(I501
tp267
Rp268
(dp269
btp270
Rp271
(dp272
bag1
(g2
(I963
tp273
Rp274
(dp275
bg2
(I390
tp276
Rp277
(dp278
btp279
Rp280
(dp281
bag1
(g2
(I645
tp282
Rp283
(dp284
bg2
(I450
tp285
Rp286
(dp287
btp288
Rp289
(dp290
bag1
(g2
(I317
tp291
Rp292
(dp293
bg2
(I308
tp294
Rp295
(dp296
btp297
Rp298
(dp299
bag1
(g2
(I227
tp300
Rp301
(dp302
bg2
(I529
tp303
Rp304
(dp305
btp306
Rp307
(dp308
bag1
(g2
(I409
tp309
Rp310
(dp311
bg2
(I41
tp312
Rp313
(dp314
btp315
Rp316
(dp317
bag1
(g2
(I834
tp318
Rp319
(dp320
bg2
(I581
tp321
Rp322
(dp323
btp324
Rp325
(dp326
bag1
(g2
(I480
tp327
Rp328
(dp329
bg2
(I589
tp330
Rp331
(dp332
btp333
Rp334
(dp335
bag1
(g2
(I961
tp336
Rp337
(dp338
bg2
(I658
tp339
Rp340
(dp341
btp342
Rp343
(dp344
bag1
(g2
(I155
tp345
Rp346
(dp347
bg2
(I696
tp348
Rp349
(dp350
btp351
Rp352
(dp353
bag1
(g2
(I86
tp354
Rp355
(dp356
bg2
(I691
tp357
Rp358
(dp359
btp360
Rp361
(dp362
bag1
(g2
(I526
tp363
Rp364
(dp365
bg2
(I578
tp366
Rp367
(dp368
btp369
Rp370
(dp371
bag1
(g2
(I885
tp372
Rp373
(dp374
bg2
(I603
tp375
Rp376
(dp377
btp378
Rp379
(dp380
bag1
(g2
(I539
tp381
Rp382
(dp383
bg265
tp384
Rp385
(dp386
bag1
(g2
(I508
tp387
Rp388
(dp389
bg2
(I895
tp390
Rp391
(dp392
btp393
Rp394
(dp395
bag1
(g2
(I556
tp396
Rp397
(dp398
bg184
tp399
Rp400
(dp401
bag1
(g2
(I131
tp402
Rp403
(dp404
bg2
(I932
tp405
Rp406
(dp407
btp408
Rp409
(dp410
bag1
(g2
(I985
tp411
Rp412
(dp413
bg2
(I38
tp414
Rp415
(dp416
btp417
Rp418
(dp419
bag1
(g2
(I336
tp420
Rp421
(dp422
bg2
(I80
tp423
Rp424
(dp425
btp426
Rp427
(dp428
bag1
(g2
(I203
tp429
Rp430
(dp431
bg2
(I580
tp432
Rp433
(dp434
btp435
Rp436
(dp437
bag1
(g2
(I948
tp438
Rp439
(dp440
bg2
(I6
tp441
Rp442
(dp443
btp444
Rp445
(dp446
bag1
(g2
(I584
tp447
Rp448
(dp449
bg2
(I168
tp450
Rp451
(dp452
btp453
Rp454
(dp455
bag1
(g2
(I112
tp456
Rp457
(dp458
bg2
(I965
tp459
Rp460
(dp461
btp462
Rp463
(dp464
bag1
(g2
(I808
tp465
Rp466
(dp467
bg2
(I188
tp468
Rp469
(dp470
btp471
Rp472
(dp473
bag1
(g2
(I315
tp474
Rp475
(dp476
bg2
(I94
tp477
Rp478
(dp479
btp480
Rp481
(dp482
bag1
(g2
(I485
tp483
Rp484
(dp485
bg85
tp486
Rp487
(dp488
bag1
(g2
(I366
tp489
Rp490
(dp491
bg2
(I473
tp492
Rp493
(dp494
btp495
Rp496
(dp497
bag1
(g2
(I813
tp498
Rp499
(dp500
bg2
(I729
tp501
Rp502
(dp503
btp504
Rp505
(dp506
bag1
(g2
(I280
tp507
Rp508
(dp509
bg2
(I701
tp510
Rp511
(dp512
btp513
Rp514
(dp515
bag1
(g2
(I196
tp516
Rp517
(dp518
bg2
(I725
tp519
Rp520
(dp521
btp522
Rp523
(dp524
bag1
(g2
(I9
tp525
Rp526
(dp527
bg2
(I576
tp528
Rp529
(dp530
btp531
Rp532
(dp533
bag1
(g2
(I566
tp534
Rp535
(dp536
bg2
(I751
tp537
Rp538
(dp539
btp540
Rp541
(dp542
bag1
(g2
(I789
tp543
Rp544
(dp545
bg2
(I4
tp546
Rp547
(dp548
btp549
Rp550
(dp551
bag1
(g2
(I373
tp552
Rp553
(dp554
bg2
(I469
tp555
Rp556
(dp557
btp558
Rp559
(dp560
bag1
(g2
(I800
tp561
Rp562
(dp563
bg2
(I711
tp564
Rp565
(dp566
btp567
Rp568
(dp569
bag1
(g2
(I745
tp570
Rp571
(dp572
bg2
(I105
tp573
Rp574
(dp575
btp576
Rp577
(dp578
bag1
(g268
g2
(I436
tp579
Rp580
(dp581
btp582
Rp583
(dp584
bag1
(g2
(I926
tp585
Rp586
(dp587
bg2
(I487
tp588
Rp589
(dp590
btp591
Rp592
(dp593
bag1
(g2
(I979
tp594
Rp595
(dp596
bg2
(I176
tp597
Rp598
(dp599
btp600
Rp601
(dp602
bag1
(g2
(I857
tp603
Rp604
(dp605
bg2
(I679
tp606
Rp607
(dp608
btp609
Rp610
(dp611
bag1
(g2
(I90
tp612
Rp613
(dp614
bg2
(I356
tp615
Rp616
(dp617
btp618
Rp619
(dp620
bag1
(g2
(I693
tp621
Rp622
(dp623
bg2
(I980
tp624
Rp625
(dp626
btp627
Rp628
(dp629
bag1
(g2
(I763
tp630
Rp631
(dp632
bg2
(I750
tp633
Rp634
(dp635
btp636
Rp637
(dp638
bag1
(g2
(I302
tp639
Rp640
(dp641
bg2
(I939
tp642
Rp643
(dp644
btp645
Rp646
(dp647
bag1
(g2
(I83
tp648
Rp649
(dp650
bg2
(I962
tp651
Rp652
(dp653
btp654
Rp655
(dp656
bag1
(g2
(I504
tp657
Rp658
(dp659
bg2
(I430
tp660
Rp661
(dp662
btp663
Rp664
(dp665
bag1
(g2
(I544
tp666
Rp667
(dp668
bg2
(I468
tp669
Rp670
(dp671
btp672
Rp673
(dp674
bag1
(g2
(I805
tp675
Rp676
(dp677
bg2
(I345
tp678
Rp679
(dp680
btp681
Rp682
(dp683
bag1
(g2
(I506
tp684
Rp685
(dp686
bg2
(I768
tp687
Rp688
(dp689
btp690
Rp691
(dp692
bag1
(g2
(I528
tp693
Rp694
(dp695
bg2
(I988
tp696
Rp697
(dp698
btp699
Rp700
(dp701
bag1
(g2
(I368
tp702
Rp703
(dp704
bg2
(I757
tp705
Rp706
(dp707
btp708
Rp709
(dp710
bag1
(g2
(I787
tp711
Rp712
(dp713
bg2
(I577
tp714
Rp715
(dp716
btp717
Rp718
(dp719
bag1
(g2
(I499
tp720
Rp721
(dp722
bg2
(I146
tp723
Rp724
(dp725
btp726
Rp727
(dp728
bag1
(g2
(I583
tp729
Rp730
(dp731
bg2
(I426
tp732
Rp733
(dp734
btp735
Rp736
(dp737
bag1
(g2
(I884
tp738
Rp739
(dp740
bg2
(I676
tp741
Rp742
(dp743
btp744
Rp745
(dp746
bag1
(g2
(I164
tp747
Rp748
(dp749
bg2
(I540
tp750
Rp751
(dp752
btp753
Rp754
(dp755
bag1
(g2
(I490
tp756
Rp757
(dp758
bg2
(I767
tp759
Rp760
(dp761
btp762
Rp763
(dp764
bag1
(g2
(I365
tp765
Rp766
(dp767
bg2
(I132
tp768
Rp769
(dp770
btp771
Rp772
(dp773
bag1
(g2
(I940
tp774
Rp775
(dp776
bg2
(I565
tp777
Rp778
(dp779
btp780
Rp781
(dp782
bag1
(g2
(I135
tp783
Rp784
(dp785
bg2
(I533
tp786
Rp787
(dp788
btp789
Rp790
(dp791
bag1
(g2
(I891
tp792
Rp793
(dp794
bg2
(I389
tp795
Rp796
(dp797
btp798
Rp799
(dp800
bag1
(g2
(I937
tp801
Rp802
(dp803
bg2
(I413
tp804
Rp805
(dp806
btp807
Rp808
(dp809
bag1
(g2
(I545
tp810
Rp811
(dp812
bg2
(I217
tp813
Rp814
(dp815
btp816
Rp817
(dp818
bag1
(g2
(I448
tp819
Rp820
(dp821
bg2
(I827
tp822
Rp823
(dp824
btp825
Rp826
(dp827
bag1
(g232
g148
tp828
Rp829
(dp830
bag1
(g2
(I559
tp831
Rp832
(dp833
bg2
(I229
tp834
Rp835
(dp836
btp837
Rp838
(dp839
bag1
(g367
g2
(I383
tp840
Rp841
(dp842
btp843
Rp844
(dp845
bag1
(g2
(I304
tp846
Rp847
(dp848
bg2
(I283
tp849
Rp850
(dp851
btp852
Rp853
(dp854
bag1
(g2
(I521
tp855
Rp856
(dp857
bg2
(I247
tp858
Rp859
(dp860
btp861
Rp862
(dp863
bag1
(g2
(I850
tp864
Rp865
(dp866
bg2
(I17
tp867
Rp868
(dp869
btp870
Rp871
(dp872
bag1
(g2
(I820
tp873
Rp874
(dp875
bg2
(I638
tp876
Rp877
(dp878
btp879
Rp880
(dp881
bag1
(g178
g2
(I758
tp882
Rp883
(dp884
btp885
Rp886
(dp887
bag1
(g2
(I25
tp888
Rp889
(dp890
bg2
(I902
tp891
Rp892
(dp893
btp894
Rp895
(dp896
bag1
(g2
(I657
tp897
Rp898
(dp899
bg2
(I150
tp900
Rp901
(dp902
btp903
Rp904
(dp905
bag1
(g160
g2
(I278
tp906
Rp907
(dp908
btp909
Rp910
(dp911
bag1
(g2
(I484
tp912
Rp913
(dp914
bg13
tp915
Rp916
(dp917
bag1
(g2
(I259
tp918
Rp919
(dp920
bg2
(I916
tp921
Rp922
(dp923
btp924
Rp925
(dp926
bag1
(g2
(I357
tp927
Rp928
(dp929
bg2
(I910
tp930
Rp931
(dp932
btp933
Rp934
(dp935
bag1
(g2
(I732
tp936
Rp937
(dp938
bg2
(I314
tp939
Rp940
(dp941
btp942
Rp943
(dp944
bag1
(g2
(I201
tp945
Rp946
(dp947
bg2
(I444
tp948
Rp949
(dp950
btp951
Rp952
(dp953
bag1
(g2
(I648
tp954
Rp955
(dp956
bg2
(I262
tp957
Rp958
(dp959
btp960
Rp961
(dp962
bag1
(g2
(I936
tp963
Rp964
(dp965
bg2
(I369
tp966
Rp967
(dp968
btp969
Rp970
(dp971
bag1
(g2
(I990
tp972
Rp973
(dp974
bg2
(I378
tp975
Rp976
(dp977
btp978
Rp979
(dp980
bag1
(g2
(I303
tp981
Rp982
(dp983
bg2
(I481
tp984
Rp985
(dp986
btp987
Rp988
(dp989
bag1
(g2
(I108
tp990
Rp991
(dp992
bg2
(I801
tp993
Rp994
(dp995
btp996
Rp997
(dp998
bag1
(g2
(I233
tp999
Rp1000
(dp1001
bg2
(I975
tp1002
Rp1003
(dp1004
btp1005
Rp1006
(dp1007
bag1
(g2
(I7
tp1008
Rp1009
(dp1010
bg748
tp1011
Rp1012
(dp1013
bag1
(g502
g2
(I102
tp1014
Rp1015
(dp1016
btp1017
Rp1018
(dp1019
bag1
(g2
(I472
tp1020
Rp1021
(dp1022
bg2
(I92
tp1023
Rp1024
(dp1025
btp1026
Rp1027
(dp1028
bag1
(g424
g2
(I502
tp1029
Rp1030
(dp1031
btp1032
Rp1033
(dp1034
bag1
(g2
(I87
tp1035
Rp1036
(dp1037
bg2
(I680
tp1038
Rp1039
(dp1040
btp1041
Rp1042
(dp1043
bag1
(g16
g2
(I897
tp1044
Rp1045
(dp1046
btp1047
Rp1048
(dp1049
bag1
(g2
(I538
tp1050
Rp1051
(dp1052
bg2
(I873
tp1053
Rp1054
(dp1055
btp1056
Rp1057
(dp1058
bag1
(g2
(I197
tp1059
Rp1060
(dp1061
bg2
(I61
tp1062
Rp1063
(dp1064
btp1065
Rp1066
(dp1067
bag1
(g2
(I433
tp1068
Rp1069
(dp1070
bg364
tp1071
Rp1072
(dp1073
bag1
(g2
(I117
tp1074
Rp1075
(dp1076
bg2
(I148
tp1077
Rp1078
(dp1079
btp1080
Rp1081
(dp1082
bag1
(g2
(I599
tp1083
Rp1084
(dp1085
bg2
(I969
tp1086
Rp1087
(dp1088
btp1089
Rp1090
(dp1091
bag1
(g2
(I160
tp1092
Rp1093
(dp1094
bg712
tp1095
Rp1096
(dp1097
bag1
(g2
(I604
tp1098
Rp1099
(dp1100
bg2
(I564
tp1101
Rp1102
(dp1103
btp1104
Rp1105
(dp1106
bag1
(g2
(I782
tp1107
Rp1108
(dp1109
bg2
(I887
tp1110
Rp1111
(dp1112
btp1113
Rp1114
(dp1115
bag1
(g2
(I320
tp1116
Rp1117
(dp1118
bg2
(I295
tp1119
Rp1120
(dp1121
btp1122
Rp1123
(dp1124
bag1
(g2
(I991
tp1125
Rp1126
(dp1127
bg2
(I384
tp1128
Rp1129
(dp1130
btp1131
Rp1132
(dp1133
bag1
(g1024
g2
(I795
tp1134
Rp1135
(dp1136
btp1137
Rp1138
(dp1139
bag1
(g1078
g2
(I251
tp1140
Rp1141
(dp1142
btp1143
Rp1144
(dp1145
bag1
(g2
(I747
tp1146
Rp1147
(dp1148
bg2
(I598
tp1149
Rp1150
(dp1151
btp1152
Rp1153
(dp1154
bag1
(g2
(I872
tp1155
Rp1156
(dp1157
bg2
(I986
tp1158
Rp1159
(dp1160
btp1161
Rp1162
(dp1163
bag1
(g2
(I184
tp1164
Rp1165
(dp1166
bg2
(I840
tp1167
Rp1168
(dp1169
btp1170
Rp1171
(dp1172
bag1
(g2
(I249
tp1173
Rp1174
(dp1175
bg1069
tp1176
Rp1177
(dp1178
bag1
(g2
(I467
tp1179
Rp1180
(dp1181
bg2
(I752
tp1182
Rp1183
(dp1184
btp1185
Rp1186
(dp1187
bag1
(g724
g721
tp1188
Rp1189
(dp1190
bag1
(g2
(I634
tp1191
Rp1192
(dp1193
bg2
(I78
tp1194
Rp1195
(dp1196
btp1197
Rp1198
(dp1199
bag1
(g2
(I894
tp1200
Rp1201
(dp1202
bg2
(I567
tp1203
Rp1204
(dp1205
btp1206
Rp1207
(dp1208
bag1
(g2
(I776
tp1209
Rp1210
(dp1211
bg2
(I867
tp1212
Rp1213
(dp1214
btp1215
Rp1216
(dp1217
bag1
(g2
(I553
tp1218
Rp1219
(dp1220
bg202
tp1221
Rp1222
(dp1223
bag1
(g2
(I619
tp1224
Rp1225
(dp1226
bg2
(I98
tp1227
Rp1228
(dp1229
btp1230
Rp1231
(dp1232
bag1
(g2
(I630
tp1233
Rp1234
(dp1235
bg2
(I55
tp1236
Rp1237
(dp1238
btp1239
Rp1240
(dp1241
bag1
(g511
g2
(I446
tp1242
Rp1243
(dp1244
btp1245
Rp1246
(dp1247
bag1
(g2
(I476
tp1248
Rp1249
(dp1250
bg2
(I250
tp1251
Rp1252
(dp1253
btp1254
Rp1255
(dp1256
bag1
(g2
(I744
tp1257
Rp1258
(dp1259
bg2
(I330
tp1260
Rp1261
(dp1262
btp1263
Rp1264
(dp1265
bag1
(g2
(I909
tp1266
Rp1267
(dp1268
bg2
(I329
tp1269
Rp1270
(dp1271
btp1272
Rp1273
(dp1274
bag1
(g7
g2
(I275
tp1275
Rp1276
(dp1277
btp1278
Rp1279
(dp1280
bag1
(g2
(I421
tp1281
Rp1282
(dp1283
bg2
(I955
tp1284
Rp1285
(dp1286
btp1287
Rp1288
(dp1289
bag1
(g2
(I984
tp1290
Rp1291
(dp1292
bg2
(I610
tp1293
Rp1294
(dp1295
btp1296
Rp1297
(dp1298
bag1
(g2
(I572
tp1299
Rp1300
(dp1301
bg2
(I720
tp1302
Rp1303
(dp1304
btp1305
Rp1306
(dp1307
bag1
(g2
(I550
tp1308
Rp1309
(dp1310
bg2
(I865
tp1311
Rp1312
(dp1313
btp1314
Rp1315
(dp1316
bag1
(g2
(I786
tp1317
Rp1318
(dp1319
bg2
(I287
tp1320
Rp1321
(dp1322
btp1323
Rp1324
(dp1325
bag1
(g2
(I921
tp1326
Rp1327
(dp1328
bg2
(I166
tp1329
Rp1330
(dp1331
btp1332
Rp1333
(dp1334
bag1
(g2
(I649
tp1335
Rp1336
(dp1337
bg2
(I386
tp1338
Rp1339
(dp1340
btp1341
Rp1342
(dp1343
bag1
(g2
(I68
tp1344
Rp1345
(dp1346
bg2
(I459
tp1347
Rp1348
(dp1349
btp1350
Rp1351
(dp1352
bag1
(g2
(I126
tp1353
Rp1354
(dp1355
bg2
(I461
tp1356
Rp1357
(dp1358
btp1359
Rp1360
(dp1361
bag1
(g2
(I683
tp1362
Rp1363
(dp1364
bg2
(I871
tp1365
Rp1366
(dp1367
btp1368
Rp1369
(dp1370
bag1
(g460
g2
(I854
tp1371
Rp1372
(dp1373
btp1374
Rp1375
(dp1376
bag1
(g2
(I33
tp1377
Rp1378
(dp1379
bg2
(I228
tp1380
Rp1381
(dp1382
btp1383
Rp1384
(dp1385
bag1
(g2
(I536
tp1386
Rp1387
(dp1388
bg2
(I306
tp1389
Rp1390
(dp1391
btp1392
Rp1393
(dp1394
bag1
(g2
(I826
tp1395
Rp1396
(dp1397
bg2
(I987
tp1398
Rp1399
(dp1400
btp1401
Rp1402
(dp1403
bag1
(g2
(I522
tp1404
Rp1405
(dp1406
bg2
(I717
tp1407
Rp1408
(dp1409
btp1410
Rp1411
(dp1412
bag1
(g2
(I109
tp1413
Rp1414
(dp1415
bg2
(I311
tp1416
Rp1417
(dp1418
btp1419
Rp1420
(dp1421
bag1
(g1063
g913
tp1422
Rp1423
(dp1424
bag1
(g931
g2
(I399
tp1425
Rp1426
(dp1427
btp1428
Rp1429
(dp1430
bag1
(g901
g2
(I286
tp1431
Rp1432
(dp1433
btp1434
Rp1435
(dp1436
bag1
(g2
(I354
tp1437
Rp1438
(dp1439
bg2
(I818
tp1440
Rp1441
(dp1442
btp1443
Rp1444
(dp1445
bag1
(g2
(I828
tp1446
Rp1447
(dp1448
bg2
(I316
tp1449
Rp1450
(dp1451
btp1452
Rp1453
(dp1454
bag1
(g2
(I497
tp1455
Rp1456
(dp1457
bg2
(I500
tp1458
Rp1459
(dp1460
btp1461
Rp1462
(dp1463
bag1
(g2
(I182
tp1464
Rp1465
(dp1466
bg2
(I769
tp1467
Rp1468
(dp1469
btp1470
Rp1471
(dp1472
bag1
(g1159
g2
(I524
tp1473
Rp1474
(dp1475
btp1476
Rp1477
(dp1478
bag1
(g2
(I623
tp1479
Rp1480
(dp1481
bg2
(I993
tp1482
Rp1483
(dp1484
btp1485
Rp1486
(dp1487
bag1
(g2
(I439
tp1488
Rp1489
(dp1490
bg2
(I971
tp1491
Rp1492
(dp1493
btp1494
Rp1495
(dp1496
bag1
(g1450
g2
(I391
tp1497
Rp1498
(dp1499
btp1500
Rp1501
(dp1502
bag1
(g2
(I694
tp1503
Rp1504
(dp1505
bg2
(I674
tp1506
Rp1507
(dp1508
btp1509
Rp1510
(dp1511
bag1
(g2
(I181
tp1512
Rp1513
(dp1514
bg2
(I65
tp1515
Rp1516
(dp1517
btp1518
Rp1519
(dp1520
bag1
(g2
(I905
tp1521
Rp1522
(dp1523
bg2
(I350
tp1524
Rp1525
(dp1526
btp1527
Rp1528
(dp1529
bag1
(g2
(I113
tp1530
Rp1531
(dp1532
bg2
(I321
tp1533
Rp1534
(dp1535
btp1536
Rp1537
(dp1538
bag1
(g2
(I284
tp1539
Rp1540
(dp1541
bg2
(I434
tp1542
Rp1543
(dp1544
btp1545
Rp1546
(dp1547
bag1
(g2
(I799
tp1548
Rp1549
(dp1550
bg2
(I670
tp1551
Rp1552
(dp1553
btp1554
Rp1555
(dp1556
bag1
(g2
(I248
tp1557
Rp1558
(dp1559
bg2
(I299
tp1560
Rp1561
(dp1562
btp1563
Rp1564
(dp1565
bag1
(g2
(I790
tp1566
Rp1567
(dp1568
bg2
(I2
tp1569
Rp1570
(dp1571
btp1572
Rp1573
(dp1574
bag1
(g2
(I749
tp1575
Rp1576
(dp1577
bg2
(I97
tp1578
Rp1579
(dp1580
btp1581
Rp1582
(dp1583
bag1
(g1348
g193
tp1584
Rp1585
(dp1586
bag1
(g1303
g2
(I686
tp1587
Rp1588
(dp1589
btp1590
Rp1591
(dp1592
bag1
(g2
(I983
tp1593
Rp1594
(dp1595
bg2
(I323
tp1596
Rp1597
(dp1598
btp1599
Rp1600
(dp1601
bag1
(g2
(I652
tp1602
Rp1603
(dp1604
bg2
(I179
tp1605
Rp1606
(dp1607
btp1608
Rp1609
(dp1610
bag1
(g2
(I88
tp1611
Rp1612
(dp1613
bg2
(I602
tp1614
Rp1615
(dp1616
btp1617
Rp1618
(dp1619
bag1
(g2
(I780
tp1620
Rp1621
(dp1622
bg2
(I254
tp1623
Rp1624
(dp1625
btp1626
Rp1627
(dp1628
bag1
(g2
(I629
tp1629
Rp1630
(dp1631
bg2
(I651
tp1632
Rp1633
(dp1634
btp1635
Rp1636
(dp1637
bag1
(g1183
g2
(I996
tp1638
Rp1639
(dp1640
btp1641
Rp1642
(dp1643
bag1
(g1366
g2
(I99
tp1644
Rp1645
(dp1646
btp1647
Rp1648
(dp1649
bag1
(g2
(I245
tp1650
Rp1651
(dp1652
bg2
(I123
tp1653
Rp1654
(dp1655
btp1656
Rp1657
(dp1658
bag1
(g2
(I582
tp1659
Rp1660
(dp1661
bg2
(I672
tp1662
Rp1663
(dp1664
btp1665
Rp1666
(dp1667
bag1
(g2
(I821
tp1668
Rp1669
(dp1670
bg2
(I43
tp1671
Rp1672
(dp1673
btp1674
Rp1675
(dp1676
bag1
(g97
g2
(I79
tp1677
Rp1678
(dp1679
btp1680
Rp1681
(dp1682
bag1
(g892
g2
(I906
tp1683
Rp1684
(dp1685
btp1686
Rp1687
(dp1688
bag1
(g2
(I142
tp1689
Rp1690
(dp1691
bg2
(I770
tp1692
Rp1693
(dp1694
btp1695
Rp1696
(dp1697
bag1
(g2
(I541
tp1698
Rp1699
(dp1700
bg2
(I791
tp1701
Rp1702
(dp1703
btp1704
Rp1705
(dp1706
bag1
(g2
(I881
tp1707
Rp1708
(dp1709
bg2
(I185
tp1710
Rp1711
(dp1712
btp1713
Rp1714
(dp1715
bag1
(g2
(I432
tp1716
Rp1717
(dp1718
bg2
(I557
tp1719
Rp1720
(dp1721
btp1722
Rp1723
(dp1724
bag1
(g2
(I760
tp1725
Rp1726
(dp1727
bg2
(I464
tp1728
Rp1729
(dp1730
btp1731
Rp1732
(dp1733
bag1
(g43
g2
(I632
tp1734
Rp1735
(dp1736
btp1737
Rp1738
(dp1739
bag1
(g2
(I893
tp1740
Rp1741
(dp1742
bg2
(I335
tp1743
Rp1744
(dp1745
btp1746
Rp1747
(dp1748
bag1
(g2
(I425
tp1749
Rp1750
(dp1751
bg847
tp1752
Rp1753
(dp1754
bag1
(g2
(I531
tp1755
Rp1756
(dp1757
bg2
(I154
tp1758
Rp1759
(dp1760
btp1761
Rp1762
(dp1763
bag1
(g2
(I597
tp1764
Rp1765
(dp1766
bg1630
tp1767
Rp1768
(dp1769
bag1
(g2
(I668
tp1770
Rp1771
(dp1772
bg2
(I627
tp1773
Rp1774
(dp1775
btp1776
Rp1777
(dp1778
bag1
(g598
g2
(I46
tp1779
Rp1780
(dp1781
btp1782
Rp1783
(dp1784
bag1
(g2
(I47
tp1785
Rp1786
(dp1787
bg40
tp1788
Rp1789
(dp1790
bag1
(g2
(I953
tp1791
Rp1792
(dp1793
bg2
(I855
tp1794
Rp1795
(dp1796
btp1797
Rp1798
(dp1799
bag1
(g2
(I344
tp1800
Rp1801
(dp1802
bg2
(I505
tp1803
Rp1804
(dp1805
btp1806
Rp1807
(dp1808
bag1
(g2
(I11
tp1809
Rp1810
(dp1811
bg694
tp1812
Rp1813
(dp1814
bag1
(g2
(I633
tp1815
Rp1816
(dp1817
bg2
(I147
tp1818
Rp1819
(dp1820
btp1821
Rp1822
(dp1823
bag1
(g2
(I136
tp1824
Rp1825
(dp1826
bg2
(I380
tp1827
Rp1828
(dp1829
btp1830
Rp1831
(dp1832
bag1
(g2
(I422
tp1833
Rp1834
(dp1835
bg2
(I152
tp1836
Rp1837
(dp1838
btp1839
Rp1840
(dp1841
bag1
(g976
g2
(I119
tp1842
Rp1843
(dp1844
btp1845
Rp1846
(dp1847
bag1
(g2
(I675
tp1848
Rp1849
(dp1850
bg2
(I219
tp1851
Rp1852
(dp1853
btp1854
Rp1855
(dp1856
bag1
(g823
g2
(I141
tp1857
Rp1858
(dp1859
btp1860
Rp1861
(dp1862
bag1
(g2
(I477
tp1863
Rp1864
(dp1865
bg1051
tp1866
Rp1867
(dp1868
bag1
(g2
(I81
tp1869
Rp1870
(dp1871
bg640
tp1872
Rp1873
(dp1874
bag1
(g1858
g247
tp1875
Rp1876
(dp1877
bag1
(g1474
g2
(I13
tp1878
Rp1879
(dp1880
btp1881
Rp1882
(dp1883
bag1
(g2
(I754
tp1884
Rp1885
(dp1886
bg2
(I110
tp1887
Rp1888
(dp1889
btp1890
Rp1891
(dp1892
bag1
(g2
(I972
tp1893
Rp1894
(dp1895
bg2
(I282
tp1896
Rp1897
(dp1898
btp1899
Rp1900
(dp1901
bag1
(g2
(I371
tp1902
Rp1903
(dp1904
bg1021
tp1905
Rp1906
(dp1907
bag1
(g2
(I127
tp1908
Rp1909
(dp1910
bg2
(I846
tp1911
Rp1912
(dp1913
btp1914
Rp1915
(dp1916
bag1
(g2
(I124
tp1917
Rp1918
(dp1919
bg2
(I966
tp1920
Rp1921
(dp1922
btp1923
Rp1924
(dp1925
bag1
(g2
(I922
tp1926
Rp1927
(dp1928
bg2
(I107
tp1929
Rp1930
(dp1931
btp1932
Rp1933
(dp1934
bag1
(g2
(I129
tp1935
Rp1936
(dp1937
bg802
tp1938
Rp1939
(dp1940
bag1
(g2
(I397
tp1941
Rp1942
(dp1943
bg2
(I616
tp1944
Rp1945
(dp1946
btp1947
Rp1948
(dp1949
bag1
(g2
(I310
tp1950
Rp1951
(dp1952
bg2
(I877
tp1953
Rp1954
(dp1955
btp1956
Rp1957
(dp1958
bag1
(g2
(I294
tp1959
Rp1960
(dp1961
bg2
(I811
tp1962
Rp1963
(dp1964
btp1965
Rp1966
(dp1967
bag1
(g2
(I270
tp1968
Rp1969
(dp1970
bg2
(I30
tp1971
Rp1972
(dp1973
btp1974
Rp1975
(dp1976
bag1
(g2
(I348
tp1977
Rp1978
(dp1979
bg2
(I643
tp1980
Rp1981
(dp1982
btp1983
Rp1984
(dp1985
bag1
(g2
(I964
tp1986
Rp1987
(dp1988
bg2
(I507
tp1989
Rp1990
(dp1991
btp1992
Rp1993
(dp1994
bag1
(g2
(I372
tp1995
Rp1996
(dp1997
bg2
(I242
tp1998
Rp1999
(dp2000
btp2001
Rp2002
(dp2003
bag1
(g1702
g1249
tp2004
Rp2005
(dp2006
bag1
(g2
(I292
tp2007
Rp2008
(dp2009
bg1549
tp2010
Rp2011
(dp2012
bag1
(g2
(I792
tp2013
Rp2014
(dp2015
bg2
(I933
tp2016
Rp2017
(dp2018
btp2019
Rp2020
(dp2021
bag1
(g2
(I673
tp2022
Rp2023
(dp2024
bg1210
tp2025
Rp2026
(dp2027
bag1
(g2
(I19
tp2028
Rp2029
(dp2030
bg2
(I945
tp2031
Rp2032
(dp2033
btp2034
Rp2035
(dp2036
bag1
(g2
(I665
tp2037
Rp2038
(dp2039
bg1465
tp2040
Rp2041
(dp2042
bag1
(g2
(I640
tp2043
Rp2044
(dp2045
bg1594
tp2046
Rp2047
(dp2048
bag1
(g2
(I177
tp2049
Rp2050
(dp2051
bg2
(I22
tp2052
Rp2053
(dp2054
btp2055
Rp2056
(dp2057
bag1
(g124
g2
(I232
tp2058
Rp2059
(dp2060
btp2061
Rp2062
(dp2063
bag1
(g2
(I554
tp2064
Rp2065
(dp2066
bg1396
tp2067
Rp2068
(dp2069
bag1
(g277
g2
(I778
tp2070
Rp2071
(dp2072
btp2073
Rp2074
(dp2075
bag1
(g70
g2
(I847
tp2076
Rp2077
(dp2078
btp2079
Rp2080
(dp2081
bag1
(g2
(I700
tp2082
Rp2083
(dp2084
bg1801
tp2085
Rp2086
(dp2087
bag1
(g2
(I618
tp2088
Rp2089
(dp2090
bg2
(I392
tp2091
Rp2092
(dp2093
btp2094
Rp2095
(dp2096
bag1
(g2
(I237
tp2097
Rp2098
(dp2099
bg2
(I896
tp2100
Rp2101
(dp2102
btp2103
Rp2104
(dp2105
bag1
(g2
(I52
tp2106
Rp2107
(dp2108
bg2
(I45
tp2109
Rp2110
(dp2111
btp2112
Rp2113
(dp2114
bag1
(g1294
g874
tp2115
Rp2116
(dp2117
bag1
(g2
(I114
tp2118
Rp2119
(dp2120
bg2
(I263
tp2121
Rp2122
(dp2123
btp2124
Rp2125
(dp2126
bag1
(g2
(I516
tp2127
Rp2128
(dp2129
bg1447
tp2130
Rp2131
(dp2132
bag1
(g2
(I571
tp2133
Rp2134
(dp2135
bg964
tp2136
Rp2137
(dp2138
bag1
(g1615
g2
(I807
tp2139
Rp2140
(dp2141
btp2142
Rp2143
(dp2144
bag1
(g2
(I703
tp2145
Rp2146
(dp2147
bg2
(I429
tp2148
Rp2149
(dp2150
btp2151
Rp2152
(dp2153
bag1
(g2
(I26
tp2154
Rp2155
(dp2156
bg1660
tp2157
Rp2158
(dp2159
bag1
(g2
(I835
tp2160
Rp2161
(dp2162
bg1513
tp2163
Rp2164
(dp2165
bag1
(g2
(I636
tp2166
Rp2167
(dp2168
bg2
(I340
tp2169
Rp2170
(dp2171
btp2172
Rp2173
(dp2174
bag1
(g2077
g2
(I189
tp2175
Rp2176
(dp2177
btp2178
Rp2179
(dp2180
bag1
(g2
(I817
tp2181
Rp2182
(dp2183
bg2
(I149
tp2184
Rp2185
(dp2186
btp2187
Rp2188
(dp2189
bag1
(g958
g2
(I721
tp2190
Rp2191
(dp2192
btp2193
Rp2194
(dp2195
bag1
(g1468
g2
(I353
tp2196
Rp2197
(dp2198
btp2199
Rp2200
(dp2201
bag1
(g340
g1717
tp2202
Rp2203
(dp2204
bag1
(g2
(I408
tp2205
Rp2206
(dp2207
bg2
(I724
tp2208
Rp2209
(dp2210
btp2211
Rp2212
(dp2213
bag1
(g1213
g2
(I442
tp2214
Rp2215
(dp2216
btp2217
Rp2218
(dp2219
bag1
(g313
g337
tp2220
Rp2221
(dp2222
bag1
(g1285
g2
(I111
tp2223
Rp2224
(dp2225
btp2226
Rp2227
(dp2228
bag1
(g1135
g2
(I613
tp2229
Rp2230
(dp2231
btp2232
Rp2233
(dp2234
bag1
(g1525
g1504
tp2235
Rp2236
(dp2237
bag1
(g2
(I140
tp2238
Rp2239
(dp2240
bg2
(I116
tp2241
Rp2242
(dp2243
btp2244
Rp2245
(dp2246
bag1
(g2
(I145
tp2247
Rp2248
(dp2249
bg1894
tp2250
Rp2251
(dp2252
bag1
(g2
(I173
tp2253
Rp2254
(dp2255
bg2
(I890
tp2256
Rp2257
(dp2258
btp2259
Rp2260
(dp2261
bag1
(g2
(I361
tp2262
Rp2263
(dp2264
bg2
(I187
tp2265
Rp2266
(dp2267
btp2268
Rp2269
(dp2270
bag1
(g2
(I513
tp2271
Rp2272
(dp2273
bg2
(I839
tp2274
Rp2275
(dp2276
btp2277
Rp2278
(dp2279
bag1
(g1954
g2
(I396
tp2280
Rp2281
(dp2282
btp2283
Rp2284
(dp2285
bag1
(g2
(I973
tp2286
Rp2287
(dp2288
bg2
(I324
tp2289
Rp2290
(dp2291
btp2292
Rp2293
(dp2294
bag1
(g2
(I875
tp2295
Rp2296
(dp2297
bg1576
tp2298
Rp2299
(dp2300
bag1
(g2
(I929
tp2301
Rp2302
(dp2303
bg2
(I974
tp2304
Rp2305
(dp2306
btp2307
Rp2308
(dp2309
bag1
(g2
(I863
tp2310
Rp2311
(dp2312
bg2
(I650
tp2313
Rp2314
(dp2315
btp2316
Rp2317
(dp2318
bag1
(g2
(I722
tp2319
Rp2320
(dp2321
bg2
(I328
tp2322
Rp2323
(dp2324
btp2325
Rp2326
(dp2327
bag1
(g2
(I246
tp2328
Rp2329
(dp2330
bg2
(I244
tp2331
Rp2332
(dp2333
btp2334
Rp2335
(dp2336
bag1
(g2
(I803
tp2337
Rp2338
(dp2339
bg2134
tp2340
Rp2341
(dp2342
bag1
(g2
(I5
tp2343
Rp2344
(dp2345
bg2
(I864
tp2346
Rp2347
(dp2348
btp2349
Rp2350
(dp2351
bag1
(g2
(I403
tp2352
Rp2353
(dp2354
bg1942
tp2355
Rp2356
(dp2357
bag1
(g2305
g2
(I626
tp2358
Rp2359
(dp2360
btp2361
Rp2362
(dp2363
bag1
(g2
(I653
tp2364
Rp2365
(dp2366
bg865
tp2367
Rp2368
(dp2369
bag1
(g616
g757
tp2370
Rp2371
(dp2372
bag1
(g1711
g2
(I363
tp2373
Rp2374
(dp2375
btp2376
Rp2377
(dp2378
bag1
(g493
g2
(I172
tp2379
Rp2380
(dp2381
btp2382
Rp2383
(dp2384
bag1
(g1276
g2
(I48
tp2385
Rp2386
(dp2387
btp2388
Rp2389
(dp2390
bag1
(g883
g2
(I704
tp2391
Rp2392
(dp2393
btp2394
Rp2395
(dp2396
bag1
(g1684
g2
(I441
tp2397
Rp2398
(dp2399
btp2400
Rp2401
(dp2402
bag1
(g2
(I781
tp2403
Rp2404
(dp2405
bg103
tp2406
Rp2407
(dp2408
bag1
(g2
(I265
tp2409
Rp2410
(dp2411
bg2
(I919
tp2412
Rp2413
(dp2414
btp2415
Rp2416
(dp2417
bag1
(g2
(I346
tp2418
Rp2419
(dp2420
bg2
(I794
tp2421
Rp2422
(dp2423
btp2424
Rp2425
(dp2426
bag1
(g2
(I12
tp2427
Rp2428
(dp2429
bg2
(I85
tp2430
Rp2431
(dp2432
btp2433
Rp2434
(dp2435
bag1
(g2
(I804
tp2436
Rp2437
(dp2438
bg2
(I186
tp2439
Rp2440
(dp2441
btp2442
Rp2443
(dp2444
bag1
(g2359
g2
(I734
tp2445
Rp2446
(dp2447
btp2448
Rp2449
(dp2450
bag1
(g2
(I514
tp2451
Rp2452
(dp2453
bg517
tp2454
Rp2455
(dp2456
bag1
(g2
(I596
tp2457
Rp2458
(dp2459
bg2
(I465
tp2460
Rp2461
(dp2462
btp2463
Rp2464
(dp2465
bag1
(g2
(I42
tp2466
Rp2467
(dp2468
bg2
(I669
tp2469
Rp2470
(dp2471
btp2472
Rp2473
(dp2474
bag1
(g2
(I420
tp2475
Rp2476
(dp2477
bg412
tp2478
Rp2479
(dp2480
bag1
(g2290
g2
(I756
tp2481
Rp2482
(dp2483
btp2484
Rp2485
(dp2486
bag1
(g760
g2
(I562
tp2487
Rp2488
(dp2489
btp2490
Rp2491
(dp2492
bag1
(g2
(I621
tp2493
Rp2494
(dp2495
bg775
tp2496
Rp2497
(dp2498
bag1
(g2
(I220
tp2499
Rp2500
(dp2501
bg319
tp2502
Rp2503
(dp2504
bag1
(g2
(I614
tp2505
Rp2506
(dp2507
bg2
(I405
tp2508
Rp2509
(dp2510
btp2511
Rp2512
(dp2513
bag1
(g733
g2
(I656
tp2514
Rp2515
(dp2516
btp2517
Rp2518
(dp2519
bag1
(g2
(I144
tp2520
Rp2521
(dp2522
bg2
(I331
tp2523
Rp2524
(dp2525
btp2526
Rp2527
(dp2528
bag1
(g2
(I402
tp2529
Rp2530
(dp2531
bg1792
tp2532
Rp2533
(dp2534
bag1
(g2
(I594
tp2535
Rp2536
(dp2537
bg2
(I783
tp2538
Rp2539
(dp2540
btp2541
Rp2542
(dp2543
bag1
(g1897
g2
(I655
tp2544
Rp2545
(dp2546
btp2547
Rp2548
(dp2549
bag1
(g2
(I930
tp2550
Rp2551
(dp2552
bg2
(I661
tp2553
Rp2554
(dp2555
btp2556
Rp2557
(dp2558
ba.