(lp0
csympy.geometry.point
Point2D
p1
(csympy.core.numbers
Integer
p2
(I176
tp3
Rp4
(dp5
bg2
(I111
tp6
Rp7
(dp8
btp9
Rp10
(dp11
bag1
(g2
(I190
tp12
Rp13
(dp14
bg2
(I217
tp15
Rp16
(dp17
btp18
Rp19
(dp20
bag1
(g2
(I432
tp21
Rp22
(dp23
bg2
(I147
tp24
Rp25
(dp26
btp27
Rp28
(dp29
ba.