(lp0
csympy.geometry.point
Point2D
p1
(csympy.core.numbers
Integer
p2
(I275
tp3
Rp4
(dp5
bg2
(I206
tp6
Rp7
(dp8
btp9
Rp10
(dp11
bag1
(g2
(I456
tp12
Rp13
(dp14
bg2
(I261
tp15
Rp16
(dp17
btp18
Rp19
(dp20
bag1
(g2
(I122
tp21
Rp22
(dp23
bg2
(I488
tp24
Rp25
(dp26
btp27
Rp28
(dp29
ba.