(lp0
csympy.geometry.point
Point2D
p1
(csympy.core.numbers
Integer
p2
(I883
tp3
Rp4
(dp5
bg2
(I871
tp6
Rp7
(dp8
btp9
Rp10
(dp11
bag1
(g2
(I356
tp12
Rp13
(dp14
bg2
(I243
tp15
Rp16
(dp17
btp18
Rp19
(dp20
bag1
(g2
(I796
tp21
Rp22
(dp23
bg2
(I904
tp24
Rp25
(dp26
btp27
Rp28
(dp29
bag1
(g2
(I973
tp30
Rp31
(dp32
bg2
(I233
tp33
Rp34
(dp35
btp36
Rp37
(dp38
bag1
(g2
(I246
tp39
Rp40
(dp41
bg2
(I718
tp42
Rp43
(dp44
btp45
Rp46
(dp47
bag1
(g2
(I698
tp48
Rp49
(dp50
bg2
(I156
tp51
Rp52
(dp53
btp54
Rp55
(dp56
bag1
(g2
(I745
tp57
Rp58
(dp59
bg2
(I586
tp60
Rp61
(dp62
btp63
Rp64
(dp65
bag1
(g2
(I845
tp66
Rp67
(dp68
bg2
(I51
tp69
Rp70
(dp71
btp72
Rp73
(dp74
bag1
(g2
(I297
tp75
Rp76
(dp77
bg2
(I412
tp78
Rp79
(dp80
btp81
Rp82
(dp83
bag1
(g2
(I997
tp84
Rp85
(dp86
bg2
(I748
tp87
Rp88
(dp89
btp90
Rp91
(dp92
bag1
(g2
(I259
tp93
Rp94
(dp95
bg2
(I61
tp96
Rp97
(dp98
btp99
Rp100
(dp101
bag1
(g2
(I271
tp102
Rp103
(dp104
bg2
(I158
tp105
Rp106
(dp107
btp108
Rp109
(dp110
bag1
(g2
(I70
tp111
Rp112
(dp113
bg2
(I601
tp114
Rp115
(dp116
btp117
Rp118
(dp119
bag1
(g2
(I625
tp120
Rp121
(dp122
bg2
(I804
tp123
Rp124
(dp125
btp126
Rp127
(dp128
bag1
(g2
(I518
tp129
Rp130
(dp131
bg2
(I313
tp132
Rp133
(dp134
btp135
Rp136
(dp137
bag1
(g2
(I841
tp138
Rp139
(dp140
bg2
(I855
tp141
Rp142
(dp143
btp144
Rp145
(dp146
bag1
(g2
(I563
tp147
Rp148
(dp149
bg2
(I20
tp150
Rp151
(dp152
btp153
Rp154
(dp155
bag1
(g2
(I609
tp156
Rp157
(dp158
bg2
(I742
tp159
Rp160
(dp161
btp162
Rp163
(dp164
bag1
(g2
(I85
tp165
Rp166
(dp167
bg2
(I310
tp168
Rp169
(dp170
btp171
Rp172
(dp173
bag1
(g2
(I237
tp174
Rp175
(dp176
bg2
(I647
tp177
Rp178
(dp179
btp180
Rp181
(dp182
bag1
(g2
(I203
tp183
Rp184
(dp185
bg2
(I719
tp186
Rp187
(dp188
btp189
Rp190
(dp191
bag1
(g2
(I754
tp192
Rp193
(dp194
bg2
(I553
tp195
Rp196
(dp197
btp198
Rp199
(dp200
bag1
(g2
(I731
tp201
Rp202
(dp203
bg2
(I899
tp204
Rp205
(dp206
btp207
Rp208
(dp209
bag1
(g160
g2
(I790
tp210
Rp211
(dp212
btp213
Rp214
(dp215
bag1
(g2
(I832
tp216
Rp217
(dp218
bg2
(I734
tp219
Rp220
(dp221
btp222
Rp223
(dp224
bag1
(g2
(I711
tp225
Rp226
(dp227
bg2
(I727
tp228
Rp229
(dp230
btp231
Rp232
(dp233
bag1
(g2
(I221
tp234
Rp235
(dp236
bg2
(I824
tp237
Rp238
(dp239
btp240
Rp241
(dp242
bag1
(g2
(I549
tp243
Rp244
(dp245
bg2
(I135
tp246
Rp247
(dp248
btp249
Rp250
(dp251
bag1
(g2
(I852
tp252
Rp253
(dp254
bg2
(I105
tp255
Rp256
(dp257
btp258
Rp259
(dp260
bag1
(g2
(I662
tp261
Rp262
(dp263
bg2
(I190
tp264
Rp265
(dp266
btp267
Rp268
(dp269
bag1
(g2
(I795
tp270
Rp271
(dp272
bg2
(I240
tp273
Rp274
(dp275
btp276
Rp277
(dp278
bag1
(g2
(I343
tp279
Rp280
(dp281
bg2
(I559
tp282
Rp283
(dp284
btp285
Rp286
(dp287
bag1
(g2
(I735
tp288
Rp289
(dp290
bg2
(I220
tp291
Rp292
(dp293
btp294
Rp295
(dp296
bag1
(g2
(I218
tp297
Rp298
(dp299
bg2
(I293
tp300
Rp301
(dp302
btp303
Rp304
(dp305
bag1
(g2
(I294
tp306
Rp307
(dp308
bg2
(I984
tp309
Rp310
(dp311
btp312
Rp313
(dp314
bag1
(g2
(I377
tp315
Rp316
(dp317
bg2
(I26
tp318
Rp319
(dp320
btp321
Rp322
(dp323
bag1
(g2
(I68
tp324
Rp325
(dp326
bg2
(I854
tp327
Rp328
(dp329
btp330
Rp331
(dp332
bag1
(g2
(I329
tp333
Rp334
(dp335
bg2
(I863
tp336
Rp337
(dp338
btp339
Rp340
(dp341
bag1
(g2
(I470
tp342
Rp343
(dp344
bg2
(I499
tp345
Rp346
(dp347
btp348
Rp349
(dp350
bag1
(g2
(I404
tp351
Rp352
(dp353
bg2
(I296
tp354
Rp355
(dp356
btp357
Rp358
(dp359
ba.