(lp0
csympy.geometry.point
Point2D
p1
(csympy.core.numbers
Integer
p2
(I759
tp3
Rp4
(dp5
bg2
(I897
tp6
Rp7
(dp8
btp9
Rp10
(dp11
bag1
(g2
(I193
tp12
Rp13
(dp14
bg2
(I146
tp15
Rp16
(dp17
btp18
Rp19
(dp20
bag1
(g2
(I819
tp21
Rp22
(dp23
bg2
(I788
tp24
Rp25
(dp26
btp27
Rp28
(dp29
bag1
(g2
(I314
tp30
Rp31
(dp32
bg2
(I78
tp33
Rp34
(dp35
btp36
Rp37
(dp38
bag1
(g2
(I526
tp39
Rp40
(dp41
bg2
(I722
tp42
Rp43
(dp44
btp45
Rp46
(dp47
bag1
(g2
(I930
tp48
Rp49
(dp50
bg2
(I182
tp51
Rp52
(dp53
btp54
Rp55
(dp56
bag1
(g2
(I646
tp57
Rp58
(dp59
bg2
(I76
tp60
Rp61
(dp62
btp63
Rp64
(dp65
bag1
(g2
(I576
tp66
Rp67
(dp68
bg2
(I456
tp69
Rp70
(dp71
btp72
Rp73
(dp74
bag1
(g2
(I883
tp75
Rp76
(dp77
bg2
(I119
tp78
Rp79
(dp80
btp81
Rp82
(dp83
bag1
(g2
(I665
tp84
Rp85
(dp86
bg2
(I216
tp87
Rp88
(dp89
btp90
Rp91
(dp92
bag1
(g2
(I945
tp93
Rp94
(dp95
bg2
(I285
tp96
Rp97
(dp98
btp99
Rp100
(dp101
bag1
(g2
(I453
tp102
Rp103
(dp104
bg2
(I445
tp105
Rp106
(dp107
btp108
Rp109
(dp110
bag1
(g2
(I378
tp111
Rp112
(dp113
bg2
(I480
tp114
Rp115
(dp116
btp117
Rp118
(dp119
bag1
(g2
(I935
tp120
Rp121
(dp122
bg2
(I397
tp123
Rp124
(dp125
btp126
Rp127
(dp128
bag1
(g2
(I305
tp129
Rp130
(dp131
bg2
(I149
tp132
Rp133
(dp134
btp135
Rp136
(dp137
bag1
(g2
(I440
tp138
Rp139
(dp140
bg2
(I752
tp141
Rp142
(dp143
btp144
Rp145
(dp146
bag1
(g2
(I737
tp147
Rp148
(dp149
bg4
tp150
Rp151
(dp152
bag1
(g2
(I928
tp153
Rp154
(dp155
bg2
(I102
tp156
Rp157
(dp158
btp159
Rp160
(dp161
bag1
(g2
(I197
tp162
Rp163
(dp164
bg2
(I264
tp165
Rp166
(dp167
btp168
Rp169
(dp170
bag1
(g2
(I147
tp171
Rp172
(dp173
bg2
(I484
tp174
Rp175
(dp176
btp177
Rp178
(dp179
bag1
(g2
(I684
tp180
Rp181
(dp182
bg2
(I520
tp183
Rp184
(dp185
btp186
Rp187
(dp188
bag1
(g2
(I816
tp189
Rp190
(dp191
bg2
(I796
tp192
Rp193
(dp194
btp195
Rp196
(dp197
bag1
(g2
(I179
tp198
Rp199
(dp200
bg2
(I503
tp201
Rp202
(dp203
btp204
Rp205
(dp206
bag1
(g2
(I189
tp207
Rp208
(dp209
bg2
(I590
tp210
Rp211
(dp212
btp213
Rp214
(dp215
bag1
(g2
(I239
tp216
Rp217
(dp218
bg2
(I683
tp219
Rp220
(dp221
btp222
Rp223
(dp224
bag1
(g2
(I114
tp225
Rp226
(dp227
bg2
(I124
tp228
Rp229
(dp230
btp231
Rp232
(dp233
bag1
(g2
(I16
tp234
Rp235
(dp236
bg2
(I595
tp237
Rp238
(dp239
btp240
Rp241
(dp242
bag1
(g2
(I243
tp243
Rp244
(dp245
bg2
(I325
tp246
Rp247
(dp248
btp249
Rp250
(dp251
bag1
(g2
(I462
tp252
Rp253
(dp254
bg2
(I895
tp255
Rp256
(dp257
btp258
Rp259
(dp260
bag1
(g2
(I11
tp261
Rp262
(dp263
bg2
(I962
tp264
Rp265
(dp266
btp267
Rp268
(dp269
bag1
(g2
(I372
tp270
Rp271
(dp272
bg2
(I337
tp273
Rp274
(dp275
btp276
Rp277
(dp278
bag1
(g2
(I435
tp279
Rp280
(dp281
bg2
(I400
tp282
Rp283
(dp284
btp285
Rp286
(dp287
bag1
(g2
(I831
tp288
Rp289
(dp290
bg2
(I943
tp291
Rp292
(dp293
btp294
Rp295
(dp296
bag1
(g2
(I723
tp297
Rp298
(dp299
bg2
(I852
tp300
Rp301
(dp302
btp303
Rp304
(dp305
bag1
(g2
(I275
tp306
Rp307
(dp308
bg2
(I44
tp309
Rp310
(dp311
btp312
Rp313
(dp314
bag1
(g2
(I127
tp315
Rp316
(dp317
bg2
(I461
tp318
Rp319
(dp320
btp321
Rp322
(dp323
bag1
(g2
(I754
tp324
Rp325
(dp326
bg2
(I885
tp327
Rp328
(dp329
btp330
Rp331
(dp332
bag1
(g2
(I797
tp333
Rp334
(dp335
bg2
(I353
tp336
Rp337
(dp338
btp339
Rp340
(dp341
bag1
(g2
(I428
tp342
Rp343
(dp344
bg2
(I840
tp345
Rp346
(dp347
btp348
Rp349
(dp350
bag1
(g2
(I68
tp351
Rp352
(dp353
bg2
(I105
tp354
Rp355
(dp356
btp357
Rp358
(dp359
ba.