(lp0
csympy.geometry.point
Point2D
p1
(csympy.core.numbers
Integer
p2
(I184
tp3
Rp4
(dp5
bg2
(I280
tp6
Rp7
(dp8
btp9
Rp10
(dp11
bag1
(g2
(I114
tp12
Rp13
(dp14
bg2
(I180
tp15
Rp16
(dp17
btp18
Rp19
(dp20
bag1
(g2
(I201
tp21
Rp22
(dp23
bg2
(I151
tp24
Rp25
(dp26
btp27
Rp28
(dp29
bag1
(g2
(I221
tp30
Rp31
(dp32
bg2
(I102
tp33
Rp34
(dp35
btp36
Rp37
(dp38
ba.