(lp0
csympy.geometry.point
Point2D
p1
(csympy.core.numbers
Integer
p2
(I950
tp3
Rp4
(dp5
bg2
(I977
tp6
Rp7
(dp8
btp9
Rp10
(dp11
bag1
(g2
(I194
tp12
Rp13
(dp14
bg2
(I801
tp15
Rp16
(dp17
btp18
Rp19
(dp20
bag1
(g2
(I624
tp21
Rp22
(dp23
bg2
(I402
tp24
Rp25
(dp26
btp27
Rp28
(dp29
bag1
(g2
(I367
tp30
Rp31
(dp32
bg2
(I229
tp33
Rp34
(dp35
btp36
Rp37
(dp38
bag1
(g2
(I237
tp39
Rp40
(dp41
bg2
(I352
tp42
Rp43
(dp44
btp45
Rp46
(dp47
bag1
(g2
(I422
tp48
Rp49
(dp50
bg2
(I156
tp51
Rp52
(dp53
btp54
Rp55
(dp56
bag1
(g2
(I528
tp57
Rp58
(dp59
bg2
(I307
tp60
Rp61
(dp62
btp63
Rp64
(dp65
bag1
(g2
(I790
tp66
Rp67
(dp68
bg2
(I246
tp69
Rp70
(dp71
btp72
Rp73
(dp74
bag1
(g2
(I596
tp75
Rp76
(dp77
bg2
(I840
tp78
Rp79
(dp80
btp81
Rp82
(dp83
bag1
(g2
(I673
tp84
Rp85
(dp86
bg2
(I70
tp87
Rp88
(dp89
btp90
Rp91
(dp92
bag1
(g2
(I475
tp93
Rp94
(dp95
bg2
(I637
tp96
Rp97
(dp98
btp99
Rp100
(dp101
bag1
(g2
(I949
tp102
Rp103
(dp104
bg2
(I477
tp105
Rp106
(dp107
btp108
Rp109
(dp110
bag1
(g2
(I52
tp111
Rp112
(dp113
bg2
(I884
tp114
Rp115
(dp116
btp117
Rp118
(dp119
bag1
(g2
(I503
tp120
Rp121
(dp122
bg2
(I357
tp123
Rp124
(dp125
btp126
Rp127
(dp128
bag1
(g2
(I745
tp129
Rp130
(dp131
bg2
(I288
tp132
Rp133
(dp134
btp135
Rp136
(dp137
bag1
(g2
(I603
tp138
Rp139
(dp140
bg2
(I527
tp141
Rp142
(dp143
btp144
Rp145
(dp146
bag1
(g2
(I238
tp147
Rp148
(dp149
bg2
(I162
tp150
Rp151
(dp152
btp153
Rp154
(dp155
bag1
(g2
(I53
tp156
Rp157
(dp158
bg2
(I342
tp159
Rp160
(dp161
btp162
Rp163
(dp164
bag1
(g2
(I2
tp165
Rp166
(dp167
bg2
(I683
tp168
Rp169
(dp170
btp171
Rp172
(dp173
bag1
(g2
(I582
tp174
Rp175
(dp176
bg2
(I399
tp177
Rp178
(dp179
btp180
Rp181
(dp182
bag1
(g2
(I123
tp183
Rp184
(dp185
bg2
(I161
tp186
Rp187
(dp188
btp189
Rp190
(dp191
bag1
(g2
(I795
tp192
Rp193
(dp194
bg2
(I598
tp195
Rp196
(dp197
btp198
Rp199
(dp200
bag1
(g2
(I934
tp201
Rp202
(dp203
bg2
(I27
tp204
Rp205
(dp206
btp207
Rp208
(dp209
bag1
(g2
(I747
tp210
Rp211
(dp212
bg2
(I295
tp213
Rp214
(dp215
btp216
Rp217
(dp218
bag1
(g2
(I15
tp219
Rp220
(dp221
bg2
(I890
tp222
Rp223
(dp224
btp225
Rp226
(dp227
bag1
(g2
(I378
tp228
Rp229
(dp230
bg2
(I562
tp231
Rp232
(dp233
btp234
Rp235
(dp236
bag1
(g2
(I617
tp237
Rp238
(dp239
bg2
(I627
tp240
Rp241
(dp242
btp243
Rp244
(dp245
bag1
(g2
(I363
tp246
Rp247
(dp248
bg2
(I945
tp249
Rp250
(dp251
btp252
Rp253
(dp254
bag1
(g2
(I408
tp255
Rp256
(dp257
bg2
(I727
tp258
Rp259
(dp260
btp261
Rp262
(dp263
bag1
(g2
(I997
tp264
Rp265
(dp266
bg2
(I782
tp267
Rp268
(dp269
btp270
Rp271
(dp272
bag1
(g2
(I913
tp273
Rp274
(dp275
bg2
(I825
tp276
Rp277
(dp278
btp279
Rp280
(dp281
bag1
(g2
(I789
tp282
Rp283
(dp284
bg2
(I749
tp285
Rp286
(dp287
btp288
Rp289
(dp290
bag1
(g2
(I326
tp291
Rp292
(dp293
bg2
(I492
tp294
Rp295
(dp296
btp297
Rp298
(dp299
bag1
(g2
(I502
tp300
Rp301
(dp302
bg2
(I918
tp303
Rp304
(dp305
btp306
Rp307
(dp308
bag1
(g2
(I529
tp309
Rp310
(dp311
bg2
(I736
tp312
Rp313
(dp314
btp315
Rp316
(dp317
bag1
(g2
(I614
tp318
Rp319
(dp320
bg2
(I560
tp321
Rp322
(dp323
btp324
Rp325
(dp326
bag1
(g2
(I722
tp327
Rp328
(dp329
bg2
(I278
tp330
Rp331
(dp332
btp333
Rp334
(dp335
bag1
(g2
(I225
tp336
Rp337
(dp338
bg2
(I385
tp339
Rp340
(dp341
btp342
Rp343
(dp344
bag1
(g2
(I516
tp345
Rp346
(dp347
bg2
(I857
tp348
Rp349
(dp350
btp351
Rp352
(dp353
bag1
(g2
(I189
tp354
Rp355
(dp356
bg2
(I971
tp357
Rp358
(dp359
btp360
Rp361
(dp362
bag1
(g2
(I539
tp363
Rp364
(dp365
bg2
(I322
tp366
Rp367
(dp368
btp369
Rp370
(dp371
bag1
(g2
(I651
tp372
Rp373
(dp374
bg2
(I619
tp375
Rp376
(dp377
btp378
Rp379
(dp380
bag1
(g2
(I386
tp381
Rp382
(dp383
bg2
(I283
tp384
Rp385
(dp386
btp387
Rp388
(dp389
bag1
(g2
(I437
tp390
Rp391
(dp392
bg2
(I531
tp393
Rp394
(dp395
btp396
Rp397
(dp398
bag1
(g2
(I815
tp399
Rp400
(dp401
bg2
(I349
tp402
Rp403
(dp404
btp405
Rp406
(dp407
bag1
(g2
(I641
tp408
Rp409
(dp410
bg2
(I606
tp411
Rp412
(dp413
btp414
Rp415
(dp416
bag1
(g2
(I324
tp417
Rp418
(dp419
bg2
(I173
tp420
Rp421
(dp422
btp423
Rp424
(dp425
bag1
(g2
(I169
tp426
Rp427
(dp428
bg2
(I530
tp429
Rp430
(dp431
btp432
Rp433
(dp434
bag1
(g2
(I887
tp435
Rp436
(dp437
bg2
(I954
tp438
Rp439
(dp440
btp441
Rp442
(dp443
bag1
(g2
(I127
tp444
Rp445
(dp446
bg2
(I962
tp447
Rp448
(dp449
btp450
Rp451
(dp452
bag1
(g2
(I618
tp453
Rp454
(dp455
bg2
(I26
tp456
Rp457
(dp458
btp459
Rp460
(dp461
bag1
(g2
(I797
tp462
Rp463
(dp464
bg2
(I158
tp465
Rp466
(dp467
btp468
Rp469
(dp470
bag1
(g2
(I329
tp471
Rp472
(dp473
bg2
(I506
tp474
Rp475
(dp476
btp477
Rp478
(dp479
bag1
(g2
(I167
tp480
Rp481
(dp482
bg2
(I213
tp483
Rp484
(dp485
btp486
Rp487
(dp488
bag1
(g2
(I535
tp489
Rp490
(dp491
bg2
(I695
tp492
Rp493
(dp494
btp495
Rp496
(dp497
bag1
(g2
(I900
tp498
Rp499
(dp500
bg2
(I761
tp501
Rp502
(dp503
btp504
Rp505
(dp506
bag1
(g2
(I938
tp507
Rp508
(dp509
bg2
(I922
tp510
Rp511
(dp512
btp513
Rp514
(dp515
bag1
(g2
(I521
tp516
Rp517
(dp518
bg2
(I944
tp519
Rp520
(dp521
btp522
Rp523
(dp524
bag1
(g2
(I988
tp525
Rp526
(dp527
bg2
(I752
tp528
Rp529
(dp530
btp531
Rp532
(dp533
bag1
(g2
(I51
tp534
Rp535
(dp536
bg49
tp537
Rp538
(dp539
ba.