(lp0
csympy.geometry.point
Point2D
p1
(csympy.core.numbers
Integer
p2
(I576
tp3
Rp4
(dp5
bg2
(I178
tp6
Rp7
(dp8
btp9
Rp10
(dp11
bag1
(g2
(I805
tp12
Rp13
(dp14
bg2
(I595
tp15
Rp16
(dp17
btp18
Rp19
(dp20
bag1
(g2
(I574
tp21
Rp22
(dp23
bg2
(I703
tp24
Rp25
(dp26
btp27
Rp28
(dp29
bag1
(g2
(I156
tp30
Rp31
(dp32
bg2
(I512
tp33
Rp34
(dp35
btp36
Rp37
(dp38
bag1
(g2
(I57
tp39
Rp40
(dp41
bg2
(I977
tp42
Rp43
(dp44
btp45
Rp46
(dp47
bag1
(g2
(I655
tp48
Rp49
(dp50
bg2
(I315
tp51
Rp52
(dp53
btp54
Rp55
(dp56
bag1
(g2
(I824
tp57
Rp58
(dp59
bg2
(I42
tp60
Rp61
(dp62
btp63
Rp64
(dp65
bag1
(g2
(I911
tp66
Rp67
(dp68
bg2
(I346
tp69
Rp70
(dp71
btp72
Rp73
(dp74
bag1
(g2
(I917
tp75
Rp76
(dp77
bg2
(I322
tp78
Rp79
(dp80
btp81
Rp82
(dp83
bag1
(g2
(I353
tp84
Rp85
(dp86
bg2
(I482
tp87
Rp88
(dp89
btp90
Rp91
(dp92
bag1
(g2
(I909
tp93
Rp94
(dp95
bg2
(I817
tp96
Rp97
(dp98
btp99
Rp100
(dp101
bag1
(g2
(I279
tp102
Rp103
(dp104
bg2
(I248
tp105
Rp106
(dp107
btp108
Rp109
(dp110
bag1
(g2
(I374
tp111
Rp112
(dp113
bg2
(I117
tp114
Rp115
(dp116
btp117
Rp118
(dp119
bag1
(g2
(I190
tp120
Rp121
(dp122
bg2
(I756
tp123
Rp124
(dp125
btp126
Rp127
(dp128
bag1
(g2
(I450
tp129
Rp130
(dp131
bg2
(I243
tp132
Rp133
(dp134
btp135
Rp136
(dp137
bag1
(g2
(I687
tp138
Rp139
(dp140
bg2
(I440
tp141
Rp142
(dp143
btp144
Rp145
(dp146
bag1
(g2
(I171
tp147
Rp148
(dp149
bg2
(I644
tp150
Rp151
(dp152
btp153
Rp154
(dp155
bag1
(g2
(I457
tp156
Rp157
(dp158
bg2
(I89
tp159
Rp160
(dp161
btp162
Rp163
(dp164
bag1
(g2
(I416
tp165
Rp166
(dp167
bg2
(I678
tp168
Rp169
(dp170
btp171
Rp172
(dp173
bag1
(g2
(I809
tp174
Rp175
(dp176
bg2
(I249
tp177
Rp178
(dp179
btp180
Rp181
(dp182
bag1
(g2
(I643
tp183
Rp184
(dp185
bg2
(I151
tp186
Rp187
(dp188
btp189
Rp190
(dp191
bag1
(g2
(I367
tp192
Rp193
(dp194
bg2
(I974
tp195
Rp196
(dp197
btp198
Rp199
(dp200
bag1
(g2
(I478
tp201
Rp202
(dp203
bg2
(I961
tp204
Rp205
(dp206
btp207
Rp208
(dp209
bag1
(g2
(I502
tp210
Rp211
(dp212
bg2
(I815
tp213
Rp214
(dp215
btp216
Rp217
(dp218
bag1
(g2
(I571
tp219
Rp220
(dp221
bg2
(I87
tp222
Rp223
(dp224
btp225
Rp226
(dp227
bag1
(g2
(I774
tp228
Rp229
(dp230
bg2
(I409
tp231
Rp232
(dp233
btp234
Rp235
(dp236
bag1
(g2
(I557
tp237
Rp238
(dp239
bg2
(I954
tp240
Rp241
(dp242
btp243
Rp244
(dp245
bag1
(g2
(I681
tp246
Rp247
(dp248
bg2
(I81
tp249
Rp250
(dp251
btp252
Rp253
(dp254
bag1
(g2
(I548
tp255
Rp256
(dp257
bg2
(I527
tp258
Rp259
(dp260
btp261
Rp262
(dp263
bag1
(g2
(I104
tp264
Rp265
(dp266
bg130
tp267
Rp268
(dp269
bag1
(g2
(I286
tp270
Rp271
(dp272
bg2
(I272
tp273
Rp274
(dp275
btp276
Rp277
(dp278
bag1
(g2
(I433
tp279
Rp280
(dp281
bg2
(I11
tp282
Rp283
(dp284
btp285
Rp286
(dp287
bag1
(g2
(I755
tp288
Rp289
(dp290
bg2
(I252
tp291
Rp292
(dp293
btp294
Rp295
(dp296
bag1
(g2
(I64
tp297
Rp298
(dp299
bg2
(I351
tp300
Rp301
(dp302
btp303
Rp304
(dp305
bag1
(g2
(I891
tp306
Rp307
(dp308
bg2
(I719
tp309
Rp310
(dp311
btp312
Rp313
(dp314
bag1
(g2
(I361
tp315
Rp316
(dp317
bg2
(I729
tp318
Rp319
(dp320
btp321
Rp322
(dp323
bag1
(g2
(I614
tp324
Rp325
(dp326
bg2
(I184
tp327
Rp328
(dp329
btp330
Rp331
(dp332
bag1
(g2
(I489
tp333
Rp334
(dp335
bg2
(I255
tp336
Rp337
(dp338
btp339
Rp340
(dp341
bag1
(g2
(I463
tp342
Rp343
(dp344
bg2
(I401
tp345
Rp346
(dp347
btp348
Rp349
(dp350
bag1
(g2
(I349
tp351
Rp352
(dp353
bg2
(I2
tp354
Rp355
(dp356
btp357
Rp358
(dp359
bag1
(g2
(I394
tp360
Rp361
(dp362
bg2
(I981
tp363
Rp364
(dp365
btp366
Rp367
(dp368
bag1
(g2
(I734
tp369
Rp370
(dp371
bg2
(I629
tp372
Rp373
(dp374
btp375
Rp376
(dp377
bag1
(g2
(I670
tp378
Rp379
(dp380
bg2
(I968
tp381
Rp382
(dp383
btp384
Rp385
(dp386
bag1
(g2
(I154
tp387
Rp388
(dp389
bg2
(I424
tp390
Rp391
(dp392
btp393
Rp394
(dp395
bag1
(g2
(I792
tp396
Rp397
(dp398
bg2
(I163
tp399
Rp400
(dp401
btp402
Rp403
(dp404
bag1
(g2
(I962
tp405
Rp406
(dp407
bg2
(I202
tp408
Rp409
(dp410
btp411
Rp412
(dp413
bag1
(g2
(I696
tp414
Rp415
(dp416
bg298
tp417
Rp418
(dp419
bag1
(g2
(I160
tp420
Rp421
(dp422
bg2
(I37
tp423
Rp424
(dp425
btp426
Rp427
(dp428
bag1
(g2
(I521
tp429
Rp430
(dp431
bg2
(I771
tp432
Rp433
(dp434
btp435
Rp436
(dp437
bag1
(g2
(I559
tp438
Rp439
(dp440
bg2
(I858
tp441
Rp442
(dp443
btp444
Rp445
(dp446
bag1
(g2
(I541
tp447
Rp448
(dp449
bg2
(I636
tp450
Rp451
(dp452
btp453
Rp454
(dp455
bag1
(g2
(I760
tp456
Rp457
(dp458
bg2
(I299
tp459
Rp460
(dp461
btp462
Rp463
(dp464
bag1
(g2
(I418
tp465
Rp466
(dp467
bg2
(I298
tp468
Rp469
(dp470
btp471
Rp472
(dp473
bag1
(g2
(I901
tp474
Rp475
(dp476
bg2
(I689
tp477
Rp478
(dp479
btp480
Rp481
(dp482
bag1
(g2
(I333
tp483
Rp484
(dp485
bg2
(I111
tp486
Rp487
(dp488
btp489
Rp490
(dp491
bag1
(g2
(I309
tp492
Rp493
(dp494
bg2
(I103
tp495
Rp496
(dp497
btp498
Rp499
(dp500
bag1
(g2
(I496
tp501
Rp502
(dp503
bg2
(I144
tp504
Rp505
(dp506
btp507
Rp508
(dp509
bag1
(g2
(I475
tp510
Rp511
(dp512
bg2
(I108
tp513
Rp514
(dp515
btp516
Rp517
(dp518
bag1
(g2
(I860
tp519
Rp520
(dp521
bg2
(I31
tp522
Rp523
(dp524
btp525
Rp526
(dp527
bag1
(g2
(I827
tp528
Rp529
(dp530
bg2
(I562
tp531
Rp532
(dp533
btp534
Rp535
(dp536
ba.