(lp0
csympy.geometry.point
Point2D
p1
(csympy.core.numbers
Integer
p2
(I140
tp3
Rp4
(dp5
bg2
(I655
tp6
Rp7
(dp8
btp9
Rp10
(dp11
bag1
(g2
(I978
tp12
Rp13
(dp14
bg2
(I756
tp15
Rp16
(dp17
btp18
Rp19
(dp20
bag1
(g2
(I172
tp21
Rp22
(dp23
bg2
(I622
tp24
Rp25
(dp26
btp27
Rp28
(dp29
bag1
(g16
g2
(I951
tp30
Rp31
(dp32
btp33
Rp34
(dp35
bag1
(g2
(I610
tp36
Rp37
(dp38
bg2
(I427
tp39
Rp40
(dp41
btp42
Rp43
(dp44
bag1
(g2
(I653
tp45
Rp46
(dp47
bg2
(I597
tp48
Rp49
(dp50
btp51
Rp52
(dp53
bag1
(g2
(I809
tp54
Rp55
(dp56
bg2
(I227
tp57
Rp58
(dp59
btp60
Rp61
(dp62
bag1
(g2
(I983
tp63
Rp64
(dp65
bg2
(I304
tp66
Rp67
(dp68
btp69
Rp70
(dp71
bag1
(g2
(I903
tp72
Rp73
(dp74
bg13
tp75
Rp76
(dp77
bag1
(g2
(I222
tp78
Rp79
(dp80
bg2
(I771
tp81
Rp82
(dp83
btp84
Rp85
(dp86
bag1
(g2
(I533
tp87
Rp88
(dp89
bg2
(I853
tp90
Rp91
(dp92
btp93
Rp94
(dp95
bag1
(g2
(I420
tp96
Rp97
(dp98
bg2
(I795
tp99
Rp100
(dp101
btp102
Rp103
(dp104
bag1
(g2
(I920
tp105
Rp106
(dp107
bg2
(I117
tp108
Rp109
(dp110
btp111
Rp112
(dp113
bag1
(g2
(I400
tp114
Rp115
(dp116
bg2
(I108
tp117
Rp118
(dp119
btp120
Rp121
(dp122
bag1
(g2
(I2
tp123
Rp124
(dp125
bg2
(I506
tp126
Rp127
(dp128
btp129
Rp130
(dp131
bag1
(g2
(I422
tp132
Rp133
(dp134
bg2
(I563
tp135
Rp136
(dp137
btp138
Rp139
(dp140
bag1
(g2
(I620
tp141
Rp142
(dp143
bg2
(I900
tp144
Rp145
(dp146
btp147
Rp148
(dp149
bag1
(g2
(I481
tp150
Rp151
(dp152
bg2
(I707
tp153
Rp154
(dp155
btp156
Rp157
(dp158
bag1
(g2
(I261
tp159
Rp160
(dp161
bg2
(I352
tp162
Rp163
(dp164
btp165
Rp166
(dp167
bag1
(g2
(I635
tp168
Rp169
(dp170
bg2
(I146
tp171
Rp172
(dp173
btp174
Rp175
(dp176
bag1
(g2
(I582
tp177
Rp178
(dp179
bg2
(I17
tp180
Rp181
(dp182
btp183
Rp184
(dp185
bag1
(g2
(I350
tp186
Rp187
(dp188
bg2
(I759
tp189
Rp190
(dp191
btp192
Rp193
(dp194
bag1
(g2
(I958
tp195
Rp196
(dp197
bg2
(I260
tp198
Rp199
(dp200
btp201
Rp202
(dp203
bag1
(g2
(I668
tp204
Rp205
(dp206
bg2
(I195
tp207
Rp208
(dp209
btp210
Rp211
(dp212
bag1
(g2
(I259
tp213
Rp214
(dp215
bg2
(I72
tp216
Rp217
(dp218
btp219
Rp220
(dp221
bag1
(g2
(I242
tp222
Rp223
(dp224
bg2
(I434
tp225
Rp226
(dp227
btp228
Rp229
(dp230
bag1
(g2
(I997
tp231
Rp232
(dp233
bg2
(I247
tp234
Rp235
(dp236
btp237
Rp238
(dp239
bag1
(g2
(I361
tp240
Rp241
(dp242
bg2
(I317
tp243
Rp244
(dp245
btp246
Rp247
(dp248
bag1
(g2
(I661
tp249
Rp250
(dp251
bg2
(I6
tp252
Rp253
(dp254
btp255
Rp256
(dp257
bag1
(g2
(I204
tp258
Rp259
(dp260
bg2
(I374
tp261
Rp262
(dp263
btp264
Rp265
(dp266
bag1
(g2
(I580
tp267
Rp268
(dp269
bg2
(I513
tp270
Rp271
(dp272
btp273
Rp274
(dp275
bag1
(g2
(I27
tp276
Rp277
(dp278
bg2
(I405
tp279
Rp280
(dp281
btp282
Rp283
(dp284
bag1
(g2
(I91
tp285
Rp286
(dp287
bg2
(I309
tp288
Rp289
(dp290
btp291
Rp292
(dp293
bag1
(g2
(I125
tp294
Rp295
(dp296
bg2
(I128
tp297
Rp298
(dp299
btp300
Rp301
(dp302
bag1
(g2
(I424
tp303
Rp304
(dp305
bg2
(I234
tp306
Rp307
(dp308
btp309
Rp310
(dp311
bag1
(g2
(I594
tp312
Rp313
(dp314
bg2
(I910
tp315
Rp316
(dp317
btp318
Rp319
(dp320
bag1
(g2
(I479
tp321
Rp322
(dp323
bg2
(I196
tp324
Rp325
(dp326
btp327
Rp328
(dp329
bag1
(g199
g2
(I569
tp330
Rp331
(dp332
btp333
Rp334
(dp335
bag1
(g2
(I848
tp336
Rp337
(dp338
bg2
(I255
tp339
Rp340
(dp341
btp342
Rp343
(dp344
bag1
(g2
(I67
tp345
Rp346
(dp347
bg2
(I24
tp348
Rp349
(dp350
btp351
Rp352
(dp353
bag1
(g2
(I284
tp354
Rp355
(dp356
bg2
(I956
tp357
Rp358
(dp359
btp360
Rp361
(dp362
bag1
(g244
g2
(I344
tp363
Rp364
(dp365
btp366
Rp367
(dp368
bag1
(g2
(I780
tp369
Rp370
(dp371
bg2
(I376
tp372
Rp373
(dp374
btp375
Rp376
(dp377
bag1
(g2
(I475
tp378
Rp379
(dp380
bg2
(I51
tp381
Rp382
(dp383
btp384
Rp385
(dp386
bag1
(g2
(I425
tp387
Rp388
(dp389
bg2
(I334
tp390
Rp391
(dp392
btp393
Rp394
(dp395
bag1
(g2
(I193
tp396
Rp397
(dp398
bg2
(I275
tp399
Rp400
(dp401
btp402
Rp403
(dp404
bag1
(g2
(I894
tp405
Rp406
(dp407
bg2
(I843
tp408
Rp409
(dp410
btp411
Rp412
(dp413
bag1
(g2
(I510
tp414
Rp415
(dp416
bg2
(I428
tp417
Rp418
(dp419
btp420
Rp421
(dp422
bag1
(g2
(I389
tp423
Rp424
(dp425
bg2
(I547
tp426
Rp427
(dp428
btp429
Rp430
(dp431
bag1
(g2
(I702
tp432
Rp433
(dp434
bg2
(I532
tp435
Rp436
(dp437
btp438
Rp439
(dp440
bag1
(g2
(I460
tp441
Rp442
(dp443
bg2
(I453
tp444
Rp445
(dp446
btp447
Rp448
(dp449
bag1
(g2
(I536
tp450
Rp451
(dp452
bg2
(I728
tp453
Rp454
(dp455
btp456
Rp457
(dp458
bag1
(g2
(I600
tp459
Rp460
(dp461
bg2
(I693
tp462
Rp463
(dp464
btp465
Rp466
(dp467
bag1
(g2
(I439
tp468
Rp469
(dp470
bg2
(I267
tp471
Rp472
(dp473
btp474
Rp475
(dp476
bag1
(g2
(I34
tp477
Rp478
(dp479
bg2
(I647
tp480
Rp481
(dp482
btp483
Rp484
(dp485
bag1
(g2
(I623
tp486
Rp487
(dp488
bg2
(I74
tp489
Rp490
(dp491
btp492
Rp493
(dp494
bag1
(g2
(I835
tp495
Rp496
(dp497
bg2
(I742
tp498
Rp499
(dp500
btp501
Rp502
(dp503
bag1
(g2
(I782
tp504
Rp505
(dp506
bg2
(I995
tp507
Rp508
(dp509
btp510
Rp511
(dp512
bag1
(g2
(I651
tp513
Rp514
(dp515
bg2
(I229
tp516
Rp517
(dp518
btp519
Rp520
(dp521
bag1
(g2
(I313
tp522
Rp523
(dp524
bg2
(I925
tp525
Rp526
(dp527
btp528
Rp529
(dp530
ba.