(lp0
csympy.geometry.point
Point2D
p1
(csympy.core.numbers
Integer
p2
(I440
tp3
Rp4
(dp5
bg2
(I560
tp6
Rp7
(dp8
btp9
Rp10
(dp11
bag1
(g2
(I250
tp12
Rp13
(dp14
bg2
(I859
tp15
Rp16
(dp17
btp18
Rp19
(dp20
bag1
(g2
(I796
tp21
Rp22
(dp23
bg2
(I972
tp24
Rp25
(dp26
btp27
Rp28
(dp29
bag1
(g2
(I209
tp30
Rp31
(dp32
bg2
(I247
tp33
Rp34
(dp35
btp36
Rp37
(dp38
bag1
(g2
(I722
tp39
Rp40
(dp41
bg2
(I837
tp42
Rp43
(dp44
btp45
Rp46
(dp47
bag1
(g2
(I821
tp48
Rp49
(dp50
bg2
(I68
tp51
Rp52
(dp53
btp54
Rp55
(dp56
bag1
(g2
(I476
tp57
Rp58
(dp59
bg2
(I138
tp60
Rp61
(dp62
btp63
Rp64
(dp65
bag1
(g2
(I266
tp66
Rp67
(dp68
bg2
(I492
tp69
Rp70
(dp71
btp72
Rp73
(dp74
bag1
(g2
(I574
tp75
Rp76
(dp77
bg2
(I715
tp78
Rp79
(dp80
btp81
Rp82
(dp83
bag1
(g2
(I87
tp84
Rp85
(dp86
bg2
(I99
tp87
Rp88
(dp89
btp90
Rp91
(dp92
bag1
(g2
(I473
tp93
Rp94
(dp95
bg2
(I530
tp96
Rp97
(dp98
btp99
Rp100
(dp101
bag1
(g2
(I286
tp102
Rp103
(dp104
bg2
(I132
tp105
Rp106
(dp107
btp108
Rp109
(dp110
bag1
(g2
(I854
tp111
Rp112
(dp113
bg2
(I591
tp114
Rp115
(dp116
btp117
Rp118
(dp119
bag1
(g2
(I912
tp120
Rp121
(dp122
bg2
(I989
tp123
Rp124
(dp125
btp126
Rp127
(dp128
bag1
(g2
(I148
tp129
Rp130
(dp131
bg2
(I285
tp132
Rp133
(dp134
btp135
Rp136
(dp137
bag1
(g2
(I84
tp138
Rp139
(dp140
bg2
(I609
tp141
Rp142
(dp143
btp144
Rp145
(dp146
bag1
(g2
(I136
tp147
Rp148
(dp149
bg2
(I720
tp150
Rp151
(dp152
btp153
Rp154
(dp155
bag1
(g2
(I975
tp156
Rp157
(dp158
bg2
(I647
tp159
Rp160
(dp161
btp162
Rp163
(dp164
bag1
(g2
(I904
tp165
Rp166
(dp167
bg2
(I949
tp168
Rp169
(dp170
btp171
Rp172
(dp173
bag1
(g2
(I445
tp174
Rp175
(dp176
bg2
(I2
tp177
Rp178
(dp179
btp180
Rp181
(dp182
bag1
(g2
(I165
tp183
Rp184
(dp185
bg2
(I121
tp186
Rp187
(dp188
btp189
Rp190
(dp191
bag1
(g2
(I33
tp192
Rp193
(dp194
bg2
(I215
tp195
Rp196
(dp197
btp198
Rp199
(dp200
bag1
(g2
(I966
tp201
Rp202
(dp203
bg2
(I47
tp204
Rp205
(dp206
btp207
Rp208
(dp209
bag1
(g2
(I172
tp210
Rp211
(dp212
bg2
(I550
tp213
Rp214
(dp215
btp216
Rp217
(dp218
bag1
(g2
(I182
tp219
Rp220
(dp221
bg2
(I160
tp222
Rp223
(dp224
btp225
Rp226
(dp227
bag1
(g2
(I666
tp228
Rp229
(dp230
bg2
(I9
tp231
Rp232
(dp233
btp234
Rp235
(dp236
bag1
(g2
(I28
tp237
Rp238
(dp239
bg2
(I395
tp240
Rp241
(dp242
btp243
Rp244
(dp245
bag1
(g2
(I822
tp246
Rp247
(dp248
bg2
(I259
tp249
Rp250
(dp251
btp252
Rp253
(dp254
bag1
(g2
(I616
tp255
Rp256
(dp257
bg2
(I494
tp258
Rp259
(dp260
btp261
Rp262
(dp263
bag1
(g2
(I573
tp264
Rp265
(dp266
bg2
(I475
tp267
Rp268
(dp269
btp270
Rp271
(dp272
bag1
(g2
(I252
tp273
Rp274
(dp275
bg2
(I256
tp276
Rp277
(dp278
btp279
Rp280
(dp281
bag1
(g2
(I792
tp282
Rp283
(dp284
bg2
(I974
tp285
Rp286
(dp287
btp288
Rp289
(dp290
bag1
(g2
(I374
tp291
Rp292
(dp293
bg2
(I716
tp294
Rp295
(dp296
btp297
Rp298
(dp299
bag1
(g2
(I485
tp300
Rp301
(dp302
bg2
(I141
tp303
Rp304
(dp305
btp306
Rp307
(dp308
bag1
(g2
(I19
tp309
Rp310
(dp311
bg2
(I81
tp312
Rp313
(dp314
btp315
Rp316
(dp317
bag1
(g2
(I599
tp318
Rp319
(dp320
bg2
(I670
tp321
Rp322
(dp323
btp324
Rp325
(dp326
bag1
(g2
(I77
tp327
Rp328
(dp329
bg2
(I783
tp330
Rp331
(dp332
btp333
Rp334
(dp335
bag1
(g2
(I621
tp336
Rp337
(dp338
bg2
(I127
tp339
Rp340
(dp341
btp342
Rp343
(dp344
bag1
(g2
(I863
tp345
Rp346
(dp347
bg346
tp348
Rp349
(dp350
bag1
(g2
(I541
tp351
Rp352
(dp353
bg2
(I194
tp354
Rp355
(dp356
btp357
Rp358
(dp359
bag1
(g2
(I622
tp360
Rp361
(dp362
bg2
(I460
tp363
Rp364
(dp365
btp366
Rp367
(dp368
bag1
(g2
(I940
tp369
Rp370
(dp371
bg2
(I680
tp372
Rp373
(dp374
btp375
Rp376
(dp377
bag1
(g241
g2
(I893
tp378
Rp379
(dp380
btp381
Rp382
(dp383
bag1
(g2
(I517
tp384
Rp385
(dp386
bg2
(I699
tp387
Rp388
(dp389
btp390
Rp391
(dp392
bag1
(g2
(I67
tp393
Rp394
(dp395
bg2
(I855
tp396
Rp397
(dp398
btp399
Rp400
(dp401
bag1
(g2
(I483
tp402
Rp403
(dp404
bg2
(I490
tp405
Rp406
(dp407
btp408
Rp409
(dp410
bag1
(g2
(I304
tp411
Rp412
(dp413
bg2
(I993
tp414
Rp415
(dp416
btp417
Rp418
(dp419
bag1
(g2
(I444
tp420
Rp421
(dp422
bg2
(I693
tp423
Rp424
(dp425
btp426
Rp427
(dp428
bag1
(g2
(I20
tp429
Rp430
(dp431
bg2
(I307
tp432
Rp433
(dp434
btp435
Rp436
(dp437
bag1
(g2
(I366
tp438
Rp439
(dp440
bg2
(I614
tp441
Rp442
(dp443
btp444
Rp445
(dp446
bag1
(g2
(I698
tp447
Rp448
(dp449
bg2
(I525
tp450
Rp451
(dp452
btp453
Rp454
(dp455
bag1
(g2
(I823
tp456
Rp457
(dp458
bg2
(I761
tp459
Rp460
(dp461
btp462
Rp463
(dp464
bag1
(g2
(I249
tp465
Rp466
(dp467
bg2
(I719
tp468
Rp469
(dp470
btp471
Rp472
(dp473
bag1
(g2
(I86
tp474
Rp475
(dp476
bg2
(I390
tp477
Rp478
(dp479
btp480
Rp481
(dp482
bag1
(g2
(I807
tp483
Rp484
(dp485
bg2
(I465
tp486
Rp487
(dp488
btp489
Rp490
(dp491
bag1
(g2
(I551
tp492
Rp493
(dp494
bg2
(I930
tp495
Rp496
(dp497
btp498
Rp499
(dp500
bag1
(g2
(I205
tp501
Rp502
(dp503
bg2
(I672
tp504
Rp505
(dp506
btp507
Rp508
(dp509
bag1
(g2
(I735
tp510
Rp511
(dp512
bg2
(I327
tp513
Rp514
(dp515
btp516
Rp517
(dp518
bag1
(g2
(I21
tp519
Rp520
(dp521
bg2
(I380
tp522
Rp523
(dp524
btp525
Rp526
(dp527
bag1
(g2
(I791
tp528
Rp529
(dp530
bg2
(I219
tp531
Rp532
(dp533
btp534
Rp535
(dp536
ba.