(lp0
csympy.geometry.point
Point2D
p1
(csympy.core.numbers
Integer
p2
(I276
tp3
Rp4
(dp5
bg2
(I337
tp6
Rp7
(dp8
btp9
Rp10
(dp11
bag1
(g2
(I363
tp12
Rp13
(dp14
bg2
(I104
tp15
Rp16
(dp17
btp18
Rp19
(dp20
bag1
(g2
(I153
tp21
Rp22
(dp23
bg2
(I170
tp24
Rp25
(dp26
btp27
Rp28
(dp29
bag1
(g2
(I441
tp30
Rp31
(dp32
bg2
(I199
tp33
Rp34
(dp35
btp36
Rp37
(dp38
bag1
(g2
(I339
tp39
Rp40
(dp41
bg2
(I154
tp42
Rp43
(dp44
btp45
Rp46
(dp47
bag1
(g2
(I6
tp48
Rp49
(dp50
bg2
(I334
tp51
Rp52
(dp53
btp54
Rp55
(dp56
bag1
(g2
(I476
tp57
Rp58
(dp59
bg2
(I488
tp60
Rp61
(dp62
btp63
Rp64
(dp65
bag1
(g61
g2
(I412
tp66
Rp67
(dp68
btp69
Rp70
(dp71
bag1
(g2
(I177
tp72
Rp73
(dp74
bg2
(I85
tp75
Rp76
(dp77
btp78
Rp79
(dp80
bag1
(g2
(I174
tp81
Rp82
(dp83
bg2
(I134
tp84
Rp85
(dp86
btp87
Rp88
(dp89
bag1
(g2
(I273
tp90
Rp91
(dp92
bg2
(I471
tp93
Rp94
(dp95
btp96
Rp97
(dp98
bag1
(g2
(I304
tp99
Rp100
(dp101
bg2
(I140
tp102
Rp103
(dp104
btp105
Rp106
(dp107
bag1
(g2
(I95
tp108
Rp109
(dp110
bg2
(I268
tp111
Rp112
(dp113
btp114
Rp115
(dp116
bag1
(g2
(I119
tp117
Rp118
(dp119
bg2
(I281
tp120
Rp121
(dp122
btp123
Rp124
(dp125
bag1
(g2
(I198
tp126
Rp127
(dp128
bg2
(I49
tp129
Rp130
(dp131
btp132
Rp133
(dp134
bag1
(g2
(I311
tp135
Rp136
(dp137
bg2
(I482
tp138
Rp139
(dp140
btp141
Rp142
(dp143
bag1
(g2
(I364
tp144
Rp145
(dp146
bg2
(I147
tp147
Rp148
(dp149
btp150
Rp151
(dp152
bag1
(g2
(I24
tp153
Rp154
(dp155
bg2
(I30
tp156
Rp157
(dp158
btp159
Rp160
(dp161
bag1
(g2
(I391
tp162
Rp163
(dp164
bg2
(I300
tp165
Rp166
(dp167
btp168
Rp169
(dp170
bag1
(g2
(I277
tp171
Rp172
(dp173
bg2
(I357
tp174
Rp175
(dp176
btp177
Rp178
(dp179
bag1
(g2
(I159
tp180
Rp181
(dp182
bg2
(I36
tp183
Rp184
(dp185
btp186
Rp187
(dp188
bag1
(g2
(I102
tp189
Rp190
(dp191
bg2
(I215
tp192
Rp193
(dp194
btp195
Rp196
(dp197
bag1
(g2
(I93
tp198
Rp199
(dp200
bg2
(I301
tp201
Rp202
(dp203
btp204
Rp205
(dp206
bag1
(g2
(I355
tp207
Rp208
(dp209
bg2
(I214
tp210
Rp211
(dp212
btp213
Rp214
(dp215
bag1
(g2
(I148
tp216
Rp217
(dp218
bg2
(I390
tp219
Rp220
(dp221
btp222
Rp223
(dp224
ba.