(lp0
csympy.geometry.point
Point2D
p1
(csympy.core.numbers
Integer
p2
(I251
tp3
Rp4
(dp5
bg2
(I50
tp6
Rp7
(dp8
btp9
Rp10
(dp11
bag1
(g2
(I108
tp12
Rp13
(dp14
bg2
(I109
tp15
Rp16
(dp17
btp18
Rp19
(dp20
bag1
(g2
(I140
tp21
Rp22
(dp23
bg2
(I63
tp24
Rp25
(dp26
btp27
Rp28
(dp29
bag1
(g2
(I203
tp30
Rp31
(dp32
bg2
(I216
tp33
Rp34
(dp35
btp36
Rp37
(dp38
bag1
(g2
(I126
tp39
Rp40
(dp41
bg2
(I274
tp42
Rp43
(dp44
btp45
Rp46
(dp47
bag1
(g2
(I210
tp48
Rp49
(dp50
bg2
(I57
tp51
Rp52
(dp53
btp54
Rp55
(dp56
bag1
(g2
(I178
tp57
Rp58
(dp59
bg2
(I283
tp60
Rp61
(dp62
btp63
Rp64
(dp65
bag1
(g2
(I385
tp66
Rp67
(dp68
bg2
(I358
tp69
Rp70
(dp71
btp72
Rp73
(dp74
bag1
(g2
(I438
tp75
Rp76
(dp77
bg2
(I459
tp78
Rp79
(dp80
btp81
Rp82
(dp83
bag1
(g2
(I310
tp84
Rp85
(dp86
bg2
(I412
tp87
Rp88
(dp89
btp90
Rp91
(dp92
bag1
(g2
(I474
tp93
Rp94
(dp95
bg2
(I370
tp96
Rp97
(dp98
btp99
Rp100
(dp101
bag1
(g2
(I223
tp102
Rp103
(dp104
bg2
(I301
tp105
Rp106
(dp107
btp108
Rp109
(dp110
bag1
(g2
(I198
tp111
Rp112
(dp113
bg2
(I424
tp114
Rp115
(dp116
btp117
Rp118
(dp119
bag1
(g2
(I113
tp120
Rp121
(dp122
bg2
(I302
tp123
Rp124
(dp125
btp126
Rp127
(dp128
bag1
(g2
(I242
tp129
Rp130
(dp131
bg2
(I409
tp132
Rp133
(dp134
btp135
Rp136
(dp137
bag1
(g2
(I119
tp138
Rp139
(dp140
bg2
(I326
tp141
Rp142
(dp143
btp144
Rp145
(dp146
bag1
(g2
(I89
tp147
Rp148
(dp149
bg2
(I425
tp150
Rp151
(dp152
btp153
Rp154
(dp155
bag1
(g2
(I367
tp156
Rp157
(dp158
bg2
(I47
tp159
Rp160
(dp161
btp162
Rp163
(dp164
bag1
(g2
(I440
tp165
Rp166
(dp167
bg2
(I284
tp168
Rp169
(dp170
btp171
Rp172
(dp173
bag1
(g2
(I14
tp174
Rp175
(dp176
bg2
(I392
tp177
Rp178
(dp179
btp180
Rp181
(dp182
ba.