(lp0
csympy.geometry.point
Point2D
p1
(csympy.core.numbers
Integer
p2
(I305
tp3
Rp4
(dp5
bg2
(I143
tp6
Rp7
(dp8
btp9
Rp10
(dp11
bag1
(g2
(I236
tp12
Rp13
(dp14
bg2
(I309
tp15
Rp16
(dp17
btp18
Rp19
(dp20
bag1
(g2
(I251
tp21
Rp22
(dp23
bg2
(I190
tp24
Rp25
(dp26
btp27
Rp28
(dp29
bag1
(g2
(I265
tp30
Rp31
(dp32
bg2
(I433
tp33
Rp34
(dp35
btp36
Rp37
(dp38
bag1
(g2
(I278
tp39
Rp40
(dp41
bg2
(I495
tp42
Rp43
(dp44
btp45
Rp46
(dp47
bag1
(g2
(I299
tp48
Rp49
(dp50
bg2
(I195
tp51
Rp52
(dp53
btp54
Rp55
(dp56
bag1
(g2
(I411
tp57
Rp58
(dp59
bg2
(I159
tp60
Rp61
(dp62
btp63
Rp64
(dp65
ba.