(lp0
csympy.geometry.point
Point2D
p1
(csympy.core.numbers
Integer
p2
(I509
tp3
Rp4
(dp5
bg2
(I860
tp6
Rp7
(dp8
btp9
Rp10
(dp11
bag1
(g2
(I608
tp12
Rp13
(dp14
bg2
(I236
tp15
Rp16
(dp17
btp18
Rp19
(dp20
bag1
(g2
(I92
tp21
Rp22
(dp23
bg2
(I843
tp24
Rp25
(dp26
btp27
Rp28
(dp29
bag1
(g2
(I495
tp30
Rp31
(dp32
bg2
(I804
tp33
Rp34
(dp35
btp36
Rp37
(dp38
bag1
(g2
(I863
tp39
Rp40
(dp41
bg2
(I882
tp42
Rp43
(dp44
btp45
Rp46
(dp47
bag1
(g2
(I9
tp48
Rp49
(dp50
bg2
(I769
tp51
Rp52
(dp53
btp54
Rp55
(dp56
bag1
(g2
(I444
tp57
Rp58
(dp59
bg2
(I80
tp60
Rp61
(dp62
btp63
Rp64
(dp65
bag1
(g2
(I937
tp66
Rp67
(dp68
bg2
(I56
tp69
Rp70
(dp71
btp72
Rp73
(dp74
bag1
(g2
(I917
tp75
Rp76
(dp77
bg2
(I102
tp78
Rp79
(dp80
btp81
Rp82
(dp83
bag1
(g2
(I403
tp84
Rp85
(dp86
bg2
(I121
tp87
Rp88
(dp89
btp90
Rp91
(dp92
bag1
(g2
(I174
tp93
Rp94
(dp95
bg2
(I260
tp96
Rp97
(dp98
btp99
Rp100
(dp101
bag1
(g2
(I646
tp102
Rp103
(dp104
bg2
(I207
tp105
Rp106
(dp107
btp108
Rp109
(dp110
bag1
(g2
(I921
tp111
Rp112
(dp113
bg2
(I636
tp114
Rp115
(dp116
btp117
Rp118
(dp119
bag1
(g2
(I889
tp120
Rp121
(dp122
bg2
(I339
tp123
Rp124
(dp125
btp126
Rp127
(dp128
bag1
(g2
(I622
tp129
Rp130
(dp131
bg2
(I91
tp132
Rp133
(dp134
btp135
Rp136
(dp137
bag1
(g2
(I522
tp138
Rp139
(dp140
bg2
(I105
tp141
Rp142
(dp143
btp144
Rp145
(dp146
bag1
(g2
(I532
tp147
Rp148
(dp149
bg2
(I30
tp150
Rp151
(dp152
btp153
Rp154
(dp155
bag1
(g2
(I545
tp156
Rp157
(dp158
bg2
(I67
tp159
Rp160
(dp161
btp162
Rp163
(dp164
bag1
(g2
(I705
tp165
Rp166
(dp167
bg2
(I512
tp168
Rp169
(dp170
btp171
Rp172
(dp173
bag1
(g2
(I633
tp174
Rp175
(dp176
bg2
(I747
tp177
Rp178
(dp179
btp180
Rp181
(dp182
bag1
(g2
(I266
tp183
Rp184
(dp185
bg2
(I914
tp186
Rp187
(dp188
btp189
Rp190
(dp191
bag1
(g25
g2
(I385
tp192
Rp193
(dp194
btp195
Rp196
(dp197
bag1
(g2
(I425
tp198
Rp199
(dp200
bg2
(I334
tp201
Rp202
(dp203
btp204
Rp205
(dp206
bag1
(g2
(I551
tp207
Rp208
(dp209
bg2
(I519
tp210
Rp211
(dp212
btp213
Rp214
(dp215
bag1
(g2
(I6
tp216
Rp217
(dp218
bg2
(I76
tp219
Rp220
(dp221
btp222
Rp223
(dp224
bag1
(g2
(I467
tp225
Rp226
(dp227
bg2
(I278
tp228
Rp229
(dp230
btp231
Rp232
(dp233
bag1
(g2
(I379
tp234
Rp235
(dp236
bg2
(I785
tp237
Rp238
(dp239
btp240
Rp241
(dp242
bag1
(g2
(I281
tp243
Rp244
(dp245
bg2
(I194
tp246
Rp247
(dp248
btp249
Rp250
(dp251
bag1
(g2
(I579
tp252
Rp253
(dp254
bg2
(I568
tp255
Rp256
(dp257
btp258
Rp259
(dp260
bag1
(g2
(I580
tp261
Rp262
(dp263
bg2
(I37
tp264
Rp265
(dp266
btp267
Rp268
(dp269
bag1
(g2
(I711
tp270
Rp271
(dp272
bg2
(I892
tp273
Rp274
(dp275
btp276
Rp277
(dp278
bag1
(g2
(I780
tp279
Rp280
(dp281
bg2
(I968
tp282
Rp283
(dp284
btp285
Rp286
(dp287
bag1
(g2
(I504
tp288
Rp289
(dp290
bg2
(I346
tp291
Rp292
(dp293
btp294
Rp295
(dp296
bag1
(g2
(I262
tp297
Rp298
(dp299
bg2
(I175
tp300
Rp301
(dp302
btp303
Rp304
(dp305
bag1
(g2
(I754
tp306
Rp307
(dp308
bg2
(I854
tp309
Rp310
(dp311
btp312
Rp313
(dp314
bag1
(g2
(I535
tp315
Rp316
(dp317
bg2
(I553
tp318
Rp319
(dp320
btp321
Rp322
(dp323
bag1
(g2
(I450
tp324
Rp325
(dp326
bg2
(I845
tp327
Rp328
(dp329
btp330
Rp331
(dp332
bag1
(g2
(I932
tp333
Rp334
(dp335
bg2
(I966
tp336
Rp337
(dp338
btp339
Rp340
(dp341
bag1
(g2
(I960
tp342
Rp343
(dp344
bg2
(I462
tp345
Rp346
(dp347
btp348
Rp349
(dp350
bag1
(g2
(I486
tp351
Rp352
(dp353
bg2
(I835
tp354
Rp355
(dp356
btp357
Rp358
(dp359
bag1
(g2
(I536
tp360
Rp361
(dp362
bg2
(I869
tp363
Rp364
(dp365
btp366
Rp367
(dp368
bag1
(g2
(I492
tp369
Rp370
(dp371
bg2
(I550
tp372
Rp373
(dp374
btp375
Rp376
(dp377
bag1
(g2
(I702
tp378
Rp379
(dp380
bg2
(I668
tp381
Rp382
(dp383
btp384
Rp385
(dp386
bag1
(g2
(I429
tp387
Rp388
(dp389
bg2
(I638
tp390
Rp391
(dp392
btp393
Rp394
(dp395
bag1
(g2
(I953
tp396
Rp397
(dp398
bg2
(I555
tp399
Rp400
(dp401
btp402
Rp403
(dp404
bag1
(g2
(I259
tp405
Rp406
(dp407
bg2
(I489
tp408
Rp409
(dp410
btp411
Rp412
(dp413
bag1
(g2
(I282
tp414
Rp415
(dp416
bg2
(I412
tp417
Rp418
(dp419
btp420
Rp421
(dp422
bag1
(g2
(I478
tp423
Rp424
(dp425
bg2
(I601
tp426
Rp427
(dp428
btp429
Rp430
(dp431
bag1
(g2
(I610
tp432
Rp433
(dp434
bg2
(I484
tp435
Rp436
(dp437
btp438
Rp439
(dp440
bag1
(g2
(I432
tp441
Rp442
(dp443
bg2
(I587
tp444
Rp445
(dp446
btp447
Rp448
(dp449
bag1
(g2
(I129
tp450
Rp451
(dp452
bg2
(I108
tp453
Rp454
(dp455
btp456
Rp457
(dp458
bag1
(g2
(I695
tp459
Rp460
(dp461
bg2
(I66
tp462
Rp463
(dp464
btp465
Rp466
(dp467
bag1
(g2
(I734
tp468
Rp469
(dp470
bg2
(I877
tp471
Rp472
(dp473
btp474
Rp475
(dp476
bag1
(g2
(I130
tp477
Rp478
(dp479
bg2
(I306
tp480
Rp481
(dp482
btp483
Rp484
(dp485
bag1
(g2
(I446
tp486
Rp487
(dp488
bg2
(I839
tp489
Rp490
(dp491
btp492
Rp493
(dp494
bag1
(g2
(I559
tp495
Rp496
(dp497
bg2
(I293
tp498
Rp499
(dp500
btp501
Rp502
(dp503
bag1
(g2
(I249
tp504
Rp505
(dp506
bg2
(I283
tp507
Rp508
(dp509
btp510
Rp511
(dp512
bag1
(g2
(I707
tp513
Rp514
(dp515
bg2
(I22
tp516
Rp517
(dp518
btp519
Rp520
(dp521
bag1
(g2
(I95
tp522
Rp523
(dp524
bg2
(I83
tp525
Rp526
(dp527
btp528
Rp529
(dp530
bag1
(g2
(I691
tp531
Rp532
(dp533
bg2
(I233
tp534
Rp535
(dp536
btp537
Rp538
(dp539
bag1
(g2
(I682
tp540
Rp541
(dp542
bg2
(I285
tp543
Rp544
(dp545
btp546
Rp547
(dp548
bag1
(g2
(I12
tp549
Rp550
(dp551
bg2
(I590
tp552
Rp553
(dp554
btp555
Rp556
(dp557
bag1
(g2
(I331
tp558
Rp559
(dp560
bg2
(I205
tp561
Rp562
(dp563
btp564
Rp565
(dp566
bag1
(g2
(I206
tp567
Rp568
(dp569
bg2
(I345
tp570
Rp571
(dp572
btp573
Rp574
(dp575
bag1
(g2
(I661
tp576
Rp577
(dp578
bg2
(I493
tp579
Rp580
(dp581
btp582
Rp583
(dp584
bag1
(g2
(I404
tp585
Rp586
(dp587
bg2
(I987
tp588
Rp589
(dp590
btp591
Rp592
(dp593
bag1
(g2
(I434
tp594
Rp595
(dp596
bg2
(I182
tp597
Rp598
(dp599
btp600
Rp601
(dp602
bag1
(g88
g2
(I592
tp603
Rp604
(dp605
btp606
Rp607
(dp608
bag1
(g2
(I465
tp609
Rp610
(dp611
bg2
(I69
tp612
Rp613
(dp614
btp615
Rp616
(dp617
bag1
(g2
(I114
tp618
Rp619
(dp620
bg2
(I375
tp621
Rp622
(dp623
btp624
Rp625
(dp626
bag1
(g2
(I793
tp627
Rp628
(dp629
bg2
(I208
tp630
Rp631
(dp632
btp633
Rp634
(dp635
bag1
(g2
(I372
tp636
Rp637
(dp638
bg2
(I920
tp639
Rp640
(dp641
btp642
Rp643
(dp644
bag1
(g2
(I561
tp645
Rp646
(dp647
bg2
(I55
tp648
Rp649
(dp650
btp651
Rp652
(dp653
bag1
(g2
(I35
tp654
Rp655
(dp656
bg2
(I627
tp657
Rp658
(dp659
btp660
Rp661
(dp662
bag1
(g2
(I773
tp663
Rp664
(dp665
bg2
(I985
tp666
Rp667
(dp668
btp669
Rp670
(dp671
bag1
(g2
(I677
tp672
Rp673
(dp674
bg2
(I373
tp675
Rp676
(dp677
btp678
Rp679
(dp680
bag1
(g2
(I588
tp681
Rp682
(dp683
bg217
tp684
Rp685
(dp686
bag1
(g2
(I930
tp687
Rp688
(dp689
bg2
(I581
tp690
Rp691
(dp692
btp693
Rp694
(dp695
bag1
(g544
g2
(I802
tp696
Rp697
(dp698
btp699
Rp700
(dp701
bag1
(g2
(I263
tp702
Rp703
(dp704
bg2
(I342
tp705
Rp706
(dp707
btp708
Rp709
(dp710
ba.