(lp0
csympy.geometry.point
Point2D
p1
(csympy.core.numbers
Integer
p2
(I66
tp3
Rp4
(dp5
bg2
(I907
tp6
Rp7
(dp8
btp9
Rp10
(dp11
bag1
(g2
(I638
tp12
Rp13
(dp14
bg2
(I637
tp15
Rp16
(dp17
btp18
Rp19
(dp20
bag1
(g2
(I825
tp21
Rp22
(dp23
bg2
(I501
tp24
Rp25
(dp26
btp27
Rp28
(dp29
bag1
(g2
(I424
tp30
Rp31
(dp32
bg2
(I526
tp33
Rp34
(dp35
btp36
Rp37
(dp38
bag1
(g2
(I59
tp39
Rp40
(dp41
bg2
(I152
tp42
Rp43
(dp44
btp45
Rp46
(dp47
bag1
(g2
(I933
tp48
Rp49
(dp50
bg2
(I332
tp51
Rp52
(dp53
btp54
Rp55
(dp56
bag1
(g2
(I401
tp57
Rp58
(dp59
bg2
(I802
tp60
Rp61
(dp62
btp63
Rp64
(dp65
bag1
(g2
(I897
tp66
Rp67
(dp68
bg2
(I967
tp69
Rp70
(dp71
btp72
Rp73
(dp74
bag1
(g2
(I69
tp75
Rp76
(dp77
bg2
(I708
tp78
Rp79
(dp80
btp81
Rp82
(dp83
bag1
(g2
(I98
tp84
Rp85
(dp86
bg2
(I244
tp87
Rp88
(dp89
btp90
Rp91
(dp92
bag1
(g2
(I115
tp93
Rp94
(dp95
bg2
(I45
tp96
Rp97
(dp98
btp99
Rp100
(dp101
bag1
(g2
(I992
tp102
Rp103
(dp104
bg2
(I705
tp105
Rp106
(dp107
btp108
Rp109
(dp110
bag1
(g2
(I921
tp111
Rp112
(dp113
bg2
(I295
tp114
Rp115
(dp116
btp117
Rp118
(dp119
bag1
(g2
(I17
tp120
Rp121
(dp122
bg2
(I280
tp123
Rp124
(dp125
btp126
Rp127
(dp128
bag1
(g16
g2
(I490
tp129
Rp130
(dp131
btp132
Rp133
(dp134
bag1
(g2
(I363
tp135
Rp136
(dp137
bg2
(I523
tp138
Rp139
(dp140
btp141
Rp142
(dp143
bag1
(g2
(I604
tp144
Rp145
(dp146
bg2
(I489
tp147
Rp148
(dp149
btp150
Rp151
(dp152
bag1
(g2
(I766
tp153
Rp154
(dp155
bg2
(I651
tp156
Rp157
(dp158
btp159
Rp160
(dp161
bag1
(g2
(I493
tp162
Rp163
(dp164
bg2
(I272
tp165
Rp166
(dp167
btp168
Rp169
(dp170
bag1
(g2
(I531
tp171
Rp172
(dp173
bg2
(I324
tp174
Rp175
(dp176
btp177
Rp178
(dp179
bag1
(g2
(I354
tp180
Rp181
(dp182
bg2
(I666
tp183
Rp184
(dp185
btp186
Rp187
(dp188
bag1
(g2
(I804
tp189
Rp190
(dp191
bg2
(I403
tp192
Rp193
(dp194
btp195
Rp196
(dp197
bag1
(g2
(I603
tp198
Rp199
(dp200
bg2
(I458
tp201
Rp202
(dp203
btp204
Rp205
(dp206
bag1
(g2
(I958
tp207
Rp208
(dp209
bg2
(I114
tp210
Rp211
(dp212
btp213
Rp214
(dp215
bag1
(g2
(I661
tp216
Rp217
(dp218
bg2
(I425
tp219
Rp220
(dp221
btp222
Rp223
(dp224
bag1
(g2
(I990
tp225
Rp226
(dp227
bg2
(I665
tp228
Rp229
(dp230
btp231
Rp232
(dp233
bag1
(g2
(I956
tp234
Rp235
(dp236
bg2
(I316
tp237
Rp238
(dp239
btp240
Rp241
(dp242
bag1
(g2
(I436
tp243
Rp244
(dp245
bg2
(I991
tp246
Rp247
(dp248
btp249
Rp250
(dp251
bag1
(g2
(I976
tp252
Rp253
(dp254
bg2
(I388
tp255
Rp256
(dp257
btp258
Rp259
(dp260
bag1
(g2
(I276
tp261
Rp262
(dp263
bg2
(I234
tp264
Rp265
(dp266
btp267
Rp268
(dp269
bag1
(g2
(I217
tp270
Rp271
(dp272
bg2
(I512
tp273
Rp274
(dp275
btp276
Rp277
(dp278
bag1
(g2
(I541
tp279
Rp280
(dp281
bg85
tp282
Rp283
(dp284
bag1
(g2
(I73
tp285
Rp286
(dp287
bg2
(I439
tp288
Rp289
(dp290
btp291
Rp292
(dp293
bag1
(g2
(I867
tp294
Rp295
(dp296
bg2
(I153
tp297
Rp298
(dp299
btp300
Rp301
(dp302
bag1
(g2
(I928
tp303
Rp304
(dp305
bg304
tp306
Rp307
(dp308
bag1
(g2
(I613
tp309
Rp310
(dp311
bg2
(I791
tp312
Rp313
(dp314
btp315
Rp316
(dp317
bag1
(g2
(I621
tp318
Rp319
(dp320
bg2
(I688
tp321
Rp322
(dp323
btp324
Rp325
(dp326
bag1
(g2
(I611
tp327
Rp328
(dp329
bg2
(I894
tp330
Rp331
(dp332
btp333
Rp334
(dp335
bag1
(g2
(I160
tp336
Rp337
(dp338
bg2
(I765
tp339
Rp340
(dp341
btp342
Rp343
(dp344
bag1
(g2
(I206
tp345
Rp346
(dp347
bg2
(I751
tp348
Rp349
(dp350
btp351
Rp352
(dp353
bag1
(g2
(I980
tp354
Rp355
(dp356
bg2
(I776
tp357
Rp358
(dp359
btp360
Rp361
(dp362
bag1
(g2
(I288
tp363
Rp364
(dp365
bg2
(I185
tp366
Rp367
(dp368
btp369
Rp370
(dp371
bag1
(g2
(I599
tp372
Rp373
(dp374
bg2
(I423
tp375
Rp376
(dp377
btp378
Rp379
(dp380
bag1
(g2
(I353
tp381
Rp382
(dp383
bg2
(I317
tp384
Rp385
(dp386
btp387
Rp388
(dp389
bag1
(g2
(I693
tp390
Rp391
(dp392
bg2
(I527
tp393
Rp394
(dp395
btp396
Rp397
(dp398
bag1
(g2
(I102
tp399
Rp400
(dp401
bg2
(I47
tp402
Rp403
(dp404
btp405
Rp406
(dp407
bag1
(g2
(I641
tp408
Rp409
(dp410
bg2
(I585
tp411
Rp412
(dp413
btp414
Rp415
(dp416
bag1
(g2
(I827
tp417
Rp418
(dp419
bg2
(I145
tp420
Rp421
(dp422
btp423
Rp424
(dp425
bag1
(g2
(I830
tp426
Rp427
(dp428
bg2
(I253
tp429
Rp430
(dp431
btp432
Rp433
(dp434
bag1
(g2
(I256
tp435
Rp436
(dp437
bg2
(I640
tp438
Rp439
(dp440
btp441
Rp442
(dp443
bag1
(g2
(I445
tp444
Rp445
(dp446
bg2
(I589
tp447
Rp448
(dp449
btp450
Rp451
(dp452
bag1
(g2
(I294
tp453
Rp454
(dp455
bg2
(I577
tp456
Rp457
(dp458
btp459
Rp460
(dp461
bag1
(g2
(I677
tp462
Rp463
(dp464
bg2
(I8
tp465
Rp466
(dp467
btp468
Rp469
(dp470
bag1
(g2
(I94
tp471
Rp472
(dp473
bg2
(I264
tp474
Rp475
(dp476
btp477
Rp478
(dp479
bag1
(g2
(I606
tp480
Rp481
(dp482
bg2
(I538
tp483
Rp484
(dp485
btp486
Rp487
(dp488
bag1
(g2
(I366
tp489
Rp490
(dp491
bg280
tp492
Rp493
(dp494
bag1
(g457
g2
(I983
tp495
Rp496
(dp497
btp498
Rp499
(dp500
bag1
(g2
(I123
tp501
Rp502
(dp503
bg2
(I743
tp504
Rp505
(dp506
btp507
Rp508
(dp509
bag1
(g2
(I362
tp510
Rp511
(dp512
bg2
(I34
tp513
Rp514
(dp515
btp516
Rp517
(dp518
bag1
(g2
(I917
tp519
Rp520
(dp521
bg2
(I25
tp522
Rp523
(dp524
btp525
Rp526
(dp527
bag1
(g2
(I636
tp528
Rp529
(dp530
bg2
(I676
tp531
Rp532
(dp533
btp534
Rp535
(dp536
bag1
(g2
(I614
tp537
Rp538
(dp539
bg2
(I588
tp540
Rp541
(dp542
btp543
Rp544
(dp545
bag1
(g2
(I301
tp546
Rp547
(dp548
bg2
(I286
tp549
Rp550
(dp551
btp552
Rp553
(dp554
bag1
(g2
(I487
tp555
Rp556
(dp557
bg382
tp558
Rp559
(dp560
bag1
(g2
(I649
tp561
Rp562
(dp563
bg2
(I314
tp564
Rp565
(dp566
btp567
Rp568
(dp569
bag1
(g2
(I438
tp570
Rp571
(dp572
bg2
(I628
tp573
Rp574
(dp575
btp576
Rp577
(dp578
bag1
(g2
(I166
tp579
Rp580
(dp581
bg2
(I723
tp582
Rp583
(dp584
btp585
Rp586
(dp587
bag1
(g2
(I852
tp588
Rp589
(dp590
bg2
(I257
tp591
Rp592
(dp593
btp594
Rp595
(dp596
bag1
(g52
g2
(I886
tp597
Rp598
(dp599
btp600
Rp601
(dp602
bag1
(g2
(I891
tp603
Rp604
(dp605
bg2
(I189
tp606
Rp607
(dp608
btp609
Rp610
(dp611
bag1
(g2
(I119
tp612
Rp613
(dp614
bg2
(I167
tp615
Rp616
(dp617
btp618
Rp619
(dp620
bag1
(g2
(I576
tp621
Rp622
(dp623
bg2
(I463
tp624
Rp625
(dp626
btp627
Rp628
(dp629
bag1
(g2
(I412
tp630
Rp631
(dp632
bg2
(I792
tp633
Rp634
(dp635
btp636
Rp637
(dp638
bag1
(g2
(I180
tp639
Rp640
(dp641
bg2
(I737
tp642
Rp643
(dp644
btp645
Rp646
(dp647
bag1
(g2
(I241
tp648
Rp649
(dp650
bg2
(I914
tp651
Rp652
(dp653
btp654
Rp655
(dp656
bag1
(g2
(I632
tp657
Rp658
(dp659
bg337
tp660
Rp661
(dp662
bag1
(g2
(I702
tp663
Rp664
(dp665
bg2
(I174
tp666
Rp667
(dp668
btp669
Rp670
(dp671
bag1
(g2
(I555
tp672
Rp673
(dp674
bg2
(I754
tp675
Rp676
(dp677
btp678
Rp679
(dp680
bag1
(g2
(I408
tp681
Rp682
(dp683
bg2
(I910
tp684
Rp685
(dp686
btp687
Rp688
(dp689
bag1
(g2
(I87
tp690
Rp691
(dp692
bg2
(I831
tp693
Rp694
(dp695
btp696
Rp697
(dp698
ba.