(lp0
csympy.geometry.point
Point2D
p1
(csympy.core.numbers
Integer
p2
(I149
tp3
Rp4
(dp5
bg2
(I553
tp6
Rp7
(dp8
btp9
Rp10
(dp11
bag1
(g2
(I557
tp12
Rp13
(dp14
bg2
(I932
tp15
Rp16
(dp17
btp18
Rp19
(dp20
bag1
(g2
(I476
tp21
Rp22
(dp23
bg2
(I398
tp24
Rp25
(dp26
btp27
Rp28
(dp29
bag1
(g2
(I784
tp30
Rp31
(dp32
bg2
(I508
tp33
Rp34
(dp35
btp36
Rp37
(dp38
bag1
(g2
(I831
tp39
Rp40
(dp41
bg2
(I457
tp42
Rp43
(dp44
btp45
Rp46
(dp47
bag1
(g2
(I535
tp48
Rp49
(dp50
bg2
(I499
tp51
Rp52
(dp53
btp54
Rp55
(dp56
bag1
(g2
(I969
tp57
Rp58
(dp59
bg2
(I381
tp60
Rp61
(dp62
btp63
Rp64
(dp65
bag1
(g2
(I261
tp66
Rp67
(dp68
bg2
(I866
tp69
Rp70
(dp71
btp72
Rp73
(dp74
bag1
(g2
(I774
tp75
Rp76
(dp77
bg2
(I513
tp78
Rp79
(dp80
btp81
Rp82
(dp83
bag1
(g2
(I582
tp84
Rp85
(dp86
bg2
(I282
tp87
Rp88
(dp89
btp90
Rp91
(dp92
bag1
(g2
(I616
tp93
Rp94
(dp95
bg2
(I147
tp96
Rp97
(dp98
btp99
Rp100
(dp101
bag1
(g2
(I102
tp102
Rp103
(dp104
bg2
(I922
tp105
Rp106
(dp107
btp108
Rp109
(dp110
bag1
(g2
(I517
tp111
Rp112
(dp113
bg2
(I719
tp114
Rp115
(dp116
btp117
Rp118
(dp119
bag1
(g2
(I205
tp120
Rp121
(dp122
bg2
(I382
tp123
Rp124
(dp125
btp126
Rp127
(dp128
bag1
(g2
(I305
tp129
Rp130
(dp131
bg2
(I881
tp132
Rp133
(dp134
btp135
Rp136
(dp137
bag1
(g2
(I19
tp138
Rp139
(dp140
bg2
(I930
tp141
Rp142
(dp143
btp144
Rp145
(dp146
bag1
(g2
(I737
tp147
Rp148
(dp149
bg2
(I707
tp150
Rp151
(dp152
btp153
Rp154
(dp155
bag1
(g2
(I914
tp156
Rp157
(dp158
bg2
(I585
tp159
Rp160
(dp161
btp162
Rp163
(dp164
bag1
(g2
(I189
tp165
Rp166
(dp167
bg2
(I593
tp168
Rp169
(dp170
btp171
Rp172
(dp173
bag1
(g2
(I561
tp174
Rp175
(dp176
bg2
(I93
tp177
Rp178
(dp179
btp180
Rp181
(dp182
bag1
(g2
(I562
tp183
Rp184
(dp185
bg2
(I931
tp186
Rp187
(dp188
btp189
Rp190
(dp191
bag1
(g2
(I516
tp192
Rp193
(dp194
bg2
(I549
tp195
Rp196
(dp197
btp198
Rp199
(dp200
bag1
(g2
(I520
tp201
Rp202
(dp203
bg2
(I834
tp204
Rp205
(dp206
btp207
Rp208
(dp209
bag1
(g2
(I110
tp210
Rp211
(dp212
bg2
(I471
tp213
Rp214
(dp215
btp216
Rp217
(dp218
bag1
(g2
(I779
tp219
Rp220
(dp221
bg2
(I996
tp222
Rp223
(dp224
btp225
Rp226
(dp227
bag1
(g2
(I344
tp228
Rp229
(dp230
bg2
(I31
tp231
Rp232
(dp233
btp234
Rp235
(dp236
bag1
(g2
(I121
tp237
Rp238
(dp239
bg2
(I548
tp240
Rp241
(dp242
btp243
Rp244
(dp245
bag1
(g2
(I306
tp246
Rp247
(dp248
bg2
(I849
tp249
Rp250
(dp251
btp252
Rp253
(dp254
bag1
(g2
(I747
tp255
Rp256
(dp257
bg2
(I174
tp258
Rp259
(dp260
btp261
Rp262
(dp263
bag1
(g2
(I982
tp264
Rp265
(dp266
bg2
(I37
tp267
Rp268
(dp269
btp270
Rp271
(dp272
bag1
(g2
(I818
tp273
Rp274
(dp275
bg2
(I970
tp276
Rp277
(dp278
btp279
Rp280
(dp281
bag1
(g2
(I114
tp282
Rp283
(dp284
bg2
(I108
tp285
Rp286
(dp287
btp288
Rp289
(dp290
bag1
(g2
(I902
tp291
Rp292
(dp293
bg2
(I6
tp294
Rp295
(dp296
btp297
Rp298
(dp299
bag1
(g2
(I329
tp300
Rp301
(dp302
bg2
(I978
tp303
Rp304
(dp305
btp306
Rp307
(dp308
bag1
(g2
(I257
tp309
Rp310
(dp311
bg2
(I556
tp312
Rp313
(dp314
btp315
Rp316
(dp317
bag1
(g2
(I491
tp318
Rp319
(dp320
bg2
(I740
tp321
Rp322
(dp323
btp324
Rp325
(dp326
bag1
(g2
(I646
tp327
Rp328
(dp329
bg2
(I669
tp330
Rp331
(dp332
btp333
Rp334
(dp335
bag1
(g2
(I486
tp336
Rp337
(dp338
bg2
(I104
tp339
Rp340
(dp341
btp342
Rp343
(dp344
bag1
(g2
(I460
tp345
Rp346
(dp347
bg2
(I323
tp348
Rp349
(dp350
btp351
Rp352
(dp353
bag1
(g2
(I712
tp354
Rp355
(dp356
bg2
(I50
tp357
Rp358
(dp359
btp360
Rp361
(dp362
bag1
(g2
(I536
tp363
Rp364
(dp365
bg2
(I95
tp366
Rp367
(dp368
btp369
Rp370
(dp371
bag1
(g2
(I314
tp372
Rp373
(dp374
bg2
(I489
tp375
Rp376
(dp377
btp378
Rp379
(dp380
bag1
(g2
(I89
tp381
Rp382
(dp383
bg2
(I15
tp384
Rp385
(dp386
btp387
Rp388
(dp389
bag1
(g2
(I410
tp390
Rp391
(dp392
bg2
(I731
tp393
Rp394
(dp395
btp396
Rp397
(dp398
bag1
(g2
(I617
tp399
Rp400
(dp401
bg2
(I729
tp402
Rp403
(dp404
btp405
Rp406
(dp407
bag1
(g2
(I74
tp408
Rp409
(dp410
bg2
(I812
tp411
Rp412
(dp413
btp414
Rp415
(dp416
bag1
(g2
(I906
tp417
Rp418
(dp419
bg2
(I816
tp420
Rp421
(dp422
btp423
Rp424
(dp425
bag1
(g2
(I464
tp426
Rp427
(dp428
bg2
(I229
tp429
Rp430
(dp431
btp432
Rp433
(dp434
bag1
(g2
(I394
tp435
Rp436
(dp437
bg2
(I992
tp438
Rp439
(dp440
btp441
Rp442
(dp443
bag1
(g2
(I75
tp444
Rp445
(dp446
bg2
(I190
tp447
Rp448
(dp449
btp450
Rp451
(dp452
bag1
(g2
(I899
tp453
Rp454
(dp455
bg2
(I264
tp456
Rp457
(dp458
btp459
Rp460
(dp461
bag1
(g2
(I386
tp462
Rp463
(dp464
bg2
(I192
tp465
Rp466
(dp467
btp468
Rp469
(dp470
bag1
(g2
(I348
tp471
Rp472
(dp473
bg2
(I342
tp474
Rp475
(dp476
btp477
Rp478
(dp479
bag1
(g2
(I826
tp480
Rp481
(dp482
bg2
(I125
tp483
Rp484
(dp485
btp486
Rp487
(dp488
bag1
(g2
(I796
tp489
Rp490
(dp491
bg2
(I345
tp492
Rp493
(dp494
btp495
Rp496
(dp497
bag1
(g2
(I307
tp498
Rp499
(dp500
bg2
(I650
tp501
Rp502
(dp503
btp504
Rp505
(dp506
bag1
(g2
(I997
tp507
Rp508
(dp509
bg2
(I415
tp510
Rp511
(dp512
btp513
Rp514
(dp515
bag1
(g2
(I518
tp516
Rp517
(dp518
bg2
(I442
tp519
Rp520
(dp521
btp522
Rp523
(dp524
bag1
(g2
(I687
tp525
Rp526
(dp527
bg2
(I868
tp528
Rp529
(dp530
btp531
Rp532
(dp533
bag1
(g295
g2
(I450
tp534
Rp535
(dp536
btp537
Rp538
(dp539
bag1
(g2
(I426
tp540
Rp541
(dp542
bg2
(I407
tp543
Rp544
(dp545
btp546
Rp547
(dp548
bag1
(g2
(I768
tp549
Rp550
(dp551
bg2
(I590
tp552
Rp553
(dp554
btp555
Rp556
(dp557
bag1
(g2
(I132
tp558
Rp559
(dp560
bg2
(I113
tp561
Rp562
(dp563
btp564
Rp565
(dp566
bag1
(g2
(I477
tp567
Rp568
(dp569
bg2
(I580
tp570
Rp571
(dp572
btp573
Rp574
(dp575
bag1
(g2
(I284
tp576
Rp577
(dp578
bg292
tp579
Rp580
(dp581
bag1
(g2
(I458
tp582
Rp583
(dp584
bg2
(I378
tp585
Rp586
(dp587
btp588
Rp589
(dp590
bag1
(g2
(I466
tp591
Rp592
(dp593
bg328
tp594
Rp595
(dp596
bag1
(g2
(I613
tp597
Rp598
(dp599
bg2
(I161
tp600
Rp601
(dp602
btp603
Rp604
(dp605
bag1
(g2
(I72
tp606
Rp607
(dp608
bg2
(I70
tp609
Rp610
(dp611
btp612
Rp613
(dp614
bag1
(g2
(I523
tp615
Rp616
(dp617
bg2
(I612
tp618
Rp619
(dp620
btp621
Rp622
(dp623
bag1
(g2
(I983
tp624
Rp625
(dp626
bg2
(I223
tp627
Rp628
(dp629
btp630
Rp631
(dp632
bag1
(g2
(I953
tp633
Rp634
(dp635
bg2
(I601
tp636
Rp637
(dp638
btp639
Rp640
(dp641
bag1
(g2
(I117
tp642
Rp643
(dp644
bg2
(I328
tp645
Rp646
(dp647
btp648
Rp649
(dp650
bag1
(g2
(I681
tp651
Rp652
(dp653
bg2
(I656
tp654
Rp655
(dp656
btp657
Rp658
(dp659
bag1
(g2
(I735
tp660
Rp661
(dp662
bg2
(I237
tp663
Rp664
(dp665
btp666
Rp667
(dp668
bag1
(g2
(I62
tp669
Rp670
(dp671
bg139
tp672
Rp673
(dp674
bag1
(g79
g2
(I481
tp675
Rp676
(dp677
btp678
Rp679
(dp680
bag1
(g2
(I525
tp681
Rp682
(dp683
bg2
(I693
tp684
Rp685
(dp686
btp687
Rp688
(dp689
bag1
(g2
(I292
tp690
Rp691
(dp692
bg2
(I623
tp693
Rp694
(dp695
btp696
Rp697
(dp698
bag1
(g2
(I339
tp699
Rp700
(dp701
bg2
(I682
tp702
Rp703
(dp704
btp705
Rp706
(dp707
ba.