(lp0
csympy.geometry.point
Point2D
p1
(csympy.core.numbers
Integer
p2
(I549
tp3
Rp4
(dp5
bg2
(I771
tp6
Rp7
(dp8
btp9
Rp10
(dp11
bag1
(g2
(I845
tp12
Rp13
(dp14
bg2
(I433
tp15
Rp16
(dp17
btp18
Rp19
(dp20
bag1
(g2
(I867
tp21
Rp22
(dp23
bg2
(I137
tp24
Rp25
(dp26
btp27
Rp28
(dp29
bag1
(g2
(I705
tp30
Rp31
(dp32
bg2
(I939
tp33
Rp34
(dp35
btp36
Rp37
(dp38
bag1
(g2
(I619
tp39
Rp40
(dp41
bg2
(I473
tp42
Rp43
(dp44
btp45
Rp46
(dp47
bag1
(g2
(I424
tp48
Rp49
(dp50
bg2
(I699
tp51
Rp52
(dp53
btp54
Rp55
(dp56
bag1
(g2
(I285
tp57
Rp58
(dp59
bg2
(I469
tp60
Rp61
(dp62
btp63
Rp64
(dp65
bag1
(g2
(I252
tp66
Rp67
(dp68
bg2
(I913
tp69
Rp70
(dp71
btp72
Rp73
(dp74
bag1
(g2
(I72
tp75
Rp76
(dp77
bg2
(I76
tp78
Rp79
(dp80
btp81
Rp82
(dp83
bag1
(g2
(I203
tp84
Rp85
(dp86
bg2
(I749
tp87
Rp88
(dp89
btp90
Rp91
(dp92
bag1
(g2
(I843
tp93
Rp94
(dp95
bg2
(I398
tp96
Rp97
(dp98
btp99
Rp100
(dp101
bag1
(g2
(I53
tp102
Rp103
(dp104
bg2
(I415
tp105
Rp106
(dp107
btp108
Rp109
(dp110
bag1
(g2
(I990
tp111
Rp112
(dp113
bg2
(I59
tp114
Rp115
(dp116
btp117
Rp118
(dp119
bag1
(g2
(I36
tp120
Rp121
(dp122
bg2
(I930
tp123
Rp124
(dp125
btp126
Rp127
(dp128
bag1
(g2
(I743
tp129
Rp130
(dp131
bg2
(I633
tp132
Rp133
(dp134
btp135
Rp136
(dp137
bag1
(g2
(I955
tp138
Rp139
(dp140
bg2
(I974
tp141
Rp142
(dp143
btp144
Rp145
(dp146
bag1
(g2
(I816
tp147
Rp148
(dp149
bg2
(I526
tp150
Rp151
(dp152
btp153
Rp154
(dp155
bag1
(g2
(I93
tp156
Rp157
(dp158
bg2
(I46
tp159
Rp160
(dp161
btp162
Rp163
(dp164
bag1
(g2
(I431
tp165
Rp166
(dp167
bg2
(I557
tp168
Rp169
(dp170
btp171
Rp172
(dp173
bag1
(g2
(I236
tp174
Rp175
(dp176
bg2
(I891
tp177
Rp178
(dp179
btp180
Rp181
(dp182
bag1
(g2
(I385
tp183
Rp184
(dp185
bg2
(I317
tp186
Rp187
(dp188
btp189
Rp190
(dp191
bag1
(g2
(I713
tp192
Rp193
(dp194
bg2
(I910
tp195
Rp196
(dp197
btp198
Rp199
(dp200
bag1
(g2
(I305
tp201
Rp202
(dp203
bg2
(I157
tp204
Rp205
(dp206
btp207
Rp208
(dp209
bag1
(g2
(I434
tp210
Rp211
(dp212
bg2
(I21
tp213
Rp214
(dp215
btp216
Rp217
(dp218
bag1
(g2
(I106
tp219
Rp220
(dp221
bg2
(I435
tp222
Rp223
(dp224
btp225
Rp226
(dp227
bag1
(g2
(I696
tp228
Rp229
(dp230
bg2
(I312
tp231
Rp232
(dp233
btp234
Rp235
(dp236
bag1
(g2
(I961
tp237
Rp238
(dp239
bg2
(I257
tp240
Rp241
(dp242
btp243
Rp244
(dp245
bag1
(g2
(I877
tp246
Rp247
(dp248
bg2
(I277
tp249
Rp250
(dp251
btp252
Rp253
(dp254
bag1
(g2
(I490
tp255
Rp256
(dp257
bg2
(I665
tp258
Rp259
(dp260
btp261
Rp262
(dp263
bag1
(g2
(I292
tp264
Rp265
(dp266
bg2
(I371
tp267
Rp268
(dp269
btp270
Rp271
(dp272
bag1
(g2
(I985
tp273
Rp274
(dp275
bg2
(I193
tp276
Rp277
(dp278
btp279
Rp280
(dp281
bag1
(g2
(I151
tp282
Rp283
(dp284
bg2
(I162
tp285
Rp286
(dp287
btp288
Rp289
(dp290
bag1
(g2
(I953
tp291
Rp292
(dp293
bg2
(I515
tp294
Rp295
(dp296
btp297
Rp298
(dp299
bag1
(g2
(I765
tp300
Rp301
(dp302
bg2
(I124
tp303
Rp304
(dp305
btp306
Rp307
(dp308
bag1
(g304
g2
(I440
tp309
Rp310
(dp311
btp312
Rp313
(dp314
bag1
(g2
(I260
tp315
Rp316
(dp317
bg2
(I996
tp318
Rp319
(dp320
btp321
Rp322
(dp323
bag1
(g2
(I101
tp324
Rp325
(dp326
bg2
(I824
tp327
Rp328
(dp329
btp330
Rp331
(dp332
bag1
(g2
(I139
tp333
Rp334
(dp335
bg2
(I929
tp336
Rp337
(dp338
btp339
Rp340
(dp341
bag1
(g2
(I642
tp342
Rp343
(dp344
bg2
(I329
tp345
Rp346
(dp347
btp348
Rp349
(dp350
bag1
(g2
(I92
tp351
Rp352
(dp353
bg2
(I597
tp354
Rp355
(dp356
btp357
Rp358
(dp359
bag1
(g2
(I754
tp360
Rp361
(dp362
bg2
(I180
tp363
Rp364
(dp365
btp366
Rp367
(dp368
bag1
(g2
(I144
tp369
Rp370
(dp371
bg2
(I780
tp372
Rp373
(dp374
btp375
Rp376
(dp377
bag1
(g2
(I788
tp378
Rp379
(dp380
bg2
(I776
tp381
Rp382
(dp383
btp384
Rp385
(dp386
bag1
(g2
(I400
tp387
Rp388
(dp389
bg388
tp390
Rp391
(dp392
bag1
(g2
(I437
tp393
Rp394
(dp395
bg2
(I154
tp396
Rp397
(dp398
btp399
Rp400
(dp401
bag1
(g2
(I394
tp402
Rp403
(dp404
bg2
(I166
tp405
Rp406
(dp407
btp408
Rp409
(dp410
bag1
(g25
g2
(I395
tp411
Rp412
(dp413
btp414
Rp415
(dp416
bag1
(g2
(I509
tp417
Rp418
(dp419
bg2
(I507
tp420
Rp421
(dp422
btp423
Rp424
(dp425
bag1
(g2
(I810
tp426
Rp427
(dp428
bg2
(I811
tp429
Rp430
(dp431
btp432
Rp433
(dp434
bag1
(g2
(I741
tp435
Rp436
(dp437
bg2
(I731
tp438
Rp439
(dp440
btp441
Rp442
(dp443
bag1
(g2
(I624
tp444
Rp445
(dp446
bg2
(I497
tp447
Rp448
(dp449
btp450
Rp451
(dp452
bag1
(g2
(I928
tp453
Rp454
(dp455
bg2
(I176
tp456
Rp457
(dp458
btp459
Rp460
(dp461
bag1
(g2
(I689
tp462
Rp463
(dp464
bg2
(I590
tp465
Rp466
(dp467
btp468
Rp469
(dp470
bag1
(g2
(I492
tp471
Rp472
(dp473
bg166
tp474
Rp475
(dp476
bag1
(g2
(I975
tp477
Rp478
(dp479
bg2
(I580
tp480
Rp481
(dp482
btp483
Rp484
(dp485
bag1
(g2
(I338
tp486
Rp487
(dp488
bg2
(I302
tp489
Rp490
(dp491
btp492
Rp493
(dp494
bag1
(g2
(I89
tp495
Rp496
(dp497
bg2
(I636
tp498
Rp499
(dp500
btp501
Rp502
(dp503
bag1
(g2
(I48
tp504
Rp505
(dp506
bg2
(I711
tp507
Rp508
(dp509
btp510
Rp511
(dp512
bag1
(g2
(I49
tp513
Rp514
(dp515
bg2
(I278
tp516
Rp517
(dp518
btp519
Rp520
(dp521
bag1
(g2
(I516
tp522
Rp523
(dp524
bg2
(I487
tp525
Rp526
(dp527
btp528
Rp529
(dp530
bag1
(g2
(I855
tp531
Rp532
(dp533
bg2
(I339
tp534
Rp535
(dp536
btp537
Rp538
(dp539
bag1
(g2
(I206
tp540
Rp541
(dp542
bg2
(I174
tp543
Rp544
(dp545
btp546
Rp547
(dp548
bag1
(g2
(I898
tp549
Rp550
(dp551
bg2
(I220
tp552
Rp553
(dp554
btp555
Rp556
(dp557
bag1
(g2
(I156
tp558
Rp559
(dp560
bg2
(I456
tp561
Rp562
(dp563
btp564
Rp565
(dp566
bag1
(g2
(I341
tp567
Rp568
(dp569
bg2
(I451
tp570
Rp571
(dp572
btp573
Rp574
(dp575
bag1
(g2
(I283
tp576
Rp577
(dp578
bg2
(I237
tp579
Rp580
(dp581
btp582
Rp583
(dp584
bag1
(g2
(I923
tp585
Rp586
(dp587
bg2
(I250
tp588
Rp589
(dp590
btp591
Rp592
(dp593
bag1
(g2
(I577
tp594
Rp595
(dp596
bg2
(I587
tp597
Rp598
(dp599
btp600
Rp601
(dp602
bag1
(g2
(I471
tp603
Rp604
(dp605
bg2
(I279
tp606
Rp607
(dp608
btp609
Rp610
(dp611
bag1
(g2
(I493
tp612
Rp613
(dp614
bg2
(I320
tp615
Rp616
(dp617
btp618
Rp619
(dp620
bag1
(g2
(I650
tp621
Rp622
(dp623
bg2
(I623
tp624
Rp625
(dp626
btp627
Rp628
(dp629
bag1
(g2
(I676
tp630
Rp631
(dp632
bg2
(I333
tp633
Rp634
(dp635
btp636
Rp637
(dp638
bag1
(g2
(I274
tp639
Rp640
(dp641
bg2
(I715
tp642
Rp643
(dp644
btp645
Rp646
(dp647
bag1
(g2
(I262
tp648
Rp649
(dp650
bg2
(I787
tp651
Rp652
(dp653
btp654
Rp655
(dp656
bag1
(g2
(I993
tp657
Rp658
(dp659
bg2
(I465
tp660
Rp661
(dp662
btp663
Rp664
(dp665
bag1
(g2
(I7
tp666
Rp667
(dp668
bg2
(I831
tp669
Rp670
(dp671
btp672
Rp673
(dp674
bag1
(g2
(I719
tp675
Rp676
(dp677
bg2
(I127
tp678
Rp679
(dp680
btp681
Rp682
(dp683
bag1
(g2
(I282
tp684
Rp685
(dp686
bg49
tp687
Rp688
(dp689
bag1
(g2
(I195
tp690
Rp691
(dp692
bg2
(I940
tp693
Rp694
(dp695
btp696
Rp697
(dp698
bag1
(g2
(I449
tp699
Rp700
(dp701
bg2
(I268
tp702
Rp703
(dp704
btp705
Rp706
(dp707
ba.