(lp0
csympy.geometry.point
Point2D
p1
(csympy.core.numbers
Integer
p2
(I433
tp3
Rp4
(dp5
bg2
(I966
tp6
Rp7
(dp8
btp9
Rp10
(dp11
bag1
(g2
(I586
tp12
Rp13
(dp14
bg2
(I655
tp15
Rp16
(dp17
btp18
Rp19
(dp20
bag1
(g2
(I653
tp21
Rp22
(dp23
bg2
(I119
tp24
Rp25
(dp26
btp27
Rp28
(dp29
bag1
(g2
(I759
tp30
Rp31
(dp32
bg2
(I851
tp33
Rp34
(dp35
btp36
Rp37
(dp38
bag1
(g2
(I707
tp39
Rp40
(dp41
bg2
(I168
tp42
Rp43
(dp44
btp45
Rp46
(dp47
bag1
(g2
(I288
tp48
Rp49
(dp50
bg2
(I163
tp51
Rp52
(dp53
btp54
Rp55
(dp56
bag1
(g2
(I970
tp57
Rp58
(dp59
bg2
(I319
tp60
Rp61
(dp62
btp63
Rp64
(dp65
bag1
(g2
(I608
tp66
Rp67
(dp68
bg2
(I648
tp69
Rp70
(dp71
btp72
Rp73
(dp74
bag1
(g2
(I581
tp75
Rp76
(dp77
bg2
(I289
tp78
Rp79
(dp80
btp81
Rp82
(dp83
bag1
(g2
(I473
tp84
Rp85
(dp86
bg2
(I749
tp87
Rp88
(dp89
btp90
Rp91
(dp92
bag1
(g2
(I599
tp93
Rp94
(dp95
bg2
(I892
tp96
Rp97
(dp98
btp99
Rp100
(dp101
bag1
(g2
(I248
tp102
Rp103
(dp104
bg2
(I945
tp105
Rp106
(dp107
btp108
Rp109
(dp110
bag1
(g2
(I486
tp111
Rp112
(dp113
bg2
(I81
tp114
Rp115
(dp116
btp117
Rp118
(dp119
bag1
(g2
(I768
tp120
Rp121
(dp122
bg2
(I206
tp123
Rp124
(dp125
btp126
Rp127
(dp128
bag1
(g2
(I171
tp129
Rp130
(dp131
bg2
(I19
tp132
Rp133
(dp134
btp135
Rp136
(dp137
bag1
(g2
(I72
tp138
Rp139
(dp140
bg2
(I981
tp141
Rp142
(dp143
btp144
Rp145
(dp146
bag1
(g2
(I200
tp147
Rp148
(dp149
bg2
(I294
tp150
Rp151
(dp152
btp153
Rp154
(dp155
bag1
(g2
(I450
tp156
Rp157
(dp158
bg2
(I86
tp159
Rp160
(dp161
btp162
Rp163
(dp164
bag1
(g2
(I417
tp165
Rp166
(dp167
bg2
(I410
tp168
Rp169
(dp170
btp171
Rp172
(dp173
bag1
(g2
(I956
tp174
Rp175
(dp176
bg2
(I893
tp177
Rp178
(dp179
btp180
Rp181
(dp182
bag1
(g2
(I62
tp183
Rp184
(dp185
bg2
(I392
tp186
Rp187
(dp188
btp189
Rp190
(dp191
bag1
(g2
(I126
tp192
Rp193
(dp194
bg2
(I209
tp195
Rp196
(dp197
btp198
Rp199
(dp200
bag1
(g2
(I823
tp201
Rp202
(dp203
bg2
(I492
tp204
Rp205
(dp206
btp207
Rp208
(dp209
bag1
(g2
(I118
tp210
Rp211
(dp212
bg175
tp213
Rp214
(dp215
bag1
(g2
(I188
tp216
Rp217
(dp218
bg2
(I66
tp219
Rp220
(dp221
btp222
Rp223
(dp224
bag1
(g2
(I646
tp225
Rp226
(dp227
bg2
(I395
tp228
Rp229
(dp230
btp231
Rp232
(dp233
bag1
(g2
(I92
tp234
Rp235
(dp236
bg2
(I809
tp237
Rp238
(dp239
btp240
Rp241
(dp242
bag1
(g2
(I193
tp243
Rp244
(dp245
bg2
(I471
tp246
Rp247
(dp248
btp249
Rp250
(dp251
bag1
(g2
(I444
tp252
Rp253
(dp254
bg2
(I335
tp255
Rp256
(dp257
btp258
Rp259
(dp260
bag1
(g2
(I774
tp261
Rp262
(dp263
bg2
(I509
tp264
Rp265
(dp266
btp267
Rp268
(dp269
bag1
(g2
(I344
tp270
Rp271
(dp272
bg2
(I348
tp273
Rp274
(dp275
btp276
Rp277
(dp278
bag1
(g2
(I113
tp279
Rp280
(dp281
bg2
(I611
tp282
Rp283
(dp284
btp285
Rp286
(dp287
bag1
(g2
(I614
tp288
Rp289
(dp290
bg2
(I855
tp291
Rp292
(dp293
btp294
Rp295
(dp296
bag1
(g256
g2
(I797
tp297
Rp298
(dp299
btp300
Rp301
(dp302
bag1
(g2
(I556
tp303
Rp304
(dp305
bg2
(I207
tp306
Rp307
(dp308
btp309
Rp310
(dp311
bag1
(g2
(I108
tp312
Rp313
(dp314
bg2
(I609
tp315
Rp316
(dp317
btp318
Rp319
(dp320
bag1
(g2
(I304
tp321
Rp322
(dp323
bg2
(I358
tp324
Rp325
(dp326
btp327
Rp328
(dp329
bag1
(g2
(I666
tp330
Rp331
(dp332
bg2
(I936
tp333
Rp334
(dp335
btp336
Rp337
(dp338
bag1
(g2
(I668
tp339
Rp340
(dp341
bg2
(I488
tp342
Rp343
(dp344
btp345
Rp346
(dp347
bag1
(g2
(I767
tp348
Rp349
(dp350
bg2
(I69
tp351
Rp352
(dp353
btp354
Rp355
(dp356
bag1
(g2
(I825
tp357
Rp358
(dp359
bg2
(I216
tp360
Rp361
(dp362
btp363
Rp364
(dp365
bag1
(g2
(I682
tp366
Rp367
(dp368
bg2
(I263
tp369
Rp370
(dp371
btp372
Rp373
(dp374
bag1
(g2
(I57
tp375
Rp376
(dp377
bg2
(I747
tp378
Rp379
(dp380
btp381
Rp382
(dp383
bag1
(g2
(I44
tp384
Rp385
(dp386
bg2
(I922
tp387
Rp388
(dp389
btp390
Rp391
(dp392
bag1
(g2
(I314
tp393
Rp394
(dp395
bg2
(I941
tp396
Rp397
(dp398
btp399
Rp400
(dp401
bag1
(g2
(I670
tp402
Rp403
(dp404
bg2
(I42
tp405
Rp406
(dp407
btp408
Rp409
(dp410
bag1
(g2
(I203
tp411
Rp412
(dp413
bg2
(I843
tp414
Rp415
(dp416
btp417
Rp418
(dp419
bag1
(g2
(I159
tp420
Rp421
(dp422
bg2
(I880
tp423
Rp424
(dp425
btp426
Rp427
(dp428
bag1
(g2
(I341
tp429
Rp430
(dp431
bg2
(I580
tp432
Rp433
(dp434
btp435
Rp436
(dp437
bag1
(g2
(I342
tp438
Rp439
(dp440
bg2
(I641
tp441
Rp442
(dp443
btp444
Rp445
(dp446
bag1
(g2
(I791
tp447
Rp448
(dp449
bg2
(I845
tp450
Rp451
(dp452
btp453
Rp454
(dp455
bag1
(g43
g2
(I671
tp456
Rp457
(dp458
btp459
Rp460
(dp461
bag1
(g2
(I542
tp462
Rp463
(dp464
bg2
(I884
tp465
Rp466
(dp467
btp468
Rp469
(dp470
bag1
(g2
(I573
tp471
Rp472
(dp473
bg2
(I859
tp474
Rp475
(dp476
btp477
Rp478
(dp479
bag1
(g2
(I526
tp480
Rp481
(dp482
bg2
(I496
tp483
Rp484
(dp485
btp486
Rp487
(dp488
bag1
(g2
(I948
tp489
Rp490
(dp491
bg2
(I959
tp492
Rp493
(dp494
btp495
Rp496
(dp497
bag1
(g2
(I29
tp498
Rp499
(dp500
bg2
(I583
tp501
Rp502
(dp503
btp504
Rp505
(dp506
bag1
(g2
(I346
tp507
Rp508
(dp509
bg2
(I725
tp510
Rp511
(dp512
btp513
Rp514
(dp515
bag1
(g2
(I618
tp516
Rp517
(dp518
bg2
(I512
tp519
Rp520
(dp521
btp522
Rp523
(dp524
bag1
(g2
(I100
tp525
Rp526
(dp527
bg2
(I445
tp528
Rp529
(dp530
btp531
Rp532
(dp533
bag1
(g2
(I321
tp534
Rp535
(dp536
bg2
(I720
tp537
Rp538
(dp539
btp540
Rp541
(dp542
bag1
(g2
(I988
tp543
Rp544
(dp545
bg2
(I467
tp546
Rp547
(dp548
btp549
Rp550
(dp551
bag1
(g2
(I676
tp552
Rp553
(dp554
bg2
(I654
tp555
Rp556
(dp557
btp558
Rp559
(dp560
bag1
(g2
(I563
tp561
Rp562
(dp563
bg2
(I808
tp564
Rp565
(dp566
btp567
Rp568
(dp569
bag1
(g2
(I691
tp570
Rp571
(dp572
bg2
(I658
tp573
Rp574
(dp575
btp576
Rp577
(dp578
bag1
(g2
(I996
tp579
Rp580
(dp581
bg2
(I694
tp582
Rp583
(dp584
btp585
Rp586
(dp587
bag1
(g2
(I415
tp588
Rp589
(dp590
bg2
(I483
tp591
Rp592
(dp593
btp594
Rp595
(dp596
bag1
(g2
(I137
tp597
Rp598
(dp599
bg2
(I365
tp600
Rp601
(dp602
btp603
Rp604
(dp605
bag1
(g2
(I634
tp606
Rp607
(dp608
bg2
(I67
tp609
Rp610
(dp611
btp612
Rp613
(dp614
bag1
(g2
(I584
tp615
Rp616
(dp617
bg2
(I866
tp618
Rp619
(dp620
btp621
Rp622
(dp623
bag1
(g2
(I663
tp624
Rp625
(dp626
bg2
(I627
tp627
Rp628
(dp629
btp630
Rp631
(dp632
bag1
(g2
(I6
tp633
Rp634
(dp635
bg430
tp636
Rp637
(dp638
bag1
(g2
(I510
tp639
Rp640
(dp641
bg2
(I637
tp642
Rp643
(dp644
btp645
Rp646
(dp647
bag1
(g2
(I769
tp648
Rp649
(dp650
bg2
(I946
tp651
Rp652
(dp653
btp654
Rp655
(dp656
bag1
(g2
(I407
tp657
Rp658
(dp659
bg2
(I661
tp660
Rp661
(dp662
btp663
Rp664
(dp665
bag1
(g2
(I916
tp666
Rp667
(dp668
bg2
(I625
tp669
Rp670
(dp671
btp672
Rp673
(dp674
bag1
(g2
(I455
tp675
Rp676
(dp677
bg2
(I398
tp678
Rp679
(dp680
btp681
Rp682
(dp683
bag1
(g2
(I306
tp684
Rp685
(dp686
bg2
(I550
tp687
Rp688
(dp689
btp690
Rp691
(dp692
bag1
(g2
(I989
tp693
Rp694
(dp695
bg2
(I107
tp696
Rp697
(dp698
btp699
Rp700
(dp701
bag1
(g2
(I679
tp702
Rp703
(dp704
bg2
(I154
tp705
Rp706
(dp707
btp708
Rp709
(dp710
ba.